ARM GAS  C:\Users\larco\AppData\Local\Temp\ccWdx4ni.s 			page 1


   1              		.syntax unified
   2              		.cpu cortex-m3
   3              		.fpu softvfp
   4              		.eabi_attribute 20, 1
   5              		.eabi_attribute 21, 1
   6              		.eabi_attribute 23, 3
   7              		.eabi_attribute 24, 1
   8              		.eabi_attribute 25, 1
   9              		.eabi_attribute 26, 1
  10              		.eabi_attribute 30, 2
  11              		.eabi_attribute 34, 1
  12              		.eabi_attribute 18, 4
  13              		.thumb
  14              		.syntax unified
  15              		.file	"ADC_DelSig_1_IRQ.c"
  16              		.text
  17              	.Ltext0:
  18              		.cfi_sections	.debug_frame
  19              		.section	.text.ADC_DelSig_1_IRQ_Interrupt,"ax",%progbits
  20              		.align	2
  21              		.global	ADC_DelSig_1_IRQ_Interrupt
  22              		.thumb
  23              		.thumb_func
  24              		.type	ADC_DelSig_1_IRQ_Interrupt, %function
  25              	ADC_DelSig_1_IRQ_Interrupt:
  26              	.LFB3:
  27              		.file 1 "Generated_Source\\PSoC5\\ADC_DelSig_1_IRQ.c"
   1:Generated_Source\PSoC5/ADC_DelSig_1_IRQ.c **** /*******************************************************************************
   2:Generated_Source\PSoC5/ADC_DelSig_1_IRQ.c **** * File Name: ADC_DelSig_1_IRQ.c  
   3:Generated_Source\PSoC5/ADC_DelSig_1_IRQ.c **** * Version 1.70
   4:Generated_Source\PSoC5/ADC_DelSig_1_IRQ.c **** *
   5:Generated_Source\PSoC5/ADC_DelSig_1_IRQ.c **** *  Description:
   6:Generated_Source\PSoC5/ADC_DelSig_1_IRQ.c **** *   API for controlling the state of an interrupt.
   7:Generated_Source\PSoC5/ADC_DelSig_1_IRQ.c **** *
   8:Generated_Source\PSoC5/ADC_DelSig_1_IRQ.c **** *
   9:Generated_Source\PSoC5/ADC_DelSig_1_IRQ.c **** *  Note:
  10:Generated_Source\PSoC5/ADC_DelSig_1_IRQ.c **** *
  11:Generated_Source\PSoC5/ADC_DelSig_1_IRQ.c **** ********************************************************************************
  12:Generated_Source\PSoC5/ADC_DelSig_1_IRQ.c **** * Copyright 2008-2015, Cypress Semiconductor Corporation.  All rights reserved.
  13:Generated_Source\PSoC5/ADC_DelSig_1_IRQ.c **** * You may use this file only in accordance with the license, terms, conditions, 
  14:Generated_Source\PSoC5/ADC_DelSig_1_IRQ.c **** * disclaimers, and limitations in the end user license agreement accompanying 
  15:Generated_Source\PSoC5/ADC_DelSig_1_IRQ.c **** * the software package with which this file was provided.
  16:Generated_Source\PSoC5/ADC_DelSig_1_IRQ.c **** *******************************************************************************/
  17:Generated_Source\PSoC5/ADC_DelSig_1_IRQ.c **** 
  18:Generated_Source\PSoC5/ADC_DelSig_1_IRQ.c **** 
  19:Generated_Source\PSoC5/ADC_DelSig_1_IRQ.c **** #include <cydevice_trm.h>
  20:Generated_Source\PSoC5/ADC_DelSig_1_IRQ.c **** #include <CyLib.h>
  21:Generated_Source\PSoC5/ADC_DelSig_1_IRQ.c **** #include <ADC_DelSig_1_IRQ.h>
  22:Generated_Source\PSoC5/ADC_DelSig_1_IRQ.c **** #include "cyapicallbacks.h"
  23:Generated_Source\PSoC5/ADC_DelSig_1_IRQ.c **** 
  24:Generated_Source\PSoC5/ADC_DelSig_1_IRQ.c **** #if !defined(ADC_DelSig_1_IRQ__REMOVED) /* Check for removal by optimization */
  25:Generated_Source\PSoC5/ADC_DelSig_1_IRQ.c **** 
  26:Generated_Source\PSoC5/ADC_DelSig_1_IRQ.c **** /*******************************************************************************
  27:Generated_Source\PSoC5/ADC_DelSig_1_IRQ.c **** *  Place your includes, defines and code here 
  28:Generated_Source\PSoC5/ADC_DelSig_1_IRQ.c **** ********************************************************************************/
  29:Generated_Source\PSoC5/ADC_DelSig_1_IRQ.c **** /* `#START ADC_DelSig_1_IRQ_intc` */
  30:Generated_Source\PSoC5/ADC_DelSig_1_IRQ.c **** 
ARM GAS  C:\Users\larco\AppData\Local\Temp\ccWdx4ni.s 			page 2


  31:Generated_Source\PSoC5/ADC_DelSig_1_IRQ.c **** /* `#END` */
  32:Generated_Source\PSoC5/ADC_DelSig_1_IRQ.c **** 
  33:Generated_Source\PSoC5/ADC_DelSig_1_IRQ.c **** #ifndef CYINT_IRQ_BASE
  34:Generated_Source\PSoC5/ADC_DelSig_1_IRQ.c **** #define CYINT_IRQ_BASE      16
  35:Generated_Source\PSoC5/ADC_DelSig_1_IRQ.c **** #endif /* CYINT_IRQ_BASE */
  36:Generated_Source\PSoC5/ADC_DelSig_1_IRQ.c **** #ifndef CYINT_VECT_TABLE
  37:Generated_Source\PSoC5/ADC_DelSig_1_IRQ.c **** #define CYINT_VECT_TABLE    ((cyisraddress **) CYREG_NVIC_VECT_OFFSET)
  38:Generated_Source\PSoC5/ADC_DelSig_1_IRQ.c **** #endif /* CYINT_VECT_TABLE */
  39:Generated_Source\PSoC5/ADC_DelSig_1_IRQ.c **** 
  40:Generated_Source\PSoC5/ADC_DelSig_1_IRQ.c **** /* Declared in startup, used to set unused interrupts to. */
  41:Generated_Source\PSoC5/ADC_DelSig_1_IRQ.c **** CY_ISR_PROTO(IntDefaultHandler);
  42:Generated_Source\PSoC5/ADC_DelSig_1_IRQ.c **** 
  43:Generated_Source\PSoC5/ADC_DelSig_1_IRQ.c **** 
  44:Generated_Source\PSoC5/ADC_DelSig_1_IRQ.c **** /*******************************************************************************
  45:Generated_Source\PSoC5/ADC_DelSig_1_IRQ.c **** * Function Name: ADC_DelSig_1_IRQ_Start
  46:Generated_Source\PSoC5/ADC_DelSig_1_IRQ.c **** ********************************************************************************
  47:Generated_Source\PSoC5/ADC_DelSig_1_IRQ.c **** *
  48:Generated_Source\PSoC5/ADC_DelSig_1_IRQ.c **** * Summary:
  49:Generated_Source\PSoC5/ADC_DelSig_1_IRQ.c **** *  Set up the interrupt and enable it. This function disables the interrupt, 
  50:Generated_Source\PSoC5/ADC_DelSig_1_IRQ.c **** *  sets the default interrupt vector, sets the priority from the value in the
  51:Generated_Source\PSoC5/ADC_DelSig_1_IRQ.c **** *  Design Wide Resources Interrupt Editor, then enables the interrupt to the 
  52:Generated_Source\PSoC5/ADC_DelSig_1_IRQ.c **** *  interrupt controller.
  53:Generated_Source\PSoC5/ADC_DelSig_1_IRQ.c **** *
  54:Generated_Source\PSoC5/ADC_DelSig_1_IRQ.c **** * Parameters:  
  55:Generated_Source\PSoC5/ADC_DelSig_1_IRQ.c **** *   None
  56:Generated_Source\PSoC5/ADC_DelSig_1_IRQ.c **** *
  57:Generated_Source\PSoC5/ADC_DelSig_1_IRQ.c **** * Return:
  58:Generated_Source\PSoC5/ADC_DelSig_1_IRQ.c **** *   None
  59:Generated_Source\PSoC5/ADC_DelSig_1_IRQ.c **** *
  60:Generated_Source\PSoC5/ADC_DelSig_1_IRQ.c **** *******************************************************************************/
  61:Generated_Source\PSoC5/ADC_DelSig_1_IRQ.c **** void ADC_DelSig_1_IRQ_Start(void)
  62:Generated_Source\PSoC5/ADC_DelSig_1_IRQ.c **** {
  63:Generated_Source\PSoC5/ADC_DelSig_1_IRQ.c ****     /* For all we know the interrupt is active. */
  64:Generated_Source\PSoC5/ADC_DelSig_1_IRQ.c ****     ADC_DelSig_1_IRQ_Disable();
  65:Generated_Source\PSoC5/ADC_DelSig_1_IRQ.c **** 
  66:Generated_Source\PSoC5/ADC_DelSig_1_IRQ.c ****     /* Set the ISR to point to the ADC_DelSig_1_IRQ Interrupt. */
  67:Generated_Source\PSoC5/ADC_DelSig_1_IRQ.c ****     ADC_DelSig_1_IRQ_SetVector(&ADC_DelSig_1_IRQ_Interrupt);
  68:Generated_Source\PSoC5/ADC_DelSig_1_IRQ.c **** 
  69:Generated_Source\PSoC5/ADC_DelSig_1_IRQ.c ****     /* Set the priority. */
  70:Generated_Source\PSoC5/ADC_DelSig_1_IRQ.c ****     ADC_DelSig_1_IRQ_SetPriority((uint8)ADC_DelSig_1_IRQ_INTC_PRIOR_NUMBER);
  71:Generated_Source\PSoC5/ADC_DelSig_1_IRQ.c **** 
  72:Generated_Source\PSoC5/ADC_DelSig_1_IRQ.c ****     /* Enable it. */
  73:Generated_Source\PSoC5/ADC_DelSig_1_IRQ.c ****     ADC_DelSig_1_IRQ_Enable();
  74:Generated_Source\PSoC5/ADC_DelSig_1_IRQ.c **** }
  75:Generated_Source\PSoC5/ADC_DelSig_1_IRQ.c **** 
  76:Generated_Source\PSoC5/ADC_DelSig_1_IRQ.c **** 
  77:Generated_Source\PSoC5/ADC_DelSig_1_IRQ.c **** /*******************************************************************************
  78:Generated_Source\PSoC5/ADC_DelSig_1_IRQ.c **** * Function Name: ADC_DelSig_1_IRQ_StartEx
  79:Generated_Source\PSoC5/ADC_DelSig_1_IRQ.c **** ********************************************************************************
  80:Generated_Source\PSoC5/ADC_DelSig_1_IRQ.c **** *
  81:Generated_Source\PSoC5/ADC_DelSig_1_IRQ.c **** * Summary:
  82:Generated_Source\PSoC5/ADC_DelSig_1_IRQ.c **** *  Sets up the interrupt and enables it. This function disables the interrupt,
  83:Generated_Source\PSoC5/ADC_DelSig_1_IRQ.c **** *  sets the interrupt vector based on the address passed in, sets the priority 
  84:Generated_Source\PSoC5/ADC_DelSig_1_IRQ.c **** *  from the value in the Design Wide Resources Interrupt Editor, then enables 
  85:Generated_Source\PSoC5/ADC_DelSig_1_IRQ.c **** *  the interrupt to the interrupt controller.
  86:Generated_Source\PSoC5/ADC_DelSig_1_IRQ.c **** *  
  87:Generated_Source\PSoC5/ADC_DelSig_1_IRQ.c **** *  When defining ISR functions, the CY_ISR and CY_ISR_PROTO macros should be 
ARM GAS  C:\Users\larco\AppData\Local\Temp\ccWdx4ni.s 			page 3


  88:Generated_Source\PSoC5/ADC_DelSig_1_IRQ.c **** *  used to provide consistent definition across compilers:
  89:Generated_Source\PSoC5/ADC_DelSig_1_IRQ.c **** *  
  90:Generated_Source\PSoC5/ADC_DelSig_1_IRQ.c **** *  Function definition example:
  91:Generated_Source\PSoC5/ADC_DelSig_1_IRQ.c **** *   CY_ISR(MyISR)
  92:Generated_Source\PSoC5/ADC_DelSig_1_IRQ.c **** *   {
  93:Generated_Source\PSoC5/ADC_DelSig_1_IRQ.c **** *   }
  94:Generated_Source\PSoC5/ADC_DelSig_1_IRQ.c **** *   Function prototype example:
  95:Generated_Source\PSoC5/ADC_DelSig_1_IRQ.c **** *   CY_ISR_PROTO(MyISR);
  96:Generated_Source\PSoC5/ADC_DelSig_1_IRQ.c **** *
  97:Generated_Source\PSoC5/ADC_DelSig_1_IRQ.c **** * Parameters:  
  98:Generated_Source\PSoC5/ADC_DelSig_1_IRQ.c **** *   address: Address of the ISR to set in the interrupt vector table.
  99:Generated_Source\PSoC5/ADC_DelSig_1_IRQ.c **** *
 100:Generated_Source\PSoC5/ADC_DelSig_1_IRQ.c **** * Return:
 101:Generated_Source\PSoC5/ADC_DelSig_1_IRQ.c **** *   None
 102:Generated_Source\PSoC5/ADC_DelSig_1_IRQ.c **** *
 103:Generated_Source\PSoC5/ADC_DelSig_1_IRQ.c **** *******************************************************************************/
 104:Generated_Source\PSoC5/ADC_DelSig_1_IRQ.c **** void ADC_DelSig_1_IRQ_StartEx(cyisraddress address)
 105:Generated_Source\PSoC5/ADC_DelSig_1_IRQ.c **** {
 106:Generated_Source\PSoC5/ADC_DelSig_1_IRQ.c ****     /* For all we know the interrupt is active. */
 107:Generated_Source\PSoC5/ADC_DelSig_1_IRQ.c ****     ADC_DelSig_1_IRQ_Disable();
 108:Generated_Source\PSoC5/ADC_DelSig_1_IRQ.c **** 
 109:Generated_Source\PSoC5/ADC_DelSig_1_IRQ.c ****     /* Set the ISR to point to the ADC_DelSig_1_IRQ Interrupt. */
 110:Generated_Source\PSoC5/ADC_DelSig_1_IRQ.c ****     ADC_DelSig_1_IRQ_SetVector(address);
 111:Generated_Source\PSoC5/ADC_DelSig_1_IRQ.c **** 
 112:Generated_Source\PSoC5/ADC_DelSig_1_IRQ.c ****     /* Set the priority. */
 113:Generated_Source\PSoC5/ADC_DelSig_1_IRQ.c ****     ADC_DelSig_1_IRQ_SetPriority((uint8)ADC_DelSig_1_IRQ_INTC_PRIOR_NUMBER);
 114:Generated_Source\PSoC5/ADC_DelSig_1_IRQ.c **** 
 115:Generated_Source\PSoC5/ADC_DelSig_1_IRQ.c ****     /* Enable it. */
 116:Generated_Source\PSoC5/ADC_DelSig_1_IRQ.c ****     ADC_DelSig_1_IRQ_Enable();
 117:Generated_Source\PSoC5/ADC_DelSig_1_IRQ.c **** }
 118:Generated_Source\PSoC5/ADC_DelSig_1_IRQ.c **** 
 119:Generated_Source\PSoC5/ADC_DelSig_1_IRQ.c **** 
 120:Generated_Source\PSoC5/ADC_DelSig_1_IRQ.c **** /*******************************************************************************
 121:Generated_Source\PSoC5/ADC_DelSig_1_IRQ.c **** * Function Name: ADC_DelSig_1_IRQ_Stop
 122:Generated_Source\PSoC5/ADC_DelSig_1_IRQ.c **** ********************************************************************************
 123:Generated_Source\PSoC5/ADC_DelSig_1_IRQ.c **** *
 124:Generated_Source\PSoC5/ADC_DelSig_1_IRQ.c **** * Summary:
 125:Generated_Source\PSoC5/ADC_DelSig_1_IRQ.c **** *   Disables and removes the interrupt.
 126:Generated_Source\PSoC5/ADC_DelSig_1_IRQ.c **** *
 127:Generated_Source\PSoC5/ADC_DelSig_1_IRQ.c **** * Parameters:  
 128:Generated_Source\PSoC5/ADC_DelSig_1_IRQ.c **** *   None
 129:Generated_Source\PSoC5/ADC_DelSig_1_IRQ.c **** *
 130:Generated_Source\PSoC5/ADC_DelSig_1_IRQ.c **** * Return:
 131:Generated_Source\PSoC5/ADC_DelSig_1_IRQ.c **** *   None
 132:Generated_Source\PSoC5/ADC_DelSig_1_IRQ.c **** *
 133:Generated_Source\PSoC5/ADC_DelSig_1_IRQ.c **** *******************************************************************************/
 134:Generated_Source\PSoC5/ADC_DelSig_1_IRQ.c **** void ADC_DelSig_1_IRQ_Stop(void)
 135:Generated_Source\PSoC5/ADC_DelSig_1_IRQ.c **** {
 136:Generated_Source\PSoC5/ADC_DelSig_1_IRQ.c ****     /* Disable this interrupt. */
 137:Generated_Source\PSoC5/ADC_DelSig_1_IRQ.c ****     ADC_DelSig_1_IRQ_Disable();
 138:Generated_Source\PSoC5/ADC_DelSig_1_IRQ.c **** 
 139:Generated_Source\PSoC5/ADC_DelSig_1_IRQ.c ****     /* Set the ISR to point to the passive one. */
 140:Generated_Source\PSoC5/ADC_DelSig_1_IRQ.c ****     ADC_DelSig_1_IRQ_SetVector(&IntDefaultHandler);
 141:Generated_Source\PSoC5/ADC_DelSig_1_IRQ.c **** }
 142:Generated_Source\PSoC5/ADC_DelSig_1_IRQ.c **** 
 143:Generated_Source\PSoC5/ADC_DelSig_1_IRQ.c **** 
 144:Generated_Source\PSoC5/ADC_DelSig_1_IRQ.c **** /*******************************************************************************
ARM GAS  C:\Users\larco\AppData\Local\Temp\ccWdx4ni.s 			page 4


 145:Generated_Source\PSoC5/ADC_DelSig_1_IRQ.c **** * Function Name: ADC_DelSig_1_IRQ_Interrupt
 146:Generated_Source\PSoC5/ADC_DelSig_1_IRQ.c **** ********************************************************************************
 147:Generated_Source\PSoC5/ADC_DelSig_1_IRQ.c **** *
 148:Generated_Source\PSoC5/ADC_DelSig_1_IRQ.c **** * Summary:
 149:Generated_Source\PSoC5/ADC_DelSig_1_IRQ.c **** *   The default Interrupt Service Routine for ADC_DelSig_1_IRQ.
 150:Generated_Source\PSoC5/ADC_DelSig_1_IRQ.c **** *
 151:Generated_Source\PSoC5/ADC_DelSig_1_IRQ.c **** *   Add custom code between the coments to keep the next version of this file
 152:Generated_Source\PSoC5/ADC_DelSig_1_IRQ.c **** *   from over writting your code.
 153:Generated_Source\PSoC5/ADC_DelSig_1_IRQ.c **** *
 154:Generated_Source\PSoC5/ADC_DelSig_1_IRQ.c **** * Parameters:  
 155:Generated_Source\PSoC5/ADC_DelSig_1_IRQ.c **** *
 156:Generated_Source\PSoC5/ADC_DelSig_1_IRQ.c **** * Return:
 157:Generated_Source\PSoC5/ADC_DelSig_1_IRQ.c **** *   None
 158:Generated_Source\PSoC5/ADC_DelSig_1_IRQ.c **** *
 159:Generated_Source\PSoC5/ADC_DelSig_1_IRQ.c **** *******************************************************************************/
 160:Generated_Source\PSoC5/ADC_DelSig_1_IRQ.c **** CY_ISR(ADC_DelSig_1_IRQ_Interrupt)
 161:Generated_Source\PSoC5/ADC_DelSig_1_IRQ.c **** {
  28              		.loc 1 161 0
  29              		.cfi_startproc
  30              		@ args = 0, pretend = 0, frame = 0
  31              		@ frame_needed = 0, uses_anonymous_args = 0
  32              		@ link register save eliminated.
  33 0000 7047     		bx	lr
  34              		.cfi_endproc
  35              	.LFE3:
  36              		.size	ADC_DelSig_1_IRQ_Interrupt, .-ADC_DelSig_1_IRQ_Interrupt
  37 0002 00BF     		.section	.text.ADC_DelSig_1_IRQ_Start,"ax",%progbits
  38              		.align	2
  39              		.global	ADC_DelSig_1_IRQ_Start
  40              		.thumb
  41              		.thumb_func
  42              		.type	ADC_DelSig_1_IRQ_Start, %function
  43              	ADC_DelSig_1_IRQ_Start:
  44              	.LFB0:
  62:Generated_Source\PSoC5/ADC_DelSig_1_IRQ.c ****     /* For all we know the interrupt is active. */
  45              		.loc 1 62 0
  46              		.cfi_startproc
  47              		@ args = 0, pretend = 0, frame = 0
  48              		@ frame_needed = 0, uses_anonymous_args = 0
  49              		@ link register save eliminated.
  62:Generated_Source\PSoC5/ADC_DelSig_1_IRQ.c ****     /* For all we know the interrupt is active. */
  50              		.loc 1 62 0
  51 0000 70B4     		push	{r4, r5, r6}
  52              		.cfi_def_cfa_offset 12
  53              		.cfi_offset 4, -12
  54              		.cfi_offset 5, -8
  55              		.cfi_offset 6, -4
  56              	.LBB22:
  57              	.LBB23:
 162:Generated_Source\PSoC5/ADC_DelSig_1_IRQ.c ****     #ifdef ADC_DelSig_1_IRQ_INTERRUPT_INTERRUPT_CALLBACK
 163:Generated_Source\PSoC5/ADC_DelSig_1_IRQ.c ****         ADC_DelSig_1_IRQ_Interrupt_InterruptCallback();
 164:Generated_Source\PSoC5/ADC_DelSig_1_IRQ.c ****     #endif /* ADC_DelSig_1_IRQ_INTERRUPT_INTERRUPT_CALLBACK */ 
 165:Generated_Source\PSoC5/ADC_DelSig_1_IRQ.c **** 
 166:Generated_Source\PSoC5/ADC_DelSig_1_IRQ.c ****     /*  Place your Interrupt code here. */
 167:Generated_Source\PSoC5/ADC_DelSig_1_IRQ.c ****     /* `#START ADC_DelSig_1_IRQ_Interrupt` */
 168:Generated_Source\PSoC5/ADC_DelSig_1_IRQ.c **** 
 169:Generated_Source\PSoC5/ADC_DelSig_1_IRQ.c ****     /* `#END` */
ARM GAS  C:\Users\larco\AppData\Local\Temp\ccWdx4ni.s 			page 5


 170:Generated_Source\PSoC5/ADC_DelSig_1_IRQ.c **** }
 171:Generated_Source\PSoC5/ADC_DelSig_1_IRQ.c **** 
 172:Generated_Source\PSoC5/ADC_DelSig_1_IRQ.c **** 
 173:Generated_Source\PSoC5/ADC_DelSig_1_IRQ.c **** /*******************************************************************************
 174:Generated_Source\PSoC5/ADC_DelSig_1_IRQ.c **** * Function Name: ADC_DelSig_1_IRQ_SetVector
 175:Generated_Source\PSoC5/ADC_DelSig_1_IRQ.c **** ********************************************************************************
 176:Generated_Source\PSoC5/ADC_DelSig_1_IRQ.c **** *
 177:Generated_Source\PSoC5/ADC_DelSig_1_IRQ.c **** * Summary:
 178:Generated_Source\PSoC5/ADC_DelSig_1_IRQ.c **** *   Change the ISR vector for the Interrupt. Note calling ADC_DelSig_1_IRQ_Start
 179:Generated_Source\PSoC5/ADC_DelSig_1_IRQ.c **** *   will override any effect this method would have had. To set the vector 
 180:Generated_Source\PSoC5/ADC_DelSig_1_IRQ.c **** *   before the component has been started use ADC_DelSig_1_IRQ_StartEx instead.
 181:Generated_Source\PSoC5/ADC_DelSig_1_IRQ.c **** * 
 182:Generated_Source\PSoC5/ADC_DelSig_1_IRQ.c **** *   When defining ISR functions, the CY_ISR and CY_ISR_PROTO macros should be 
 183:Generated_Source\PSoC5/ADC_DelSig_1_IRQ.c **** *   used to provide consistent definition across compilers:
 184:Generated_Source\PSoC5/ADC_DelSig_1_IRQ.c **** *
 185:Generated_Source\PSoC5/ADC_DelSig_1_IRQ.c **** *   Function definition example:
 186:Generated_Source\PSoC5/ADC_DelSig_1_IRQ.c **** *   CY_ISR(MyISR)
 187:Generated_Source\PSoC5/ADC_DelSig_1_IRQ.c **** *   {
 188:Generated_Source\PSoC5/ADC_DelSig_1_IRQ.c **** *   }
 189:Generated_Source\PSoC5/ADC_DelSig_1_IRQ.c **** *
 190:Generated_Source\PSoC5/ADC_DelSig_1_IRQ.c **** *   Function prototype example:
 191:Generated_Source\PSoC5/ADC_DelSig_1_IRQ.c **** *     CY_ISR_PROTO(MyISR);
 192:Generated_Source\PSoC5/ADC_DelSig_1_IRQ.c **** *
 193:Generated_Source\PSoC5/ADC_DelSig_1_IRQ.c **** * Parameters:
 194:Generated_Source\PSoC5/ADC_DelSig_1_IRQ.c **** *   address: Address of the ISR to set in the interrupt vector table.
 195:Generated_Source\PSoC5/ADC_DelSig_1_IRQ.c **** *
 196:Generated_Source\PSoC5/ADC_DelSig_1_IRQ.c **** * Return:
 197:Generated_Source\PSoC5/ADC_DelSig_1_IRQ.c **** *   None
 198:Generated_Source\PSoC5/ADC_DelSig_1_IRQ.c **** *
 199:Generated_Source\PSoC5/ADC_DelSig_1_IRQ.c **** *******************************************************************************/
 200:Generated_Source\PSoC5/ADC_DelSig_1_IRQ.c **** void ADC_DelSig_1_IRQ_SetVector(cyisraddress address)
 201:Generated_Source\PSoC5/ADC_DelSig_1_IRQ.c **** {
 202:Generated_Source\PSoC5/ADC_DelSig_1_IRQ.c ****     cyisraddress * ramVectorTable;
 203:Generated_Source\PSoC5/ADC_DelSig_1_IRQ.c **** 
 204:Generated_Source\PSoC5/ADC_DelSig_1_IRQ.c ****     ramVectorTable = (cyisraddress *) *CYINT_VECT_TABLE;
  58              		.loc 1 204 0
  59 0002 084B     		ldr	r3, .L4
  60              	.LBE23:
  61              	.LBE22:
  62              	.LBB26:
  63              	.LBB27:
 205:Generated_Source\PSoC5/ADC_DelSig_1_IRQ.c **** 
 206:Generated_Source\PSoC5/ADC_DelSig_1_IRQ.c ****     ramVectorTable[CYINT_IRQ_BASE + (uint32)ADC_DelSig_1_IRQ__INTC_NUMBER] = address;
 207:Generated_Source\PSoC5/ADC_DelSig_1_IRQ.c **** }
 208:Generated_Source\PSoC5/ADC_DelSig_1_IRQ.c **** 
 209:Generated_Source\PSoC5/ADC_DelSig_1_IRQ.c **** 
 210:Generated_Source\PSoC5/ADC_DelSig_1_IRQ.c **** /*******************************************************************************
 211:Generated_Source\PSoC5/ADC_DelSig_1_IRQ.c **** * Function Name: ADC_DelSig_1_IRQ_GetVector
 212:Generated_Source\PSoC5/ADC_DelSig_1_IRQ.c **** ********************************************************************************
 213:Generated_Source\PSoC5/ADC_DelSig_1_IRQ.c **** *
 214:Generated_Source\PSoC5/ADC_DelSig_1_IRQ.c **** * Summary:
 215:Generated_Source\PSoC5/ADC_DelSig_1_IRQ.c **** *   Gets the "address" of the current ISR vector for the Interrupt.
 216:Generated_Source\PSoC5/ADC_DelSig_1_IRQ.c **** *
 217:Generated_Source\PSoC5/ADC_DelSig_1_IRQ.c **** * Parameters:
 218:Generated_Source\PSoC5/ADC_DelSig_1_IRQ.c **** *   None
 219:Generated_Source\PSoC5/ADC_DelSig_1_IRQ.c **** *
 220:Generated_Source\PSoC5/ADC_DelSig_1_IRQ.c **** * Return:
ARM GAS  C:\Users\larco\AppData\Local\Temp\ccWdx4ni.s 			page 6


 221:Generated_Source\PSoC5/ADC_DelSig_1_IRQ.c **** *   Address of the ISR in the interrupt vector table.
 222:Generated_Source\PSoC5/ADC_DelSig_1_IRQ.c **** *
 223:Generated_Source\PSoC5/ADC_DelSig_1_IRQ.c **** *******************************************************************************/
 224:Generated_Source\PSoC5/ADC_DelSig_1_IRQ.c **** cyisraddress ADC_DelSig_1_IRQ_GetVector(void)
 225:Generated_Source\PSoC5/ADC_DelSig_1_IRQ.c **** {
 226:Generated_Source\PSoC5/ADC_DelSig_1_IRQ.c ****     cyisraddress * ramVectorTable;
 227:Generated_Source\PSoC5/ADC_DelSig_1_IRQ.c **** 
 228:Generated_Source\PSoC5/ADC_DelSig_1_IRQ.c ****     ramVectorTable = (cyisraddress *) *CYINT_VECT_TABLE;
 229:Generated_Source\PSoC5/ADC_DelSig_1_IRQ.c **** 
 230:Generated_Source\PSoC5/ADC_DelSig_1_IRQ.c ****     return ramVectorTable[CYINT_IRQ_BASE + (uint32)ADC_DelSig_1_IRQ__INTC_NUMBER];
 231:Generated_Source\PSoC5/ADC_DelSig_1_IRQ.c **** }
 232:Generated_Source\PSoC5/ADC_DelSig_1_IRQ.c **** 
 233:Generated_Source\PSoC5/ADC_DelSig_1_IRQ.c **** 
 234:Generated_Source\PSoC5/ADC_DelSig_1_IRQ.c **** /*******************************************************************************
 235:Generated_Source\PSoC5/ADC_DelSig_1_IRQ.c **** * Function Name: ADC_DelSig_1_IRQ_SetPriority
 236:Generated_Source\PSoC5/ADC_DelSig_1_IRQ.c **** ********************************************************************************
 237:Generated_Source\PSoC5/ADC_DelSig_1_IRQ.c **** *
 238:Generated_Source\PSoC5/ADC_DelSig_1_IRQ.c **** * Summary:
 239:Generated_Source\PSoC5/ADC_DelSig_1_IRQ.c **** *   Sets the Priority of the Interrupt. 
 240:Generated_Source\PSoC5/ADC_DelSig_1_IRQ.c **** *
 241:Generated_Source\PSoC5/ADC_DelSig_1_IRQ.c **** *   Note calling ADC_DelSig_1_IRQ_Start or ADC_DelSig_1_IRQ_StartEx will 
 242:Generated_Source\PSoC5/ADC_DelSig_1_IRQ.c **** *   override any effect this API would have had. This API should only be called
 243:Generated_Source\PSoC5/ADC_DelSig_1_IRQ.c **** *   after ADC_DelSig_1_IRQ_Start or ADC_DelSig_1_IRQ_StartEx has been called. 
 244:Generated_Source\PSoC5/ADC_DelSig_1_IRQ.c **** *   To set the initial priority for the component, use the Design-Wide Resources
 245:Generated_Source\PSoC5/ADC_DelSig_1_IRQ.c **** *   Interrupt Editor.
 246:Generated_Source\PSoC5/ADC_DelSig_1_IRQ.c **** *
 247:Generated_Source\PSoC5/ADC_DelSig_1_IRQ.c **** *   Note This API has no effect on Non-maskable interrupt NMI).
 248:Generated_Source\PSoC5/ADC_DelSig_1_IRQ.c **** *
 249:Generated_Source\PSoC5/ADC_DelSig_1_IRQ.c **** * Parameters:
 250:Generated_Source\PSoC5/ADC_DelSig_1_IRQ.c **** *   priority: Priority of the interrupt, 0 being the highest priority
 251:Generated_Source\PSoC5/ADC_DelSig_1_IRQ.c **** *             PSoC 3 and PSoC 5LP: Priority is from 0 to 7.
 252:Generated_Source\PSoC5/ADC_DelSig_1_IRQ.c **** *             PSoC 4: Priority is from 0 to 3.
 253:Generated_Source\PSoC5/ADC_DelSig_1_IRQ.c **** *
 254:Generated_Source\PSoC5/ADC_DelSig_1_IRQ.c **** * Return:
 255:Generated_Source\PSoC5/ADC_DelSig_1_IRQ.c **** *   None
 256:Generated_Source\PSoC5/ADC_DelSig_1_IRQ.c **** *
 257:Generated_Source\PSoC5/ADC_DelSig_1_IRQ.c **** *******************************************************************************/
 258:Generated_Source\PSoC5/ADC_DelSig_1_IRQ.c **** void ADC_DelSig_1_IRQ_SetPriority(uint8 priority)
 259:Generated_Source\PSoC5/ADC_DelSig_1_IRQ.c **** {
 260:Generated_Source\PSoC5/ADC_DelSig_1_IRQ.c ****     *ADC_DelSig_1_IRQ_INTC_PRIOR = priority << 5;
 261:Generated_Source\PSoC5/ADC_DelSig_1_IRQ.c **** }
 262:Generated_Source\PSoC5/ADC_DelSig_1_IRQ.c **** 
 263:Generated_Source\PSoC5/ADC_DelSig_1_IRQ.c **** 
 264:Generated_Source\PSoC5/ADC_DelSig_1_IRQ.c **** /*******************************************************************************
 265:Generated_Source\PSoC5/ADC_DelSig_1_IRQ.c **** * Function Name: ADC_DelSig_1_IRQ_GetPriority
 266:Generated_Source\PSoC5/ADC_DelSig_1_IRQ.c **** ********************************************************************************
 267:Generated_Source\PSoC5/ADC_DelSig_1_IRQ.c **** *
 268:Generated_Source\PSoC5/ADC_DelSig_1_IRQ.c **** * Summary:
 269:Generated_Source\PSoC5/ADC_DelSig_1_IRQ.c **** *   Gets the Priority of the Interrupt.
 270:Generated_Source\PSoC5/ADC_DelSig_1_IRQ.c **** *
 271:Generated_Source\PSoC5/ADC_DelSig_1_IRQ.c **** * Parameters:
 272:Generated_Source\PSoC5/ADC_DelSig_1_IRQ.c **** *   None
 273:Generated_Source\PSoC5/ADC_DelSig_1_IRQ.c **** *
 274:Generated_Source\PSoC5/ADC_DelSig_1_IRQ.c **** * Return:
 275:Generated_Source\PSoC5/ADC_DelSig_1_IRQ.c **** *   Priority of the interrupt, 0 being the highest priority
 276:Generated_Source\PSoC5/ADC_DelSig_1_IRQ.c **** *    PSoC 3 and PSoC 5LP: Priority is from 0 to 7.
 277:Generated_Source\PSoC5/ADC_DelSig_1_IRQ.c **** *    PSoC 4: Priority is from 0 to 3.
ARM GAS  C:\Users\larco\AppData\Local\Temp\ccWdx4ni.s 			page 7


 278:Generated_Source\PSoC5/ADC_DelSig_1_IRQ.c **** *
 279:Generated_Source\PSoC5/ADC_DelSig_1_IRQ.c **** *******************************************************************************/
 280:Generated_Source\PSoC5/ADC_DelSig_1_IRQ.c **** uint8 ADC_DelSig_1_IRQ_GetPriority(void)
 281:Generated_Source\PSoC5/ADC_DelSig_1_IRQ.c **** {
 282:Generated_Source\PSoC5/ADC_DelSig_1_IRQ.c ****     uint8 priority;
 283:Generated_Source\PSoC5/ADC_DelSig_1_IRQ.c **** 
 284:Generated_Source\PSoC5/ADC_DelSig_1_IRQ.c **** 
 285:Generated_Source\PSoC5/ADC_DelSig_1_IRQ.c ****     priority = *ADC_DelSig_1_IRQ_INTC_PRIOR >> 5;
 286:Generated_Source\PSoC5/ADC_DelSig_1_IRQ.c **** 
 287:Generated_Source\PSoC5/ADC_DelSig_1_IRQ.c ****     return priority;
 288:Generated_Source\PSoC5/ADC_DelSig_1_IRQ.c **** }
 289:Generated_Source\PSoC5/ADC_DelSig_1_IRQ.c **** 
 290:Generated_Source\PSoC5/ADC_DelSig_1_IRQ.c **** 
 291:Generated_Source\PSoC5/ADC_DelSig_1_IRQ.c **** /*******************************************************************************
 292:Generated_Source\PSoC5/ADC_DelSig_1_IRQ.c **** * Function Name: ADC_DelSig_1_IRQ_Enable
 293:Generated_Source\PSoC5/ADC_DelSig_1_IRQ.c **** ********************************************************************************
 294:Generated_Source\PSoC5/ADC_DelSig_1_IRQ.c **** *
 295:Generated_Source\PSoC5/ADC_DelSig_1_IRQ.c **** * Summary:
 296:Generated_Source\PSoC5/ADC_DelSig_1_IRQ.c **** *   Enables the interrupt to the interrupt controller. Do not call this function
 297:Generated_Source\PSoC5/ADC_DelSig_1_IRQ.c **** *   unless ISR_Start() has been called or the functionality of the ISR_Start() 
 298:Generated_Source\PSoC5/ADC_DelSig_1_IRQ.c **** *   function, which sets the vector and the priority, has been called.
 299:Generated_Source\PSoC5/ADC_DelSig_1_IRQ.c **** *
 300:Generated_Source\PSoC5/ADC_DelSig_1_IRQ.c **** * Parameters:
 301:Generated_Source\PSoC5/ADC_DelSig_1_IRQ.c **** *   None
 302:Generated_Source\PSoC5/ADC_DelSig_1_IRQ.c **** *
 303:Generated_Source\PSoC5/ADC_DelSig_1_IRQ.c **** * Return:
 304:Generated_Source\PSoC5/ADC_DelSig_1_IRQ.c **** *   None
 305:Generated_Source\PSoC5/ADC_DelSig_1_IRQ.c **** *
 306:Generated_Source\PSoC5/ADC_DelSig_1_IRQ.c **** *******************************************************************************/
 307:Generated_Source\PSoC5/ADC_DelSig_1_IRQ.c **** void ADC_DelSig_1_IRQ_Enable(void)
 308:Generated_Source\PSoC5/ADC_DelSig_1_IRQ.c **** {
 309:Generated_Source\PSoC5/ADC_DelSig_1_IRQ.c ****     /* Enable the general interrupt. */
 310:Generated_Source\PSoC5/ADC_DelSig_1_IRQ.c ****     *ADC_DelSig_1_IRQ_INTC_SET_EN = ADC_DelSig_1_IRQ__INTC_MASK;
 311:Generated_Source\PSoC5/ADC_DelSig_1_IRQ.c **** }
 312:Generated_Source\PSoC5/ADC_DelSig_1_IRQ.c **** 
 313:Generated_Source\PSoC5/ADC_DelSig_1_IRQ.c **** 
 314:Generated_Source\PSoC5/ADC_DelSig_1_IRQ.c **** /*******************************************************************************
 315:Generated_Source\PSoC5/ADC_DelSig_1_IRQ.c **** * Function Name: ADC_DelSig_1_IRQ_GetState
 316:Generated_Source\PSoC5/ADC_DelSig_1_IRQ.c **** ********************************************************************************
 317:Generated_Source\PSoC5/ADC_DelSig_1_IRQ.c **** *
 318:Generated_Source\PSoC5/ADC_DelSig_1_IRQ.c **** * Summary:
 319:Generated_Source\PSoC5/ADC_DelSig_1_IRQ.c **** *   Gets the state (enabled, disabled) of the Interrupt.
 320:Generated_Source\PSoC5/ADC_DelSig_1_IRQ.c **** *
 321:Generated_Source\PSoC5/ADC_DelSig_1_IRQ.c **** * Parameters:
 322:Generated_Source\PSoC5/ADC_DelSig_1_IRQ.c **** *   None
 323:Generated_Source\PSoC5/ADC_DelSig_1_IRQ.c **** *
 324:Generated_Source\PSoC5/ADC_DelSig_1_IRQ.c **** * Return:
 325:Generated_Source\PSoC5/ADC_DelSig_1_IRQ.c **** *   1 if enabled, 0 if disabled.
 326:Generated_Source\PSoC5/ADC_DelSig_1_IRQ.c **** *
 327:Generated_Source\PSoC5/ADC_DelSig_1_IRQ.c **** *******************************************************************************/
 328:Generated_Source\PSoC5/ADC_DelSig_1_IRQ.c **** uint8 ADC_DelSig_1_IRQ_GetState(void)
 329:Generated_Source\PSoC5/ADC_DelSig_1_IRQ.c **** {
 330:Generated_Source\PSoC5/ADC_DelSig_1_IRQ.c ****     /* Get the state of the general interrupt. */
 331:Generated_Source\PSoC5/ADC_DelSig_1_IRQ.c ****     return ((*ADC_DelSig_1_IRQ_INTC_SET_EN & (uint32)ADC_DelSig_1_IRQ__INTC_MASK) != 0u) ? 1u:0u;
 332:Generated_Source\PSoC5/ADC_DelSig_1_IRQ.c **** }
 333:Generated_Source\PSoC5/ADC_DelSig_1_IRQ.c **** 
 334:Generated_Source\PSoC5/ADC_DelSig_1_IRQ.c **** 
ARM GAS  C:\Users\larco\AppData\Local\Temp\ccWdx4ni.s 			page 8


 335:Generated_Source\PSoC5/ADC_DelSig_1_IRQ.c **** /*******************************************************************************
 336:Generated_Source\PSoC5/ADC_DelSig_1_IRQ.c **** * Function Name: ADC_DelSig_1_IRQ_Disable
 337:Generated_Source\PSoC5/ADC_DelSig_1_IRQ.c **** ********************************************************************************
 338:Generated_Source\PSoC5/ADC_DelSig_1_IRQ.c **** *
 339:Generated_Source\PSoC5/ADC_DelSig_1_IRQ.c **** * Summary:
 340:Generated_Source\PSoC5/ADC_DelSig_1_IRQ.c **** *   Disables the Interrupt in the interrupt controller.
 341:Generated_Source\PSoC5/ADC_DelSig_1_IRQ.c **** *
 342:Generated_Source\PSoC5/ADC_DelSig_1_IRQ.c **** * Parameters:
 343:Generated_Source\PSoC5/ADC_DelSig_1_IRQ.c **** *   None
 344:Generated_Source\PSoC5/ADC_DelSig_1_IRQ.c **** *
 345:Generated_Source\PSoC5/ADC_DelSig_1_IRQ.c **** * Return:
 346:Generated_Source\PSoC5/ADC_DelSig_1_IRQ.c **** *   None
 347:Generated_Source\PSoC5/ADC_DelSig_1_IRQ.c **** *
 348:Generated_Source\PSoC5/ADC_DelSig_1_IRQ.c **** *******************************************************************************/
 349:Generated_Source\PSoC5/ADC_DelSig_1_IRQ.c **** void ADC_DelSig_1_IRQ_Disable(void)
 350:Generated_Source\PSoC5/ADC_DelSig_1_IRQ.c **** {
 351:Generated_Source\PSoC5/ADC_DelSig_1_IRQ.c ****     /* Disable the general interrupt. */
 352:Generated_Source\PSoC5/ADC_DelSig_1_IRQ.c ****     *ADC_DelSig_1_IRQ_INTC_CLR_EN = ADC_DelSig_1_IRQ__INTC_MASK;
  64              		.loc 1 352 0
  65 0004 084E     		ldr	r6, .L4+4
  66              	.LBE27:
  67              	.LBE26:
  68              	.LBB30:
  69              	.LBB24:
 204:Generated_Source\PSoC5/ADC_DelSig_1_IRQ.c **** 
  70              		.loc 1 204 0
  71 0006 1C68     		ldr	r4, [r3]
 206:Generated_Source\PSoC5/ADC_DelSig_1_IRQ.c **** }
  72              		.loc 1 206 0
  73 0008 084D     		ldr	r5, .L4+8
  74              	.LBE24:
  75              	.LBE30:
  76              	.LBB31:
  77              	.LBB32:
 260:Generated_Source\PSoC5/ADC_DelSig_1_IRQ.c **** }
  78              		.loc 1 260 0
  79 000a 0949     		ldr	r1, .L4+12
  80              	.LBE32:
  81              	.LBE31:
  82              	.LBB35:
  83              	.LBB28:
  84              		.loc 1 352 0
  85 000c 4FF00053 		mov	r3, #536870912
  86              	.LBE28:
  87              	.LBE35:
  88              	.LBB36:
  89              	.LBB37:
 310:Generated_Source\PSoC5/ADC_DelSig_1_IRQ.c **** }
  90              		.loc 1 310 0
  91 0010 084A     		ldr	r2, .L4+16
  92              	.LBE37:
  93              	.LBE36:
  94              	.LBB39:
  95              	.LBB33:
 260:Generated_Source\PSoC5/ADC_DelSig_1_IRQ.c **** }
  96              		.loc 1 260 0
  97 0012 E020     		movs	r0, #224
ARM GAS  C:\Users\larco\AppData\Local\Temp\ccWdx4ni.s 			page 9


  98              	.LBE33:
  99              	.LBE39:
 100              	.LBB40:
 101              	.LBB29:
 102              		.loc 1 352 0
 103 0014 3360     		str	r3, [r6]
 104              	.LVL0:
 105              	.LBE29:
 106              	.LBE40:
 107              	.LBB41:
 108              	.LBB25:
 206:Generated_Source\PSoC5/ADC_DelSig_1_IRQ.c **** }
 109              		.loc 1 206 0
 110 0016 C4F8B450 		str	r5, [r4, #180]
 111              	.LVL1:
 112              	.LBE25:
 113              	.LBE41:
 114              	.LBB42:
 115              	.LBB34:
 260:Generated_Source\PSoC5/ADC_DelSig_1_IRQ.c **** }
 116              		.loc 1 260 0
 117 001a 0870     		strb	r0, [r1]
 118              	.LVL2:
 119              	.LBE34:
 120              	.LBE42:
  74:Generated_Source\PSoC5/ADC_DelSig_1_IRQ.c **** 
 121              		.loc 1 74 0
 122 001c 70BC     		pop	{r4, r5, r6}
 123              		.cfi_restore 6
 124              		.cfi_restore 5
 125              		.cfi_restore 4
 126              		.cfi_def_cfa_offset 0
 127              	.LBB43:
 128              	.LBB38:
 310:Generated_Source\PSoC5/ADC_DelSig_1_IRQ.c **** }
 129              		.loc 1 310 0
 130 001e 1360     		str	r3, [r2]
 131              	.LBE38:
 132              	.LBE43:
  74:Generated_Source\PSoC5/ADC_DelSig_1_IRQ.c **** 
 133              		.loc 1 74 0
 134 0020 7047     		bx	lr
 135              	.L5:
 136 0022 00BF     		.align	2
 137              	.L4:
 138 0024 08ED00E0 		.word	-536810232
 139 0028 80E100E0 		.word	-536813184
 140 002c 00000000 		.word	ADC_DelSig_1_IRQ_Interrupt
 141 0030 1DE400E0 		.word	-536812515
 142 0034 00E100E0 		.word	-536813312
 143              		.cfi_endproc
 144              	.LFE0:
 145              		.size	ADC_DelSig_1_IRQ_Start, .-ADC_DelSig_1_IRQ_Start
 146              		.section	.text.ADC_DelSig_1_IRQ_StartEx,"ax",%progbits
 147              		.align	2
 148              		.global	ADC_DelSig_1_IRQ_StartEx
 149              		.thumb
ARM GAS  C:\Users\larco\AppData\Local\Temp\ccWdx4ni.s 			page 10


 150              		.thumb_func
 151              		.type	ADC_DelSig_1_IRQ_StartEx, %function
 152              	ADC_DelSig_1_IRQ_StartEx:
 153              	.LFB1:
 105:Generated_Source\PSoC5/ADC_DelSig_1_IRQ.c ****     /* For all we know the interrupt is active. */
 154              		.loc 1 105 0
 155              		.cfi_startproc
 156              		@ args = 0, pretend = 0, frame = 0
 157              		@ frame_needed = 0, uses_anonymous_args = 0
 158              		@ link register save eliminated.
 159              	.LVL3:
 160 0000 70B4     		push	{r4, r5, r6}
 161              		.cfi_def_cfa_offset 12
 162              		.cfi_offset 4, -12
 163              		.cfi_offset 5, -8
 164              		.cfi_offset 6, -4
 165              	.LBB44:
 166              	.LBB45:
 204:Generated_Source\PSoC5/ADC_DelSig_1_IRQ.c **** 
 167              		.loc 1 204 0
 168 0002 074B     		ldr	r3, .L8
 169              	.LBE45:
 170              	.LBE44:
 171              	.LBB48:
 172              	.LBB49:
 173              		.loc 1 352 0
 174 0004 074E     		ldr	r6, .L8+4
 175              	.LBE49:
 176              	.LBE48:
 177              	.LBB52:
 178              	.LBB46:
 204:Generated_Source\PSoC5/ADC_DelSig_1_IRQ.c **** 
 179              		.loc 1 204 0
 180 0006 1D68     		ldr	r5, [r3]
 181              	.LBE46:
 182              	.LBE52:
 183              	.LBB53:
 184              	.LBB54:
 260:Generated_Source\PSoC5/ADC_DelSig_1_IRQ.c **** }
 185              		.loc 1 260 0
 186 0008 0749     		ldr	r1, .L8+8
 187              	.LBE54:
 188              	.LBE53:
 189              	.LBB57:
 190              	.LBB50:
 191              		.loc 1 352 0
 192 000a 4FF00053 		mov	r3, #536870912
 193              	.LBE50:
 194              	.LBE57:
 195              	.LBB58:
 196              	.LBB55:
 260:Generated_Source\PSoC5/ADC_DelSig_1_IRQ.c **** }
 197              		.loc 1 260 0
 198 000e E024     		movs	r4, #224
 199              	.LBE55:
 200              	.LBE58:
 201              	.LBB59:
ARM GAS  C:\Users\larco\AppData\Local\Temp\ccWdx4ni.s 			page 11


 202              	.LBB60:
 310:Generated_Source\PSoC5/ADC_DelSig_1_IRQ.c **** }
 203              		.loc 1 310 0
 204 0010 064A     		ldr	r2, .L8+12
 205              	.LBE60:
 206              	.LBE59:
 207              	.LBB62:
 208              	.LBB51:
 209              		.loc 1 352 0
 210 0012 3360     		str	r3, [r6]
 211              	.LVL4:
 212              	.LBE51:
 213              	.LBE62:
 214              	.LBB63:
 215              	.LBB47:
 206:Generated_Source\PSoC5/ADC_DelSig_1_IRQ.c **** }
 216              		.loc 1 206 0
 217 0014 C5F8B400 		str	r0, [r5, #180]
 218              	.LVL5:
 219              	.LBE47:
 220              	.LBE63:
 221              	.LBB64:
 222              	.LBB56:
 260:Generated_Source\PSoC5/ADC_DelSig_1_IRQ.c **** }
 223              		.loc 1 260 0
 224 0018 0C70     		strb	r4, [r1]
 225              	.LVL6:
 226              	.LBE56:
 227              	.LBE64:
 117:Generated_Source\PSoC5/ADC_DelSig_1_IRQ.c **** 
 228              		.loc 1 117 0
 229 001a 70BC     		pop	{r4, r5, r6}
 230              		.cfi_restore 6
 231              		.cfi_restore 5
 232              		.cfi_restore 4
 233              		.cfi_def_cfa_offset 0
 234              	.LBB65:
 235              	.LBB61:
 310:Generated_Source\PSoC5/ADC_DelSig_1_IRQ.c **** }
 236              		.loc 1 310 0
 237 001c 1360     		str	r3, [r2]
 238              	.LBE61:
 239              	.LBE65:
 117:Generated_Source\PSoC5/ADC_DelSig_1_IRQ.c **** 
 240              		.loc 1 117 0
 241 001e 7047     		bx	lr
 242              	.L9:
 243              		.align	2
 244              	.L8:
 245 0020 08ED00E0 		.word	-536810232
 246 0024 80E100E0 		.word	-536813184
 247 0028 1DE400E0 		.word	-536812515
 248 002c 00E100E0 		.word	-536813312
 249              		.cfi_endproc
 250              	.LFE1:
 251              		.size	ADC_DelSig_1_IRQ_StartEx, .-ADC_DelSig_1_IRQ_StartEx
 252              		.section	.text.ADC_DelSig_1_IRQ_Stop,"ax",%progbits
ARM GAS  C:\Users\larco\AppData\Local\Temp\ccWdx4ni.s 			page 12


 253              		.align	2
 254              		.global	ADC_DelSig_1_IRQ_Stop
 255              		.thumb
 256              		.thumb_func
 257              		.type	ADC_DelSig_1_IRQ_Stop, %function
 258              	ADC_DelSig_1_IRQ_Stop:
 259              	.LFB2:
 135:Generated_Source\PSoC5/ADC_DelSig_1_IRQ.c ****     /* Disable this interrupt. */
 260              		.loc 1 135 0
 261              		.cfi_startproc
 262              		@ args = 0, pretend = 0, frame = 0
 263              		@ frame_needed = 0, uses_anonymous_args = 0
 264              		@ link register save eliminated.
 265              	.LBB66:
 266              	.LBB67:
 204:Generated_Source\PSoC5/ADC_DelSig_1_IRQ.c **** 
 267              		.loc 1 204 0
 268 0000 044B     		ldr	r3, .L11
 269              	.LBE67:
 270              	.LBE66:
 271              	.LBB70:
 272              	.LBB71:
 273              		.loc 1 352 0
 274 0002 0549     		ldr	r1, .L11+4
 275              	.LBE71:
 276              	.LBE70:
 277              	.LBB73:
 278              	.LBB68:
 204:Generated_Source\PSoC5/ADC_DelSig_1_IRQ.c **** 
 279              		.loc 1 204 0
 280 0004 1B68     		ldr	r3, [r3]
 206:Generated_Source\PSoC5/ADC_DelSig_1_IRQ.c **** }
 281              		.loc 1 206 0
 282 0006 054A     		ldr	r2, .L11+8
 283              	.LBE68:
 284              	.LBE73:
 285              	.LBB74:
 286              	.LBB72:
 287              		.loc 1 352 0
 288 0008 4FF00050 		mov	r0, #536870912
 289 000c 0860     		str	r0, [r1]
 290              	.LVL7:
 291              	.LBE72:
 292              	.LBE74:
 293              	.LBB75:
 294              	.LBB69:
 206:Generated_Source\PSoC5/ADC_DelSig_1_IRQ.c **** }
 295              		.loc 1 206 0
 296 000e C3F8B420 		str	r2, [r3, #180]
 297              	.LVL8:
 298 0012 7047     		bx	lr
 299              	.L12:
 300              		.align	2
 301              	.L11:
 302 0014 08ED00E0 		.word	-536810232
 303 0018 80E100E0 		.word	-536813184
 304 001c 00000000 		.word	IntDefaultHandler
ARM GAS  C:\Users\larco\AppData\Local\Temp\ccWdx4ni.s 			page 13


 305              	.LBE69:
 306              	.LBE75:
 307              		.cfi_endproc
 308              	.LFE2:
 309              		.size	ADC_DelSig_1_IRQ_Stop, .-ADC_DelSig_1_IRQ_Stop
 310              		.section	.text.ADC_DelSig_1_IRQ_SetVector,"ax",%progbits
 311              		.align	2
 312              		.global	ADC_DelSig_1_IRQ_SetVector
 313              		.thumb
 314              		.thumb_func
 315              		.type	ADC_DelSig_1_IRQ_SetVector, %function
 316              	ADC_DelSig_1_IRQ_SetVector:
 317              	.LFB4:
 201:Generated_Source\PSoC5/ADC_DelSig_1_IRQ.c ****     cyisraddress * ramVectorTable;
 318              		.loc 1 201 0
 319              		.cfi_startproc
 320              		@ args = 0, pretend = 0, frame = 0
 321              		@ frame_needed = 0, uses_anonymous_args = 0
 322              		@ link register save eliminated.
 323              	.LVL9:
 204:Generated_Source\PSoC5/ADC_DelSig_1_IRQ.c **** 
 324              		.loc 1 204 0
 325 0000 024B     		ldr	r3, .L14
 326 0002 1B68     		ldr	r3, [r3]
 327              	.LVL10:
 206:Generated_Source\PSoC5/ADC_DelSig_1_IRQ.c **** }
 328              		.loc 1 206 0
 329 0004 C3F8B400 		str	r0, [r3, #180]
 330 0008 7047     		bx	lr
 331              	.L15:
 332 000a 00BF     		.align	2
 333              	.L14:
 334 000c 08ED00E0 		.word	-536810232
 335              		.cfi_endproc
 336              	.LFE4:
 337              		.size	ADC_DelSig_1_IRQ_SetVector, .-ADC_DelSig_1_IRQ_SetVector
 338              		.section	.text.ADC_DelSig_1_IRQ_GetVector,"ax",%progbits
 339              		.align	2
 340              		.global	ADC_DelSig_1_IRQ_GetVector
 341              		.thumb
 342              		.thumb_func
 343              		.type	ADC_DelSig_1_IRQ_GetVector, %function
 344              	ADC_DelSig_1_IRQ_GetVector:
 345              	.LFB5:
 225:Generated_Source\PSoC5/ADC_DelSig_1_IRQ.c ****     cyisraddress * ramVectorTable;
 346              		.loc 1 225 0
 347              		.cfi_startproc
 348              		@ args = 0, pretend = 0, frame = 0
 349              		@ frame_needed = 0, uses_anonymous_args = 0
 350              		@ link register save eliminated.
 351              	.LVL11:
 228:Generated_Source\PSoC5/ADC_DelSig_1_IRQ.c **** 
 352              		.loc 1 228 0
 353 0000 024B     		ldr	r3, .L17
 354              	.LVL12:
 230:Generated_Source\PSoC5/ADC_DelSig_1_IRQ.c **** }
 355              		.loc 1 230 0
ARM GAS  C:\Users\larco\AppData\Local\Temp\ccWdx4ni.s 			page 14


 356 0002 1B68     		ldr	r3, [r3]
 357              	.LVL13:
 231:Generated_Source\PSoC5/ADC_DelSig_1_IRQ.c **** 
 358              		.loc 1 231 0
 359 0004 D3F8B400 		ldr	r0, [r3, #180]
 360 0008 7047     		bx	lr
 361              	.L18:
 362 000a 00BF     		.align	2
 363              	.L17:
 364 000c 08ED00E0 		.word	-536810232
 365              		.cfi_endproc
 366              	.LFE5:
 367              		.size	ADC_DelSig_1_IRQ_GetVector, .-ADC_DelSig_1_IRQ_GetVector
 368              		.section	.text.ADC_DelSig_1_IRQ_SetPriority,"ax",%progbits
 369              		.align	2
 370              		.global	ADC_DelSig_1_IRQ_SetPriority
 371              		.thumb
 372              		.thumb_func
 373              		.type	ADC_DelSig_1_IRQ_SetPriority, %function
 374              	ADC_DelSig_1_IRQ_SetPriority:
 375              	.LFB6:
 259:Generated_Source\PSoC5/ADC_DelSig_1_IRQ.c ****     *ADC_DelSig_1_IRQ_INTC_PRIOR = priority << 5;
 376              		.loc 1 259 0
 377              		.cfi_startproc
 378              		@ args = 0, pretend = 0, frame = 0
 379              		@ frame_needed = 0, uses_anonymous_args = 0
 380              		@ link register save eliminated.
 381              	.LVL14:
 260:Generated_Source\PSoC5/ADC_DelSig_1_IRQ.c **** }
 382              		.loc 1 260 0
 383 0000 4001     		lsls	r0, r0, #5
 384              	.LVL15:
 385 0002 024B     		ldr	r3, .L20
 386 0004 C0B2     		uxtb	r0, r0
 387 0006 1870     		strb	r0, [r3]
 388 0008 7047     		bx	lr
 389              	.L21:
 390 000a 00BF     		.align	2
 391              	.L20:
 392 000c 1DE400E0 		.word	-536812515
 393              		.cfi_endproc
 394              	.LFE6:
 395              		.size	ADC_DelSig_1_IRQ_SetPriority, .-ADC_DelSig_1_IRQ_SetPriority
 396              		.section	.text.ADC_DelSig_1_IRQ_GetPriority,"ax",%progbits
 397              		.align	2
 398              		.global	ADC_DelSig_1_IRQ_GetPriority
 399              		.thumb
 400              		.thumb_func
 401              		.type	ADC_DelSig_1_IRQ_GetPriority, %function
 402              	ADC_DelSig_1_IRQ_GetPriority:
 403              	.LFB7:
 281:Generated_Source\PSoC5/ADC_DelSig_1_IRQ.c ****     uint8 priority;
 404              		.loc 1 281 0
 405              		.cfi_startproc
 406              		@ args = 0, pretend = 0, frame = 0
 407              		@ frame_needed = 0, uses_anonymous_args = 0
 408              		@ link register save eliminated.
ARM GAS  C:\Users\larco\AppData\Local\Temp\ccWdx4ni.s 			page 15


 285:Generated_Source\PSoC5/ADC_DelSig_1_IRQ.c **** 
 409              		.loc 1 285 0
 410 0000 014B     		ldr	r3, .L23
 411 0002 1878     		ldrb	r0, [r3]	@ zero_extendqisi2
 412              	.LVL16:
 288:Generated_Source\PSoC5/ADC_DelSig_1_IRQ.c **** 
 413              		.loc 1 288 0
 414 0004 4009     		lsrs	r0, r0, #5
 415              	.LVL17:
 416 0006 7047     		bx	lr
 417              	.L24:
 418              		.align	2
 419              	.L23:
 420 0008 1DE400E0 		.word	-536812515
 421              		.cfi_endproc
 422              	.LFE7:
 423              		.size	ADC_DelSig_1_IRQ_GetPriority, .-ADC_DelSig_1_IRQ_GetPriority
 424              		.section	.text.ADC_DelSig_1_IRQ_Enable,"ax",%progbits
 425              		.align	2
 426              		.global	ADC_DelSig_1_IRQ_Enable
 427              		.thumb
 428              		.thumb_func
 429              		.type	ADC_DelSig_1_IRQ_Enable, %function
 430              	ADC_DelSig_1_IRQ_Enable:
 431              	.LFB8:
 308:Generated_Source\PSoC5/ADC_DelSig_1_IRQ.c ****     /* Enable the general interrupt. */
 432              		.loc 1 308 0
 433              		.cfi_startproc
 434              		@ args = 0, pretend = 0, frame = 0
 435              		@ frame_needed = 0, uses_anonymous_args = 0
 436              		@ link register save eliminated.
 310:Generated_Source\PSoC5/ADC_DelSig_1_IRQ.c **** }
 437              		.loc 1 310 0
 438 0000 024B     		ldr	r3, .L26
 439 0002 4FF00052 		mov	r2, #536870912
 440 0006 1A60     		str	r2, [r3]
 441 0008 7047     		bx	lr
 442              	.L27:
 443 000a 00BF     		.align	2
 444              	.L26:
 445 000c 00E100E0 		.word	-536813312
 446              		.cfi_endproc
 447              	.LFE8:
 448              		.size	ADC_DelSig_1_IRQ_Enable, .-ADC_DelSig_1_IRQ_Enable
 449              		.section	.text.ADC_DelSig_1_IRQ_GetState,"ax",%progbits
 450              		.align	2
 451              		.global	ADC_DelSig_1_IRQ_GetState
 452              		.thumb
 453              		.thumb_func
 454              		.type	ADC_DelSig_1_IRQ_GetState, %function
 455              	ADC_DelSig_1_IRQ_GetState:
 456              	.LFB9:
 329:Generated_Source\PSoC5/ADC_DelSig_1_IRQ.c ****     /* Get the state of the general interrupt. */
 457              		.loc 1 329 0
 458              		.cfi_startproc
 459              		@ args = 0, pretend = 0, frame = 0
 460              		@ frame_needed = 0, uses_anonymous_args = 0
ARM GAS  C:\Users\larco\AppData\Local\Temp\ccWdx4ni.s 			page 16


 461              		@ link register save eliminated.
 331:Generated_Source\PSoC5/ADC_DelSig_1_IRQ.c **** }
 462              		.loc 1 331 0
 463 0000 024B     		ldr	r3, .L29
 464 0002 1868     		ldr	r0, [r3]
 332:Generated_Source\PSoC5/ADC_DelSig_1_IRQ.c **** 
 465              		.loc 1 332 0
 466 0004 C0F34070 		ubfx	r0, r0, #29, #1
 467 0008 7047     		bx	lr
 468              	.L30:
 469 000a 00BF     		.align	2
 470              	.L29:
 471 000c 00E100E0 		.word	-536813312
 472              		.cfi_endproc
 473              	.LFE9:
 474              		.size	ADC_DelSig_1_IRQ_GetState, .-ADC_DelSig_1_IRQ_GetState
 475              		.section	.text.ADC_DelSig_1_IRQ_Disable,"ax",%progbits
 476              		.align	2
 477              		.global	ADC_DelSig_1_IRQ_Disable
 478              		.thumb
 479              		.thumb_func
 480              		.type	ADC_DelSig_1_IRQ_Disable, %function
 481              	ADC_DelSig_1_IRQ_Disable:
 482              	.LFB10:
 350:Generated_Source\PSoC5/ADC_DelSig_1_IRQ.c ****     /* Disable the general interrupt. */
 483              		.loc 1 350 0
 484              		.cfi_startproc
 485              		@ args = 0, pretend = 0, frame = 0
 486              		@ frame_needed = 0, uses_anonymous_args = 0
 487              		@ link register save eliminated.
 488              		.loc 1 352 0
 489 0000 024B     		ldr	r3, .L32
 490 0002 4FF00052 		mov	r2, #536870912
 491 0006 1A60     		str	r2, [r3]
 492 0008 7047     		bx	lr
 493              	.L33:
 494 000a 00BF     		.align	2
 495              	.L32:
 496 000c 80E100E0 		.word	-536813184
 497              		.cfi_endproc
 498              	.LFE10:
 499              		.size	ADC_DelSig_1_IRQ_Disable, .-ADC_DelSig_1_IRQ_Disable
 500              		.section	.text.ADC_DelSig_1_IRQ_SetPending,"ax",%progbits
 501              		.align	2
 502              		.global	ADC_DelSig_1_IRQ_SetPending
 503              		.thumb
 504              		.thumb_func
 505              		.type	ADC_DelSig_1_IRQ_SetPending, %function
 506              	ADC_DelSig_1_IRQ_SetPending:
 507              	.LFB11:
 353:Generated_Source\PSoC5/ADC_DelSig_1_IRQ.c **** }
 354:Generated_Source\PSoC5/ADC_DelSig_1_IRQ.c **** 
 355:Generated_Source\PSoC5/ADC_DelSig_1_IRQ.c **** 
 356:Generated_Source\PSoC5/ADC_DelSig_1_IRQ.c **** /*******************************************************************************
 357:Generated_Source\PSoC5/ADC_DelSig_1_IRQ.c **** * Function Name: ADC_DelSig_1_IRQ_SetPending
 358:Generated_Source\PSoC5/ADC_DelSig_1_IRQ.c **** ********************************************************************************
 359:Generated_Source\PSoC5/ADC_DelSig_1_IRQ.c **** *
ARM GAS  C:\Users\larco\AppData\Local\Temp\ccWdx4ni.s 			page 17


 360:Generated_Source\PSoC5/ADC_DelSig_1_IRQ.c **** * Summary:
 361:Generated_Source\PSoC5/ADC_DelSig_1_IRQ.c **** *   Causes the Interrupt to enter the pending state, a software method of
 362:Generated_Source\PSoC5/ADC_DelSig_1_IRQ.c **** *   generating the interrupt.
 363:Generated_Source\PSoC5/ADC_DelSig_1_IRQ.c **** *
 364:Generated_Source\PSoC5/ADC_DelSig_1_IRQ.c **** * Parameters:
 365:Generated_Source\PSoC5/ADC_DelSig_1_IRQ.c **** *   None
 366:Generated_Source\PSoC5/ADC_DelSig_1_IRQ.c **** *
 367:Generated_Source\PSoC5/ADC_DelSig_1_IRQ.c **** * Return:
 368:Generated_Source\PSoC5/ADC_DelSig_1_IRQ.c **** *   None
 369:Generated_Source\PSoC5/ADC_DelSig_1_IRQ.c **** *
 370:Generated_Source\PSoC5/ADC_DelSig_1_IRQ.c **** * Side Effects:
 371:Generated_Source\PSoC5/ADC_DelSig_1_IRQ.c **** *   If interrupts are enabled and the interrupt is set up properly, the ISR is
 372:Generated_Source\PSoC5/ADC_DelSig_1_IRQ.c **** *   entered (depending on the priority of this interrupt and other pending 
 373:Generated_Source\PSoC5/ADC_DelSig_1_IRQ.c **** *   interrupts).
 374:Generated_Source\PSoC5/ADC_DelSig_1_IRQ.c **** *
 375:Generated_Source\PSoC5/ADC_DelSig_1_IRQ.c **** *******************************************************************************/
 376:Generated_Source\PSoC5/ADC_DelSig_1_IRQ.c **** void ADC_DelSig_1_IRQ_SetPending(void)
 377:Generated_Source\PSoC5/ADC_DelSig_1_IRQ.c **** {
 508              		.loc 1 377 0
 509              		.cfi_startproc
 510              		@ args = 0, pretend = 0, frame = 0
 511              		@ frame_needed = 0, uses_anonymous_args = 0
 512              		@ link register save eliminated.
 378:Generated_Source\PSoC5/ADC_DelSig_1_IRQ.c ****     *ADC_DelSig_1_IRQ_INTC_SET_PD = ADC_DelSig_1_IRQ__INTC_MASK;
 513              		.loc 1 378 0
 514 0000 024B     		ldr	r3, .L35
 515 0002 4FF00052 		mov	r2, #536870912
 516 0006 1A60     		str	r2, [r3]
 517 0008 7047     		bx	lr
 518              	.L36:
 519 000a 00BF     		.align	2
 520              	.L35:
 521 000c 00E200E0 		.word	-536813056
 522              		.cfi_endproc
 523              	.LFE11:
 524              		.size	ADC_DelSig_1_IRQ_SetPending, .-ADC_DelSig_1_IRQ_SetPending
 525              		.section	.text.ADC_DelSig_1_IRQ_ClearPending,"ax",%progbits
 526              		.align	2
 527              		.global	ADC_DelSig_1_IRQ_ClearPending
 528              		.thumb
 529              		.thumb_func
 530              		.type	ADC_DelSig_1_IRQ_ClearPending, %function
 531              	ADC_DelSig_1_IRQ_ClearPending:
 532              	.LFB12:
 379:Generated_Source\PSoC5/ADC_DelSig_1_IRQ.c **** }
 380:Generated_Source\PSoC5/ADC_DelSig_1_IRQ.c **** 
 381:Generated_Source\PSoC5/ADC_DelSig_1_IRQ.c **** 
 382:Generated_Source\PSoC5/ADC_DelSig_1_IRQ.c **** /*******************************************************************************
 383:Generated_Source\PSoC5/ADC_DelSig_1_IRQ.c **** * Function Name: ADC_DelSig_1_IRQ_ClearPending
 384:Generated_Source\PSoC5/ADC_DelSig_1_IRQ.c **** ********************************************************************************
 385:Generated_Source\PSoC5/ADC_DelSig_1_IRQ.c **** *
 386:Generated_Source\PSoC5/ADC_DelSig_1_IRQ.c **** * Summary:
 387:Generated_Source\PSoC5/ADC_DelSig_1_IRQ.c **** *   Clears a pending interrupt in the interrupt controller.
 388:Generated_Source\PSoC5/ADC_DelSig_1_IRQ.c **** *
 389:Generated_Source\PSoC5/ADC_DelSig_1_IRQ.c **** *   Note Some interrupt sources are clear-on-read and require the block 
 390:Generated_Source\PSoC5/ADC_DelSig_1_IRQ.c **** *   interrupt/status register to be read/cleared with the appropriate block API 
 391:Generated_Source\PSoC5/ADC_DelSig_1_IRQ.c **** *   (GPIO, UART, and so on). Otherwise the ISR will continue to remain in 
ARM GAS  C:\Users\larco\AppData\Local\Temp\ccWdx4ni.s 			page 18


 392:Generated_Source\PSoC5/ADC_DelSig_1_IRQ.c **** *   pending state even though the interrupt itself is cleared using this API.
 393:Generated_Source\PSoC5/ADC_DelSig_1_IRQ.c **** *
 394:Generated_Source\PSoC5/ADC_DelSig_1_IRQ.c **** * Parameters:
 395:Generated_Source\PSoC5/ADC_DelSig_1_IRQ.c **** *   None
 396:Generated_Source\PSoC5/ADC_DelSig_1_IRQ.c **** *
 397:Generated_Source\PSoC5/ADC_DelSig_1_IRQ.c **** * Return:
 398:Generated_Source\PSoC5/ADC_DelSig_1_IRQ.c **** *   None
 399:Generated_Source\PSoC5/ADC_DelSig_1_IRQ.c **** *
 400:Generated_Source\PSoC5/ADC_DelSig_1_IRQ.c **** *******************************************************************************/
 401:Generated_Source\PSoC5/ADC_DelSig_1_IRQ.c **** void ADC_DelSig_1_IRQ_ClearPending(void)
 402:Generated_Source\PSoC5/ADC_DelSig_1_IRQ.c **** {
 533              		.loc 1 402 0
 534              		.cfi_startproc
 535              		@ args = 0, pretend = 0, frame = 0
 536              		@ frame_needed = 0, uses_anonymous_args = 0
 537              		@ link register save eliminated.
 403:Generated_Source\PSoC5/ADC_DelSig_1_IRQ.c ****     *ADC_DelSig_1_IRQ_INTC_CLR_PD = ADC_DelSig_1_IRQ__INTC_MASK;
 538              		.loc 1 403 0
 539 0000 024B     		ldr	r3, .L38
 540 0002 4FF00052 		mov	r2, #536870912
 541 0006 1A60     		str	r2, [r3]
 542 0008 7047     		bx	lr
 543              	.L39:
 544 000a 00BF     		.align	2
 545              	.L38:
 546 000c 80E200E0 		.word	-536812928
 547              		.cfi_endproc
 548              	.LFE12:
 549              		.size	ADC_DelSig_1_IRQ_ClearPending, .-ADC_DelSig_1_IRQ_ClearPending
 550              		.text
 551              	.Letext0:
 552              		.file 2 "Generated_Source\\PSoC5/cytypes.h"