ARM GAS  C:\Users\larco\AppData\Local\Temp\cchvRlP1.s 			page 1


   1              		.syntax unified
   2              		.cpu cortex-m3
   3              		.fpu softvfp
   4              		.eabi_attribute 20, 1
   5              		.eabi_attribute 21, 1
   6              		.eabi_attribute 23, 3
   7              		.eabi_attribute 24, 1
   8              		.eabi_attribute 25, 1
   9              		.eabi_attribute 26, 1
  10              		.eabi_attribute 30, 2
  11              		.eabi_attribute 34, 1
  12              		.eabi_attribute 18, 4
  13              		.thumb
  14              		.syntax unified
  15              		.file	"ADC_DelSig_1_PM.c"
  16              		.text
  17              	.Ltext0:
  18              		.cfi_sections	.debug_frame
  19              		.section	.text.ADC_DelSig_1_SaveConfig,"ax",%progbits
  20              		.align	2
  21              		.global	ADC_DelSig_1_SaveConfig
  22              		.thumb
  23              		.thumb_func
  24              		.type	ADC_DelSig_1_SaveConfig, %function
  25              	ADC_DelSig_1_SaveConfig:
  26              	.LFB0:
  27              		.file 1 "Generated_Source\\PSoC5\\ADC_DelSig_1_PM.c"
   1:Generated_Source\PSoC5/ADC_DelSig_1_PM.c **** /*******************************************************************************
   2:Generated_Source\PSoC5/ADC_DelSig_1_PM.c **** * File Name: ADC_DelSig_1_PM.c
   3:Generated_Source\PSoC5/ADC_DelSig_1_PM.c **** * Version 3.30
   4:Generated_Source\PSoC5/ADC_DelSig_1_PM.c **** *
   5:Generated_Source\PSoC5/ADC_DelSig_1_PM.c **** * Description:
   6:Generated_Source\PSoC5/ADC_DelSig_1_PM.c **** *  This file provides the power manager source code to the API for the
   7:Generated_Source\PSoC5/ADC_DelSig_1_PM.c **** *  Delta-Sigma ADC Component.
   8:Generated_Source\PSoC5/ADC_DelSig_1_PM.c **** *
   9:Generated_Source\PSoC5/ADC_DelSig_1_PM.c **** * Note:
  10:Generated_Source\PSoC5/ADC_DelSig_1_PM.c **** *
  11:Generated_Source\PSoC5/ADC_DelSig_1_PM.c **** ********************************************************************************
  12:Generated_Source\PSoC5/ADC_DelSig_1_PM.c **** * Copyright 2008-2017, Cypress Semiconductor Corporation.  All rights reserved.
  13:Generated_Source\PSoC5/ADC_DelSig_1_PM.c **** * You may use this file only in accordance with the license, terms, conditions,
  14:Generated_Source\PSoC5/ADC_DelSig_1_PM.c **** * disclaimers, and limitations in the end user license agreement accompanying
  15:Generated_Source\PSoC5/ADC_DelSig_1_PM.c **** * the software package with which this file was provided.
  16:Generated_Source\PSoC5/ADC_DelSig_1_PM.c **** *******************************************************************************/
  17:Generated_Source\PSoC5/ADC_DelSig_1_PM.c **** 
  18:Generated_Source\PSoC5/ADC_DelSig_1_PM.c **** #include "ADC_DelSig_1.h"
  19:Generated_Source\PSoC5/ADC_DelSig_1_PM.c **** 
  20:Generated_Source\PSoC5/ADC_DelSig_1_PM.c **** static ADC_DelSig_1_BACKUP_STRUCT ADC_DelSig_1_backup =
  21:Generated_Source\PSoC5/ADC_DelSig_1_PM.c **** {
  22:Generated_Source\PSoC5/ADC_DelSig_1_PM.c ****     ADC_DelSig_1_DISABLED,
  23:Generated_Source\PSoC5/ADC_DelSig_1_PM.c ****     ADC_DelSig_1_CFG1_DEC_CR
  24:Generated_Source\PSoC5/ADC_DelSig_1_PM.c **** };
  25:Generated_Source\PSoC5/ADC_DelSig_1_PM.c **** 
  26:Generated_Source\PSoC5/ADC_DelSig_1_PM.c **** 
  27:Generated_Source\PSoC5/ADC_DelSig_1_PM.c **** /*******************************************************************************
  28:Generated_Source\PSoC5/ADC_DelSig_1_PM.c **** * Function Name: ADC_DelSig_1_SaveConfig
  29:Generated_Source\PSoC5/ADC_DelSig_1_PM.c **** ********************************************************************************
  30:Generated_Source\PSoC5/ADC_DelSig_1_PM.c **** *
ARM GAS  C:\Users\larco\AppData\Local\Temp\cchvRlP1.s 			page 2


  31:Generated_Source\PSoC5/ADC_DelSig_1_PM.c **** * Summary:
  32:Generated_Source\PSoC5/ADC_DelSig_1_PM.c **** *  Save the register configuration which are not retention.
  33:Generated_Source\PSoC5/ADC_DelSig_1_PM.c **** *
  34:Generated_Source\PSoC5/ADC_DelSig_1_PM.c **** * Parameters:
  35:Generated_Source\PSoC5/ADC_DelSig_1_PM.c **** *  None
  36:Generated_Source\PSoC5/ADC_DelSig_1_PM.c **** *
  37:Generated_Source\PSoC5/ADC_DelSig_1_PM.c **** * Return:
  38:Generated_Source\PSoC5/ADC_DelSig_1_PM.c **** *  None
  39:Generated_Source\PSoC5/ADC_DelSig_1_PM.c **** *
  40:Generated_Source\PSoC5/ADC_DelSig_1_PM.c **** * Global variables:
  41:Generated_Source\PSoC5/ADC_DelSig_1_PM.c **** *  ADC_DelSig_1_backup:  This global structure variable is used to store
  42:Generated_Source\PSoC5/ADC_DelSig_1_PM.c **** *  configuration registers which are non retention whenever user wants to go
  43:Generated_Source\PSoC5/ADC_DelSig_1_PM.c **** *  sleep mode by calling Sleep() API.
  44:Generated_Source\PSoC5/ADC_DelSig_1_PM.c **** *
  45:Generated_Source\PSoC5/ADC_DelSig_1_PM.c **** *******************************************************************************/
  46:Generated_Source\PSoC5/ADC_DelSig_1_PM.c **** void ADC_DelSig_1_SaveConfig(void) 
  47:Generated_Source\PSoC5/ADC_DelSig_1_PM.c **** {
  28              		.loc 1 47 0
  29              		.cfi_startproc
  30              		@ args = 0, pretend = 0, frame = 0
  31              		@ frame_needed = 0, uses_anonymous_args = 0
  32              		@ link register save eliminated.
  48:Generated_Source\PSoC5/ADC_DelSig_1_PM.c ****     ADC_DelSig_1_backup.deccr = ADC_DelSig_1_DEC_CR_REG;
  33              		.loc 1 48 0
  34 0000 024A     		ldr	r2, .L2
  35 0002 034B     		ldr	r3, .L2+4
  36 0004 1278     		ldrb	r2, [r2]	@ zero_extendqisi2
  37 0006 5A70     		strb	r2, [r3, #1]
  38 0008 7047     		bx	lr
  39              	.L3:
  40 000a 00BF     		.align	2
  41              	.L2:
  42 000c 004E0040 		.word	1073761792
  43 0010 00000000 		.word	.LANCHOR0
  44              		.cfi_endproc
  45              	.LFE0:
  46              		.size	ADC_DelSig_1_SaveConfig, .-ADC_DelSig_1_SaveConfig
  47              		.section	.text.ADC_DelSig_1_RestoreConfig,"ax",%progbits
  48              		.align	2
  49              		.global	ADC_DelSig_1_RestoreConfig
  50              		.thumb
  51              		.thumb_func
  52              		.type	ADC_DelSig_1_RestoreConfig, %function
  53              	ADC_DelSig_1_RestoreConfig:
  54              	.LFB1:
  49:Generated_Source\PSoC5/ADC_DelSig_1_PM.c **** }
  50:Generated_Source\PSoC5/ADC_DelSig_1_PM.c **** 
  51:Generated_Source\PSoC5/ADC_DelSig_1_PM.c **** 
  52:Generated_Source\PSoC5/ADC_DelSig_1_PM.c **** /*******************************************************************************
  53:Generated_Source\PSoC5/ADC_DelSig_1_PM.c **** * Function Name: ADC_DelSig_1_RestoreConfig
  54:Generated_Source\PSoC5/ADC_DelSig_1_PM.c **** ********************************************************************************
  55:Generated_Source\PSoC5/ADC_DelSig_1_PM.c **** *
  56:Generated_Source\PSoC5/ADC_DelSig_1_PM.c **** * Summary:
  57:Generated_Source\PSoC5/ADC_DelSig_1_PM.c **** *  Restore the register configurations which are not retention.
  58:Generated_Source\PSoC5/ADC_DelSig_1_PM.c **** *
  59:Generated_Source\PSoC5/ADC_DelSig_1_PM.c **** * Parameters:
  60:Generated_Source\PSoC5/ADC_DelSig_1_PM.c **** *  None
ARM GAS  C:\Users\larco\AppData\Local\Temp\cchvRlP1.s 			page 3


  61:Generated_Source\PSoC5/ADC_DelSig_1_PM.c **** *
  62:Generated_Source\PSoC5/ADC_DelSig_1_PM.c **** * Return:
  63:Generated_Source\PSoC5/ADC_DelSig_1_PM.c **** *  None
  64:Generated_Source\PSoC5/ADC_DelSig_1_PM.c **** *
  65:Generated_Source\PSoC5/ADC_DelSig_1_PM.c **** * Global variables:
  66:Generated_Source\PSoC5/ADC_DelSig_1_PM.c **** *  ADC_DelSig_1_backup:  This global structure variable is used to restore
  67:Generated_Source\PSoC5/ADC_DelSig_1_PM.c **** *  configuration registers which are non retention whenever user wants to switch
  68:Generated_Source\PSoC5/ADC_DelSig_1_PM.c **** *  to active power mode by calling Wakeup() API.
  69:Generated_Source\PSoC5/ADC_DelSig_1_PM.c **** *
  70:Generated_Source\PSoC5/ADC_DelSig_1_PM.c **** *******************************************************************************/
  71:Generated_Source\PSoC5/ADC_DelSig_1_PM.c **** void ADC_DelSig_1_RestoreConfig(void) 
  72:Generated_Source\PSoC5/ADC_DelSig_1_PM.c **** {
  55              		.loc 1 72 0
  56              		.cfi_startproc
  57              		@ args = 0, pretend = 0, frame = 0
  58              		@ frame_needed = 0, uses_anonymous_args = 0
  59              		@ link register save eliminated.
  73:Generated_Source\PSoC5/ADC_DelSig_1_PM.c ****     ADC_DelSig_1_DEC_CR_REG = ADC_DelSig_1_backup.deccr;
  60              		.loc 1 73 0
  61 0000 024A     		ldr	r2, .L5
  62 0002 034B     		ldr	r3, .L5+4
  63 0004 5278     		ldrb	r2, [r2, #1]	@ zero_extendqisi2
  64 0006 1A70     		strb	r2, [r3]
  65 0008 7047     		bx	lr
  66              	.L6:
  67 000a 00BF     		.align	2
  68              	.L5:
  69 000c 00000000 		.word	.LANCHOR0
  70 0010 004E0040 		.word	1073761792
  71              		.cfi_endproc
  72              	.LFE1:
  73              		.size	ADC_DelSig_1_RestoreConfig, .-ADC_DelSig_1_RestoreConfig
  74              		.section	.text.ADC_DelSig_1_Sleep,"ax",%progbits
  75              		.align	2
  76              		.global	ADC_DelSig_1_Sleep
  77              		.thumb
  78              		.thumb_func
  79              		.type	ADC_DelSig_1_Sleep, %function
  80              	ADC_DelSig_1_Sleep:
  81              	.LFB2:
  74:Generated_Source\PSoC5/ADC_DelSig_1_PM.c **** }
  75:Generated_Source\PSoC5/ADC_DelSig_1_PM.c **** 
  76:Generated_Source\PSoC5/ADC_DelSig_1_PM.c **** 
  77:Generated_Source\PSoC5/ADC_DelSig_1_PM.c **** /*******************************************************************************
  78:Generated_Source\PSoC5/ADC_DelSig_1_PM.c **** * Function Name: ADC_DelSig_1_Sleep
  79:Generated_Source\PSoC5/ADC_DelSig_1_PM.c **** ********************************************************************************
  80:Generated_Source\PSoC5/ADC_DelSig_1_PM.c **** *
  81:Generated_Source\PSoC5/ADC_DelSig_1_PM.c **** * Summary:
  82:Generated_Source\PSoC5/ADC_DelSig_1_PM.c **** *  Stops the operation of the block and saves the user configuration.
  83:Generated_Source\PSoC5/ADC_DelSig_1_PM.c **** *
  84:Generated_Source\PSoC5/ADC_DelSig_1_PM.c **** * Parameters:
  85:Generated_Source\PSoC5/ADC_DelSig_1_PM.c **** *  None
  86:Generated_Source\PSoC5/ADC_DelSig_1_PM.c **** *
  87:Generated_Source\PSoC5/ADC_DelSig_1_PM.c **** * Return:
  88:Generated_Source\PSoC5/ADC_DelSig_1_PM.c **** *  None
  89:Generated_Source\PSoC5/ADC_DelSig_1_PM.c **** *
  90:Generated_Source\PSoC5/ADC_DelSig_1_PM.c **** * Global variables:
ARM GAS  C:\Users\larco\AppData\Local\Temp\cchvRlP1.s 			page 4


  91:Generated_Source\PSoC5/ADC_DelSig_1_PM.c **** *  ADC_DelSig_1_backup:  The structure field 'enableState' is modified
  92:Generated_Source\PSoC5/ADC_DelSig_1_PM.c **** *  depending on the enable state of the block before entering to sleep mode.
  93:Generated_Source\PSoC5/ADC_DelSig_1_PM.c **** *
  94:Generated_Source\PSoC5/ADC_DelSig_1_PM.c **** *******************************************************************************/
  95:Generated_Source\PSoC5/ADC_DelSig_1_PM.c **** void ADC_DelSig_1_Sleep(void) 
  96:Generated_Source\PSoC5/ADC_DelSig_1_PM.c **** {
  82              		.loc 1 96 0
  83              		.cfi_startproc
  84              		@ args = 0, pretend = 0, frame = 0
  85              		@ frame_needed = 0, uses_anonymous_args = 0
  86 0000 10B5     		push	{r4, lr}
  87              		.cfi_def_cfa_offset 8
  88              		.cfi_offset 4, -8
  89              		.cfi_offset 14, -4
  97:Generated_Source\PSoC5/ADC_DelSig_1_PM.c ****     /* Save ADC enable state */
  98:Generated_Source\PSoC5/ADC_DelSig_1_PM.c ****     if((ADC_DelSig_1_ACT_PWR_DEC_EN == (ADC_DelSig_1_PWRMGR_DEC_REG & ADC_DelSig_1_ACT_PWR_DEC_EN))
  90              		.loc 1 98 0
  91 0002 0E4B     		ldr	r3, .L23
  99:Generated_Source\PSoC5/ADC_DelSig_1_PM.c ****        (ADC_DelSig_1_ACT_PWR_DSM_EN == (ADC_DelSig_1_PWRMGR_DSM_REG & ADC_DelSig_1_ACT_PWR_DSM_EN))
 100:Generated_Source\PSoC5/ADC_DelSig_1_PM.c ****     {
 101:Generated_Source\PSoC5/ADC_DelSig_1_PM.c ****         /* Component is enabled */
 102:Generated_Source\PSoC5/ADC_DelSig_1_PM.c ****         ADC_DelSig_1_backup.enableState = ADC_DelSig_1_ENABLED;
  92              		.loc 1 102 0
  93 0004 0E4C     		ldr	r4, .L23+4
  98:Generated_Source\PSoC5/ADC_DelSig_1_PM.c ****        (ADC_DelSig_1_ACT_PWR_DSM_EN == (ADC_DelSig_1_PWRMGR_DSM_REG & ADC_DelSig_1_ACT_PWR_DSM_EN))
  94              		.loc 1 98 0
  95 0006 1A78     		ldrb	r2, [r3]	@ zero_extendqisi2
  96 0008 D107     		lsls	r1, r2, #31
  97 000a 02D5     		bpl	.L8
  99:Generated_Source\PSoC5/ADC_DelSig_1_PM.c ****        (ADC_DelSig_1_ACT_PWR_DSM_EN == (ADC_DelSig_1_PWRMGR_DSM_REG & ADC_DelSig_1_ACT_PWR_DSM_EN))
  98              		.loc 1 99 0 discriminator 1
  99 000c 1B78     		ldrb	r3, [r3]	@ zero_extendqisi2
  98:Generated_Source\PSoC5/ADC_DelSig_1_PM.c ****        (ADC_DelSig_1_ACT_PWR_DSM_EN == (ADC_DelSig_1_PWRMGR_DSM_REG & ADC_DelSig_1_ACT_PWR_DSM_EN))
 100              		.loc 1 98 0 discriminator 1
 101 000e DA06     		lsls	r2, r3, #27
 102 0010 05D4     		bmi	.L22
 103              	.L8:
 103:Generated_Source\PSoC5/ADC_DelSig_1_PM.c ****         if((ADC_DelSig_1_DEC_CR_REG & ADC_DelSig_1_DEC_START_CONV) != 0u)
 104:Generated_Source\PSoC5/ADC_DelSig_1_PM.c ****         {   
 105:Generated_Source\PSoC5/ADC_DelSig_1_PM.c ****             /* Conversion is started */
 106:Generated_Source\PSoC5/ADC_DelSig_1_PM.c ****             ADC_DelSig_1_backup.enableState |= ADC_DelSig_1_STARTED;
 107:Generated_Source\PSoC5/ADC_DelSig_1_PM.c ****         }
 108:Generated_Source\PSoC5/ADC_DelSig_1_PM.c **** 		
 109:Generated_Source\PSoC5/ADC_DelSig_1_PM.c ****         /* Stop the configuration */
 110:Generated_Source\PSoC5/ADC_DelSig_1_PM.c ****         ADC_DelSig_1_Stop();
 111:Generated_Source\PSoC5/ADC_DelSig_1_PM.c ****     }
 112:Generated_Source\PSoC5/ADC_DelSig_1_PM.c ****     else
 113:Generated_Source\PSoC5/ADC_DelSig_1_PM.c ****     {
 114:Generated_Source\PSoC5/ADC_DelSig_1_PM.c ****         /* Component is disabled */
 115:Generated_Source\PSoC5/ADC_DelSig_1_PM.c ****         ADC_DelSig_1_backup.enableState = ADC_DelSig_1_DISABLED;
 104              		.loc 1 115 0
 105 0012 0023     		movs	r3, #0
 106 0014 2370     		strb	r3, [r4]
 107              	.LBB6:
 108              	.LBB7:
  48:Generated_Source\PSoC5/ADC_DelSig_1_PM.c **** }
 109              		.loc 1 48 0
ARM GAS  C:\Users\larco\AppData\Local\Temp\cchvRlP1.s 			page 5


 110 0016 0B4B     		ldr	r3, .L23+8
 111 0018 1B78     		ldrb	r3, [r3]	@ zero_extendqisi2
 112 001a 6370     		strb	r3, [r4, #1]
 113 001c 10BD     		pop	{r4, pc}
 114              	.L22:
 115              	.LBE7:
 116              	.LBE6:
 102:Generated_Source\PSoC5/ADC_DelSig_1_PM.c ****         if((ADC_DelSig_1_DEC_CR_REG & ADC_DelSig_1_DEC_START_CONV) != 0u)
 117              		.loc 1 102 0
 118 001e 0122     		movs	r2, #1
 103:Generated_Source\PSoC5/ADC_DelSig_1_PM.c ****         if((ADC_DelSig_1_DEC_CR_REG & ADC_DelSig_1_DEC_START_CONV) != 0u)
 119              		.loc 1 103 0
 120 0020 084B     		ldr	r3, .L23+8
 102:Generated_Source\PSoC5/ADC_DelSig_1_PM.c ****         if((ADC_DelSig_1_DEC_CR_REG & ADC_DelSig_1_DEC_START_CONV) != 0u)
 121              		.loc 1 102 0
 122 0022 2270     		strb	r2, [r4]
 103:Generated_Source\PSoC5/ADC_DelSig_1_PM.c ****         if((ADC_DelSig_1_DEC_CR_REG & ADC_DelSig_1_DEC_START_CONV) != 0u)
 123              		.loc 1 103 0
 124 0024 1B78     		ldrb	r3, [r3]	@ zero_extendqisi2
 125 0026 DB07     		lsls	r3, r3, #31
 106:Generated_Source\PSoC5/ADC_DelSig_1_PM.c ****         }
 126              		.loc 1 106 0
 127 0028 44BF     		itt	mi
 128 002a 0323     		movmi	r3, #3
 129 002c 2370     		strbmi	r3, [r4]
 110:Generated_Source\PSoC5/ADC_DelSig_1_PM.c ****     }
 130              		.loc 1 110 0
 131 002e FFF7FEFF 		bl	ADC_DelSig_1_Stop
 132              	.LVL0:
 133              	.LBB9:
 134              	.LBB8:
  48:Generated_Source\PSoC5/ADC_DelSig_1_PM.c **** }
 135              		.loc 1 48 0
 136 0032 044B     		ldr	r3, .L23+8
 137 0034 1B78     		ldrb	r3, [r3]	@ zero_extendqisi2
 138 0036 6370     		strb	r3, [r4, #1]
 139 0038 10BD     		pop	{r4, pc}
 140              	.L24:
 141 003a 00BF     		.align	2
 142              	.L23:
 143 003c AA430040 		.word	1073759146
 144 0040 00000000 		.word	.LANCHOR0
 145 0044 004E0040 		.word	1073761792
 146              	.LBE8:
 147              	.LBE9:
 148              		.cfi_endproc
 149              	.LFE2:
 150              		.size	ADC_DelSig_1_Sleep, .-ADC_DelSig_1_Sleep
 151              		.section	.text.ADC_DelSig_1_Wakeup,"ax",%progbits
 152              		.align	2
 153              		.global	ADC_DelSig_1_Wakeup
 154              		.thumb
 155              		.thumb_func
 156              		.type	ADC_DelSig_1_Wakeup, %function
 157              	ADC_DelSig_1_Wakeup:
 158              	.LFB3:
 116:Generated_Source\PSoC5/ADC_DelSig_1_PM.c ****     }
ARM GAS  C:\Users\larco\AppData\Local\Temp\cchvRlP1.s 			page 6


 117:Generated_Source\PSoC5/ADC_DelSig_1_PM.c **** 
 118:Generated_Source\PSoC5/ADC_DelSig_1_PM.c ****     /* Save the user configuration */
 119:Generated_Source\PSoC5/ADC_DelSig_1_PM.c ****     ADC_DelSig_1_SaveConfig();
 120:Generated_Source\PSoC5/ADC_DelSig_1_PM.c **** }
 121:Generated_Source\PSoC5/ADC_DelSig_1_PM.c **** 
 122:Generated_Source\PSoC5/ADC_DelSig_1_PM.c **** 
 123:Generated_Source\PSoC5/ADC_DelSig_1_PM.c **** /*******************************************************************************
 124:Generated_Source\PSoC5/ADC_DelSig_1_PM.c **** * Function Name: ADC_DelSig_1_Wakeup
 125:Generated_Source\PSoC5/ADC_DelSig_1_PM.c **** ********************************************************************************
 126:Generated_Source\PSoC5/ADC_DelSig_1_PM.c **** *
 127:Generated_Source\PSoC5/ADC_DelSig_1_PM.c **** * Summary:
 128:Generated_Source\PSoC5/ADC_DelSig_1_PM.c **** *  Restores the user configuration and enables the power to the block.
 129:Generated_Source\PSoC5/ADC_DelSig_1_PM.c **** *
 130:Generated_Source\PSoC5/ADC_DelSig_1_PM.c **** * Parameters:
 131:Generated_Source\PSoC5/ADC_DelSig_1_PM.c **** *  None
 132:Generated_Source\PSoC5/ADC_DelSig_1_PM.c **** *
 133:Generated_Source\PSoC5/ADC_DelSig_1_PM.c **** * Return:
 134:Generated_Source\PSoC5/ADC_DelSig_1_PM.c **** *  None
 135:Generated_Source\PSoC5/ADC_DelSig_1_PM.c **** *
 136:Generated_Source\PSoC5/ADC_DelSig_1_PM.c **** * Global variables:
 137:Generated_Source\PSoC5/ADC_DelSig_1_PM.c **** *  ADC_DelSig_1_backup:  The structure field 'enableState' is used to
 138:Generated_Source\PSoC5/ADC_DelSig_1_PM.c **** *  restore the enable state of block after wakeup from sleep mode.
 139:Generated_Source\PSoC5/ADC_DelSig_1_PM.c **** *
 140:Generated_Source\PSoC5/ADC_DelSig_1_PM.c **** *******************************************************************************/
 141:Generated_Source\PSoC5/ADC_DelSig_1_PM.c **** void ADC_DelSig_1_Wakeup(void) 
 142:Generated_Source\PSoC5/ADC_DelSig_1_PM.c **** {
 159              		.loc 1 142 0
 160              		.cfi_startproc
 161              		@ args = 0, pretend = 0, frame = 0
 162              		@ frame_needed = 0, uses_anonymous_args = 0
 163 0000 10B5     		push	{r4, lr}
 164              		.cfi_def_cfa_offset 8
 165              		.cfi_offset 4, -8
 166              		.cfi_offset 14, -4
 167              	.LBB10:
 168              	.LBB11:
  73:Generated_Source\PSoC5/ADC_DelSig_1_PM.c **** }
 169              		.loc 1 73 0
 170 0002 084C     		ldr	r4, .L34
 171 0004 084B     		ldr	r3, .L34+4
 172 0006 6278     		ldrb	r2, [r4, #1]	@ zero_extendqisi2
 173 0008 1A70     		strb	r2, [r3]
 174              	.LBE11:
 175              	.LBE10:
 143:Generated_Source\PSoC5/ADC_DelSig_1_PM.c ****     /* Restore the configuration */
 144:Generated_Source\PSoC5/ADC_DelSig_1_PM.c ****     ADC_DelSig_1_RestoreConfig();
 145:Generated_Source\PSoC5/ADC_DelSig_1_PM.c **** 
 146:Generated_Source\PSoC5/ADC_DelSig_1_PM.c ****     /* Enables the component operation */
 147:Generated_Source\PSoC5/ADC_DelSig_1_PM.c ****     if(ADC_DelSig_1_backup.enableState != ADC_DelSig_1_DISABLED)
 176              		.loc 1 147 0
 177 000a 2378     		ldrb	r3, [r4]	@ zero_extendqisi2
 178 000c 03B9     		cbnz	r3, .L33
 179              	.L25:
 180 000e 10BD     		pop	{r4, pc}
 181              	.L33:
 148:Generated_Source\PSoC5/ADC_DelSig_1_PM.c ****     {
 149:Generated_Source\PSoC5/ADC_DelSig_1_PM.c ****         ADC_DelSig_1_Enable();
ARM GAS  C:\Users\larco\AppData\Local\Temp\cchvRlP1.s 			page 7


 182              		.loc 1 149 0
 183 0010 FFF7FEFF 		bl	ADC_DelSig_1_Enable
 184              	.LVL1:
 150:Generated_Source\PSoC5/ADC_DelSig_1_PM.c ****         if((ADC_DelSig_1_backup.enableState & ADC_DelSig_1_STARTED) != 0u)
 185              		.loc 1 150 0
 186 0014 2378     		ldrb	r3, [r4]	@ zero_extendqisi2
 187 0016 9B07     		lsls	r3, r3, #30
 188 0018 F9D5     		bpl	.L25
 151:Generated_Source\PSoC5/ADC_DelSig_1_PM.c ****         {
 152:Generated_Source\PSoC5/ADC_DelSig_1_PM.c ****             ADC_DelSig_1_StartConvert();
 153:Generated_Source\PSoC5/ADC_DelSig_1_PM.c ****         }
 154:Generated_Source\PSoC5/ADC_DelSig_1_PM.c ****     } /* Do nothing if component was disable before */
 155:Generated_Source\PSoC5/ADC_DelSig_1_PM.c **** }
 189              		.loc 1 155 0
 190 001a BDE81040 		pop	{r4, lr}
 191              		.cfi_restore 14
 192              		.cfi_restore 4
 193              		.cfi_def_cfa_offset 0
 152:Generated_Source\PSoC5/ADC_DelSig_1_PM.c ****         }
 194              		.loc 1 152 0
 195 001e FFF7FEBF 		b	ADC_DelSig_1_StartConvert
 196              	.LVL2:
 197              	.L35:
 198 0022 00BF     		.align	2
 199              	.L34:
 200 0024 00000000 		.word	.LANCHOR0
 201 0028 004E0040 		.word	1073761792
 202              		.cfi_endproc
 203              	.LFE3:
 204              		.size	ADC_DelSig_1_Wakeup, .-ADC_DelSig_1_Wakeup
 205              		.data
 206              		.align	2
 207              		.set	.LANCHOR0,. + 0
 208              		.type	ADC_DelSig_1_backup, %object
 209              		.size	ADC_DelSig_1_backup, 2
 210              	ADC_DelSig_1_backup:
 211 0000 00       		.byte	0
 212 0001 38       		.byte	56
 213              		.text
 214              	.Letext0:
 215              		.file 2 "Generated_Source\\PSoC5\\cytypes.h"
 216              		.file 3 "Generated_Source\\PSoC5\\ADC_DelSig_1.h"