ARM GAS  C:\Users\larco\AppData\Local\Temp\ccVflAi7.s 			page 1


   1              		.syntax unified
   2              		.cpu cortex-m3
   3              		.fpu softvfp
   4              		.eabi_attribute 20, 1
   5              		.eabi_attribute 21, 1
   6              		.eabi_attribute 23, 3
   7              		.eabi_attribute 24, 1
   8              		.eabi_attribute 25, 1
   9              		.eabi_attribute 26, 1
  10              		.eabi_attribute 30, 2
  11              		.eabi_attribute 34, 1
  12              		.eabi_attribute 18, 4
  13              		.thumb
  14              		.syntax unified
  15              		.file	"ADC_DelSig_1_INT.c"
  16              		.text
  17              	.Ltext0:
  18              		.cfi_sections	.debug_frame
  19              		.section	.text.ADC_DelSig_1_ISR1,"ax",%progbits
  20              		.align	2
  21              		.global	ADC_DelSig_1_ISR1
  22              		.thumb
  23              		.thumb_func
  24              		.type	ADC_DelSig_1_ISR1, %function
  25              	ADC_DelSig_1_ISR1:
  26              	.LFB9:
  27              		.cfi_startproc
  28              		@ args = 0, pretend = 0, frame = 0
  29              		@ frame_needed = 0, uses_anonymous_args = 0
  30              		@ link register save eliminated.
  31 0000 7047     		bx	lr
  32              		.cfi_endproc
  33              	.LFE9:
  34              		.size	ADC_DelSig_1_ISR1, .-ADC_DelSig_1_ISR1
  35 0002 00BF     		.section	.text.ADC_DelSig_1_ISR2,"ax",%progbits
  36              		.align	2
  37              		.global	ADC_DelSig_1_ISR2
  38              		.thumb
  39              		.thumb_func
  40              		.type	ADC_DelSig_1_ISR2, %function
  41              	ADC_DelSig_1_ISR2:
  42              	.LFB7:
  43              		.cfi_startproc
  44              		@ args = 0, pretend = 0, frame = 0
  45              		@ frame_needed = 0, uses_anonymous_args = 0
  46              		@ link register save eliminated.
  47 0000 7047     		bx	lr
  48              		.cfi_endproc
  49              	.LFE7:
  50              		.size	ADC_DelSig_1_ISR2, .-ADC_DelSig_1_ISR2
  51 0002 00BF     		.section	.text.ADC_DelSig_1_ISR3,"ax",%progbits
  52              		.align	2
  53              		.global	ADC_DelSig_1_ISR3
  54              		.thumb
  55              		.thumb_func
  56              		.type	ADC_DelSig_1_ISR3, %function
  57              	ADC_DelSig_1_ISR3:
ARM GAS  C:\Users\larco\AppData\Local\Temp\ccVflAi7.s 			page 2


  58              	.LFB5:
  59              		.cfi_startproc
  60              		@ args = 0, pretend = 0, frame = 0
  61              		@ frame_needed = 0, uses_anonymous_args = 0
  62              		@ link register save eliminated.
  63 0000 7047     		bx	lr
  64              		.cfi_endproc
  65              	.LFE5:
  66              		.size	ADC_DelSig_1_ISR3, .-ADC_DelSig_1_ISR3
  67 0002 00BF     		.section	.text.ADC_DelSig_1_ISR4,"ax",%progbits
  68              		.align	2
  69              		.global	ADC_DelSig_1_ISR4
  70              		.thumb
  71              		.thumb_func
  72              		.type	ADC_DelSig_1_ISR4, %function
  73              	ADC_DelSig_1_ISR4:
  74              	.LFB3:
  75              		.file 1 "Generated_Source\\PSoC5\\ADC_DelSig_1_INT.c"
   1:Generated_Source\PSoC5/ADC_DelSig_1_INT.c **** /*******************************************************************************
   2:Generated_Source\PSoC5/ADC_DelSig_1_INT.c **** * File Name: ADC_DelSig_1_INT.c
   3:Generated_Source\PSoC5/ADC_DelSig_1_INT.c **** * Version 3.30
   4:Generated_Source\PSoC5/ADC_DelSig_1_INT.c **** *
   5:Generated_Source\PSoC5/ADC_DelSig_1_INT.c **** * Description:
   6:Generated_Source\PSoC5/ADC_DelSig_1_INT.c **** *  This file contains the code that operates during the ADC_DelSig interrupt
   7:Generated_Source\PSoC5/ADC_DelSig_1_INT.c **** *  service routine.
   8:Generated_Source\PSoC5/ADC_DelSig_1_INT.c **** *
   9:Generated_Source\PSoC5/ADC_DelSig_1_INT.c **** * Note:
  10:Generated_Source\PSoC5/ADC_DelSig_1_INT.c **** *
  11:Generated_Source\PSoC5/ADC_DelSig_1_INT.c **** ********************************************************************************
  12:Generated_Source\PSoC5/ADC_DelSig_1_INT.c **** * Copyright 2008-2017, Cypress Semiconductor Corporation.  All rights reserved.
  13:Generated_Source\PSoC5/ADC_DelSig_1_INT.c **** * You may use this file only in accordance with the license, terms, conditions,
  14:Generated_Source\PSoC5/ADC_DelSig_1_INT.c **** * disclaimers, and limitations in the end user license agreement accompanying
  15:Generated_Source\PSoC5/ADC_DelSig_1_INT.c **** * the software package with which this file was provided.
  16:Generated_Source\PSoC5/ADC_DelSig_1_INT.c **** *******************************************************************************/
  17:Generated_Source\PSoC5/ADC_DelSig_1_INT.c **** 
  18:Generated_Source\PSoC5/ADC_DelSig_1_INT.c **** #include "ADC_DelSig_1.h"
  19:Generated_Source\PSoC5/ADC_DelSig_1_INT.c **** #include "cyapicallbacks.h"
  20:Generated_Source\PSoC5/ADC_DelSig_1_INT.c **** 
  21:Generated_Source\PSoC5/ADC_DelSig_1_INT.c **** 
  22:Generated_Source\PSoC5/ADC_DelSig_1_INT.c **** /*******************************************************************************
  23:Generated_Source\PSoC5/ADC_DelSig_1_INT.c **** * Custom Declarations and Variables
  24:Generated_Source\PSoC5/ADC_DelSig_1_INT.c **** * - add user include files, prototypes and variables between the following
  25:Generated_Source\PSoC5/ADC_DelSig_1_INT.c **** *   #START and #END tags
  26:Generated_Source\PSoC5/ADC_DelSig_1_INT.c **** *******************************************************************************/
  27:Generated_Source\PSoC5/ADC_DelSig_1_INT.c **** /* `#START ADC_SYS_VAR`  */
  28:Generated_Source\PSoC5/ADC_DelSig_1_INT.c **** 
  29:Generated_Source\PSoC5/ADC_DelSig_1_INT.c **** /* `#END`  */
  30:Generated_Source\PSoC5/ADC_DelSig_1_INT.c **** 
  31:Generated_Source\PSoC5/ADC_DelSig_1_INT.c **** #if(ADC_DelSig_1_IRQ_REMOVE == 0u)
  32:Generated_Source\PSoC5/ADC_DelSig_1_INT.c **** 
  33:Generated_Source\PSoC5/ADC_DelSig_1_INT.c **** 
  34:Generated_Source\PSoC5/ADC_DelSig_1_INT.c ****     /*****************************************************************************
  35:Generated_Source\PSoC5/ADC_DelSig_1_INT.c ****     * Function Name: ADC_DelSig_1_ISR1
  36:Generated_Source\PSoC5/ADC_DelSig_1_INT.c ****     ******************************************************************************
  37:Generated_Source\PSoC5/ADC_DelSig_1_INT.c ****     *
  38:Generated_Source\PSoC5/ADC_DelSig_1_INT.c ****     * Summary:
  39:Generated_Source\PSoC5/ADC_DelSig_1_INT.c ****     *  Handle Interrupt Service Routine.
ARM GAS  C:\Users\larco\AppData\Local\Temp\ccVflAi7.s 			page 3


  40:Generated_Source\PSoC5/ADC_DelSig_1_INT.c ****     *
  41:Generated_Source\PSoC5/ADC_DelSig_1_INT.c ****     * Parameters:
  42:Generated_Source\PSoC5/ADC_DelSig_1_INT.c ****     *  None
  43:Generated_Source\PSoC5/ADC_DelSig_1_INT.c ****     *
  44:Generated_Source\PSoC5/ADC_DelSig_1_INT.c ****     * Return:
  45:Generated_Source\PSoC5/ADC_DelSig_1_INT.c ****     *  None
  46:Generated_Source\PSoC5/ADC_DelSig_1_INT.c ****     *
  47:Generated_Source\PSoC5/ADC_DelSig_1_INT.c ****     * Reentrant:
  48:Generated_Source\PSoC5/ADC_DelSig_1_INT.c ****     *  No
  49:Generated_Source\PSoC5/ADC_DelSig_1_INT.c ****     *
  50:Generated_Source\PSoC5/ADC_DelSig_1_INT.c ****     *****************************************************************************/
  51:Generated_Source\PSoC5/ADC_DelSig_1_INT.c ****     CY_ISR( ADC_DelSig_1_ISR1)
  52:Generated_Source\PSoC5/ADC_DelSig_1_INT.c ****     {
  53:Generated_Source\PSoC5/ADC_DelSig_1_INT.c ****         #ifdef ADC_DelSig_1_ISR1_ENTRY_CALLBACK
  54:Generated_Source\PSoC5/ADC_DelSig_1_INT.c ****             ADC_DelSig_1_ISR1_EntryCallback();
  55:Generated_Source\PSoC5/ADC_DelSig_1_INT.c ****         #endif /* ADC_DelSig_1_ISR1_ENTRY_CALLBACK */
  56:Generated_Source\PSoC5/ADC_DelSig_1_INT.c ****         
  57:Generated_Source\PSoC5/ADC_DelSig_1_INT.c **** 
  58:Generated_Source\PSoC5/ADC_DelSig_1_INT.c ****         /**************************************************************************
  59:Generated_Source\PSoC5/ADC_DelSig_1_INT.c ****         *  Custom Code
  60:Generated_Source\PSoC5/ADC_DelSig_1_INT.c ****         *  - add user ISR code between the following #START and #END tags
  61:Generated_Source\PSoC5/ADC_DelSig_1_INT.c ****         **************************************************************************/
  62:Generated_Source\PSoC5/ADC_DelSig_1_INT.c ****         /* `#START MAIN_ADC_ISR1`  */
  63:Generated_Source\PSoC5/ADC_DelSig_1_INT.c **** 
  64:Generated_Source\PSoC5/ADC_DelSig_1_INT.c ****         /* `#END`  */
  65:Generated_Source\PSoC5/ADC_DelSig_1_INT.c ****         
  66:Generated_Source\PSoC5/ADC_DelSig_1_INT.c ****         /* Stop the conversion if conversion mode is single sample and resolution
  67:Generated_Source\PSoC5/ADC_DelSig_1_INT.c ****         *  is above 16 bits.
  68:Generated_Source\PSoC5/ADC_DelSig_1_INT.c ****         */
  69:Generated_Source\PSoC5/ADC_DelSig_1_INT.c ****         #if(ADC_DelSig_1_CFG1_RESOLUTION > 16 && \
  70:Generated_Source\PSoC5/ADC_DelSig_1_INT.c ****             ADC_DelSig_1_CFG1_CONV_MODE == ADC_DelSig_1_MODE_SINGLE_SAMPLE)
  71:Generated_Source\PSoC5/ADC_DelSig_1_INT.c ****             ADC_DelSig_1_StopConvert();
  72:Generated_Source\PSoC5/ADC_DelSig_1_INT.c ****             /* Software flag for checking conversion complete or not. Will be used when
  73:Generated_Source\PSoC5/ADC_DelSig_1_INT.c ****             *  resolution is above 16 bits and conversion mode is single sample 
  74:Generated_Source\PSoC5/ADC_DelSig_1_INT.c **** 			*/
  75:Generated_Source\PSoC5/ADC_DelSig_1_INT.c ****             ADC_DelSig_1_convDone = ADC_DelSig_1_DEC_CONV_DONE;
  76:Generated_Source\PSoC5/ADC_DelSig_1_INT.c ****         #endif /* Single sample conversion mode with resolution above 16 bits */
  77:Generated_Source\PSoC5/ADC_DelSig_1_INT.c **** 
  78:Generated_Source\PSoC5/ADC_DelSig_1_INT.c ****         #ifdef ADC_DelSig_1_ISR1_EXIT_CALLBACK
  79:Generated_Source\PSoC5/ADC_DelSig_1_INT.c ****             ADC_DelSig_1_ISR1_ExitCallback();
  80:Generated_Source\PSoC5/ADC_DelSig_1_INT.c ****         #endif /* ADC_DelSig_1_ISR1_EXIT_CALLBACK */
  81:Generated_Source\PSoC5/ADC_DelSig_1_INT.c ****     }
  82:Generated_Source\PSoC5/ADC_DelSig_1_INT.c **** 
  83:Generated_Source\PSoC5/ADC_DelSig_1_INT.c **** 
  84:Generated_Source\PSoC5/ADC_DelSig_1_INT.c ****     /*****************************************************************************
  85:Generated_Source\PSoC5/ADC_DelSig_1_INT.c ****     * Function Name: ADC_DelSig_1_ISR2
  86:Generated_Source\PSoC5/ADC_DelSig_1_INT.c ****     ******************************************************************************
  87:Generated_Source\PSoC5/ADC_DelSig_1_INT.c ****     *
  88:Generated_Source\PSoC5/ADC_DelSig_1_INT.c ****     * Summary:
  89:Generated_Source\PSoC5/ADC_DelSig_1_INT.c ****     *  Handle Interrupt Service Routine.
  90:Generated_Source\PSoC5/ADC_DelSig_1_INT.c ****     *
  91:Generated_Source\PSoC5/ADC_DelSig_1_INT.c ****     * Parameters:
  92:Generated_Source\PSoC5/ADC_DelSig_1_INT.c ****     *  None
  93:Generated_Source\PSoC5/ADC_DelSig_1_INT.c ****     *
  94:Generated_Source\PSoC5/ADC_DelSig_1_INT.c ****     * Return:
  95:Generated_Source\PSoC5/ADC_DelSig_1_INT.c ****     *  None
  96:Generated_Source\PSoC5/ADC_DelSig_1_INT.c ****     *
ARM GAS  C:\Users\larco\AppData\Local\Temp\ccVflAi7.s 			page 4


  97:Generated_Source\PSoC5/ADC_DelSig_1_INT.c ****     * Reentrant:
  98:Generated_Source\PSoC5/ADC_DelSig_1_INT.c ****     *  No
  99:Generated_Source\PSoC5/ADC_DelSig_1_INT.c ****     *
 100:Generated_Source\PSoC5/ADC_DelSig_1_INT.c ****     *****************************************************************************/
 101:Generated_Source\PSoC5/ADC_DelSig_1_INT.c ****     CY_ISR( ADC_DelSig_1_ISR2)
 102:Generated_Source\PSoC5/ADC_DelSig_1_INT.c ****     {
 103:Generated_Source\PSoC5/ADC_DelSig_1_INT.c ****         #ifdef ADC_DelSig_1_ISR2_ENTRY_CALLBACK
 104:Generated_Source\PSoC5/ADC_DelSig_1_INT.c ****             ADC_DelSig_1_ISR2_EntryCallback();
 105:Generated_Source\PSoC5/ADC_DelSig_1_INT.c ****         #endif /* ADC_DelSig_1_ISR2_ENTRY_CALLBACK */
 106:Generated_Source\PSoC5/ADC_DelSig_1_INT.c ****         
 107:Generated_Source\PSoC5/ADC_DelSig_1_INT.c ****         
 108:Generated_Source\PSoC5/ADC_DelSig_1_INT.c ****         /***************************************************************************
 109:Generated_Source\PSoC5/ADC_DelSig_1_INT.c ****         *  Custom Code
 110:Generated_Source\PSoC5/ADC_DelSig_1_INT.c ****         *  - add user ISR code between the following #START and #END tags
 111:Generated_Source\PSoC5/ADC_DelSig_1_INT.c ****         **************************************************************************/
 112:Generated_Source\PSoC5/ADC_DelSig_1_INT.c ****         /* `#START MAIN_ADC_ISR2`  */
 113:Generated_Source\PSoC5/ADC_DelSig_1_INT.c **** 
 114:Generated_Source\PSoC5/ADC_DelSig_1_INT.c ****         /* `#END`  */
 115:Generated_Source\PSoC5/ADC_DelSig_1_INT.c **** 
 116:Generated_Source\PSoC5/ADC_DelSig_1_INT.c ****         /* Stop the conversion conversion mode is single sample and resolution
 117:Generated_Source\PSoC5/ADC_DelSig_1_INT.c ****         *  is above 16 bits.
 118:Generated_Source\PSoC5/ADC_DelSig_1_INT.c ****         */
 119:Generated_Source\PSoC5/ADC_DelSig_1_INT.c ****         #if(ADC_DelSig_1_CFG2_RESOLUTION > 16 && \
 120:Generated_Source\PSoC5/ADC_DelSig_1_INT.c ****             ADC_DelSig_1_CFG2_CONVMODE == ADC_DelSig_1_MODE_SINGLE_SAMPLE)
 121:Generated_Source\PSoC5/ADC_DelSig_1_INT.c ****             ADC_DelSig_1_StopConvert();
 122:Generated_Source\PSoC5/ADC_DelSig_1_INT.c ****             /* Software flag for checking conversion complete or not. Will be used when
 123:Generated_Source\PSoC5/ADC_DelSig_1_INT.c ****             *   resolution is above 16 bits and conversion mode is single sample 
 124:Generated_Source\PSoC5/ADC_DelSig_1_INT.c **** 			*/
 125:Generated_Source\PSoC5/ADC_DelSig_1_INT.c ****             ADC_DelSig_1_convDone = ADC_DelSig_1_DEC_CONV_DONE;
 126:Generated_Source\PSoC5/ADC_DelSig_1_INT.c ****         #endif /* Single sample conversion mode with resolution above 16 bits */
 127:Generated_Source\PSoC5/ADC_DelSig_1_INT.c **** 
 128:Generated_Source\PSoC5/ADC_DelSig_1_INT.c ****         #ifdef ADC_DelSig_1_ISR2_EXIT_CALLBACK
 129:Generated_Source\PSoC5/ADC_DelSig_1_INT.c ****             ADC_DelSig_1_ISR2_ExitCallback();
 130:Generated_Source\PSoC5/ADC_DelSig_1_INT.c ****         #endif /* ADC_DelSig_1_ISR2_EXIT_CALLBACK */
 131:Generated_Source\PSoC5/ADC_DelSig_1_INT.c ****     }
 132:Generated_Source\PSoC5/ADC_DelSig_1_INT.c **** 
 133:Generated_Source\PSoC5/ADC_DelSig_1_INT.c **** 
 134:Generated_Source\PSoC5/ADC_DelSig_1_INT.c ****     /*****************************************************************************
 135:Generated_Source\PSoC5/ADC_DelSig_1_INT.c ****     * Function Name: ADC_DelSig_1_ISR3
 136:Generated_Source\PSoC5/ADC_DelSig_1_INT.c ****     ******************************************************************************
 137:Generated_Source\PSoC5/ADC_DelSig_1_INT.c ****     *
 138:Generated_Source\PSoC5/ADC_DelSig_1_INT.c ****     * Summary:
 139:Generated_Source\PSoC5/ADC_DelSig_1_INT.c ****     *  Handle Interrupt Service Routine.
 140:Generated_Source\PSoC5/ADC_DelSig_1_INT.c ****     *
 141:Generated_Source\PSoC5/ADC_DelSig_1_INT.c ****     * Parameters:
 142:Generated_Source\PSoC5/ADC_DelSig_1_INT.c ****     *  None
 143:Generated_Source\PSoC5/ADC_DelSig_1_INT.c ****     *
 144:Generated_Source\PSoC5/ADC_DelSig_1_INT.c ****     * Return:
 145:Generated_Source\PSoC5/ADC_DelSig_1_INT.c ****     *  None
 146:Generated_Source\PSoC5/ADC_DelSig_1_INT.c ****     *
 147:Generated_Source\PSoC5/ADC_DelSig_1_INT.c ****     * Reentrant:
 148:Generated_Source\PSoC5/ADC_DelSig_1_INT.c ****     *  No
 149:Generated_Source\PSoC5/ADC_DelSig_1_INT.c ****     *
 150:Generated_Source\PSoC5/ADC_DelSig_1_INT.c ****     *****************************************************************************/
 151:Generated_Source\PSoC5/ADC_DelSig_1_INT.c ****     CY_ISR( ADC_DelSig_1_ISR3)
 152:Generated_Source\PSoC5/ADC_DelSig_1_INT.c ****     {
 153:Generated_Source\PSoC5/ADC_DelSig_1_INT.c ****         #ifdef ADC_DelSig_1_ISR3_ENTRY_CALLBACK
ARM GAS  C:\Users\larco\AppData\Local\Temp\ccVflAi7.s 			page 5


 154:Generated_Source\PSoC5/ADC_DelSig_1_INT.c ****             ADC_DelSig_1_ISR3_EntryCallback();
 155:Generated_Source\PSoC5/ADC_DelSig_1_INT.c ****         #endif /* ADC_DelSig_1_ISR3_ENTRY_CALLBACK */        
 156:Generated_Source\PSoC5/ADC_DelSig_1_INT.c **** 
 157:Generated_Source\PSoC5/ADC_DelSig_1_INT.c ****         
 158:Generated_Source\PSoC5/ADC_DelSig_1_INT.c ****         /***************************************************************************
 159:Generated_Source\PSoC5/ADC_DelSig_1_INT.c ****         *  Custom Code
 160:Generated_Source\PSoC5/ADC_DelSig_1_INT.c ****         *  - add user ISR code between the following #START and #END tags
 161:Generated_Source\PSoC5/ADC_DelSig_1_INT.c ****         **************************************************************************/
 162:Generated_Source\PSoC5/ADC_DelSig_1_INT.c ****         /* `#START MAIN_ADC_ISR3`  */
 163:Generated_Source\PSoC5/ADC_DelSig_1_INT.c **** 
 164:Generated_Source\PSoC5/ADC_DelSig_1_INT.c ****         /* `#END`  */
 165:Generated_Source\PSoC5/ADC_DelSig_1_INT.c ****         
 166:Generated_Source\PSoC5/ADC_DelSig_1_INT.c ****         /* Stop the conversion if conversion mode is set to single sample and
 167:Generated_Source\PSoC5/ADC_DelSig_1_INT.c ****         *  resolution is above 16 bits.
 168:Generated_Source\PSoC5/ADC_DelSig_1_INT.c ****         */
 169:Generated_Source\PSoC5/ADC_DelSig_1_INT.c ****         #if(ADC_DelSig_1_CFG3_RESOLUTION > 16 && \
 170:Generated_Source\PSoC5/ADC_DelSig_1_INT.c ****             ADC_DelSig_1_CFG3_CONVMODE == ADC_DelSig_1_MODE_SINGLE_SAMPLE)
 171:Generated_Source\PSoC5/ADC_DelSig_1_INT.c ****             ADC_DelSig_1_StopConvert();
 172:Generated_Source\PSoC5/ADC_DelSig_1_INT.c ****             /* Software flag for checking conversion complete or not. Will be used when
 173:Generated_Source\PSoC5/ADC_DelSig_1_INT.c ****             *  resolution is above 16 bits and conversion mode is single sample 
 174:Generated_Source\PSoC5/ADC_DelSig_1_INT.c **** 			*/
 175:Generated_Source\PSoC5/ADC_DelSig_1_INT.c ****             ADC_DelSig_1_convDone = ADC_DelSig_1_DEC_CONV_DONE;
 176:Generated_Source\PSoC5/ADC_DelSig_1_INT.c ****         #endif /* Single sample conversion mode with resolution above 16 bits */
 177:Generated_Source\PSoC5/ADC_DelSig_1_INT.c **** 
 178:Generated_Source\PSoC5/ADC_DelSig_1_INT.c ****         #ifdef ADC_DelSig_1_ISR3_EXIT_CALLBACK
 179:Generated_Source\PSoC5/ADC_DelSig_1_INT.c ****             ADC_DelSig_1_ISR3_ExitCallback();
 180:Generated_Source\PSoC5/ADC_DelSig_1_INT.c ****         #endif /* ADC_DelSig_1_ISR3_EXIT_CALLBACK */        
 181:Generated_Source\PSoC5/ADC_DelSig_1_INT.c ****     }
 182:Generated_Source\PSoC5/ADC_DelSig_1_INT.c **** 
 183:Generated_Source\PSoC5/ADC_DelSig_1_INT.c **** 
 184:Generated_Source\PSoC5/ADC_DelSig_1_INT.c ****     /*****************************************************************************
 185:Generated_Source\PSoC5/ADC_DelSig_1_INT.c ****     * Function Name: ADC_DelSig_1_ISR4
 186:Generated_Source\PSoC5/ADC_DelSig_1_INT.c ****     ******************************************************************************
 187:Generated_Source\PSoC5/ADC_DelSig_1_INT.c ****     *
 188:Generated_Source\PSoC5/ADC_DelSig_1_INT.c ****     * Summary:
 189:Generated_Source\PSoC5/ADC_DelSig_1_INT.c ****     *  Handle Interrupt Service Routine.
 190:Generated_Source\PSoC5/ADC_DelSig_1_INT.c ****     *
 191:Generated_Source\PSoC5/ADC_DelSig_1_INT.c ****     * Parameters:
 192:Generated_Source\PSoC5/ADC_DelSig_1_INT.c ****     *  None
 193:Generated_Source\PSoC5/ADC_DelSig_1_INT.c ****     *
 194:Generated_Source\PSoC5/ADC_DelSig_1_INT.c ****     * Return:
 195:Generated_Source\PSoC5/ADC_DelSig_1_INT.c ****     *  None
 196:Generated_Source\PSoC5/ADC_DelSig_1_INT.c ****     *
 197:Generated_Source\PSoC5/ADC_DelSig_1_INT.c ****     * Reentrant:
 198:Generated_Source\PSoC5/ADC_DelSig_1_INT.c ****     *  No
 199:Generated_Source\PSoC5/ADC_DelSig_1_INT.c ****     *
 200:Generated_Source\PSoC5/ADC_DelSig_1_INT.c ****     *****************************************************************************/
 201:Generated_Source\PSoC5/ADC_DelSig_1_INT.c ****     CY_ISR( ADC_DelSig_1_ISR4)
 202:Generated_Source\PSoC5/ADC_DelSig_1_INT.c ****     {
  76              		.loc 1 202 0
  77              		.cfi_startproc
  78              		@ args = 0, pretend = 0, frame = 0
  79              		@ frame_needed = 0, uses_anonymous_args = 0
  80              		@ link register save eliminated.
  81 0000 7047     		bx	lr
  82              		.cfi_endproc
  83              	.LFE3:
ARM GAS  C:\Users\larco\AppData\Local\Temp\ccVflAi7.s 			page 6


  84              		.size	ADC_DelSig_1_ISR4, .-ADC_DelSig_1_ISR4
  85 0002 00BF     		.text
  86              	.Letext0: