ARM GAS  C:\Users\larco\AppData\Local\Temp\ccqyq8l8.s 			page 1


   1              		.syntax unified
   2              		.cpu cortex-m3
   3              		.fpu softvfp
   4              		.eabi_attribute 20, 1
   5              		.eabi_attribute 21, 1
   6              		.eabi_attribute 23, 3
   7              		.eabi_attribute 24, 1
   8              		.eabi_attribute 25, 1
   9              		.eabi_attribute 26, 1
  10              		.eabi_attribute 30, 2
  11              		.eabi_attribute 34, 1
  12              		.eabi_attribute 18, 4
  13              		.thumb
  14              		.syntax unified
  15              		.file	"CyDmac.c"
  16              		.text
  17              	.Ltext0:
  18              		.cfi_sections	.debug_frame
  19              		.section	.text.CyDmacConfigure,"ax",%progbits
  20              		.align	2
  21              		.global	CyDmacConfigure
  22              		.thumb
  23              		.thumb_func
  24              		.type	CyDmacConfigure, %function
  25              	CyDmacConfigure:
  26              	.LFB0:
  27              		.file 1 "Generated_Source\\PSoC5\\CyDmac.c"
   1:Generated_Source\PSoC5/CyDmac.c **** /***************************************************************************//**
   2:Generated_Source\PSoC5/CyDmac.c **** * \file CyDmac.c
   3:Generated_Source\PSoC5/CyDmac.c **** * \version 5.70
   4:Generated_Source\PSoC5/CyDmac.c **** *
   5:Generated_Source\PSoC5/CyDmac.c **** * \brief
   6:Generated_Source\PSoC5/CyDmac.c **** * Provides an API for the DMAC component. The API includes functions for the
   7:Generated_Source\PSoC5/CyDmac.c **** * DMA controller, DMA channels and Transfer Descriptors. This API is the library
   8:Generated_Source\PSoC5/CyDmac.c **** * version not the auto generated code that gets generated when the user places a
   9:Generated_Source\PSoC5/CyDmac.c **** * DMA component on the schematic.
  10:Generated_Source\PSoC5/CyDmac.c **** *
  11:Generated_Source\PSoC5/CyDmac.c **** * The auto generated code would use the APi's in this module.
  12:Generated_Source\PSoC5/CyDmac.c **** *
  13:Generated_Source\PSoC5/CyDmac.c **** * \note This code is endian agnostic.
  14:Generated_Source\PSoC5/CyDmac.c **** *
  15:Generated_Source\PSoC5/CyDmac.c **** * \note The Transfer Descriptor memory can be used as regular memory if the
  16:Generated_Source\PSoC5/CyDmac.c **** * TD's are not being used.
  17:Generated_Source\PSoC5/CyDmac.c **** *
  18:Generated_Source\PSoC5/CyDmac.c **** * \note This code uses the first byte of each TD to manage the free list of
  19:Generated_Source\PSoC5/CyDmac.c **** * TD's. The user can overwrite this once the TD is allocated.
  20:Generated_Source\PSoC5/CyDmac.c **** *
  21:Generated_Source\PSoC5/CyDmac.c **** ********************************************************************************
  22:Generated_Source\PSoC5/CyDmac.c **** * \copyright
  23:Generated_Source\PSoC5/CyDmac.c **** * Copyright 2008-2018, Cypress Semiconductor Corporation.  All rights reserved.
  24:Generated_Source\PSoC5/CyDmac.c **** * You may use this file only in accordance with the license, terms, conditions,
  25:Generated_Source\PSoC5/CyDmac.c **** * disclaimers, and limitations in the end user license agreement accompanying
  26:Generated_Source\PSoC5/CyDmac.c **** * the software package with which this file was provided.
  27:Generated_Source\PSoC5/CyDmac.c **** *******************************************************************************/
  28:Generated_Source\PSoC5/CyDmac.c **** 
  29:Generated_Source\PSoC5/CyDmac.c **** #include "CyDmac.h"
  30:Generated_Source\PSoC5/CyDmac.c **** 
ARM GAS  C:\Users\larco\AppData\Local\Temp\ccqyq8l8.s 			page 2


  31:Generated_Source\PSoC5/CyDmac.c **** 
  32:Generated_Source\PSoC5/CyDmac.c **** /*******************************************************************************
  33:Generated_Source\PSoC5/CyDmac.c **** * The following variables are initialized from CyDmacConfigure() function that
  34:Generated_Source\PSoC5/CyDmac.c **** * is executed from initialize_psoc() at the early initialization stage.
  35:Generated_Source\PSoC5/CyDmac.c **** * In case of IAR EW IDE, initialize_psoc() is executed before the data sections
  36:Generated_Source\PSoC5/CyDmac.c **** * are initialized. To avoid zeroing, these variables should be initialized
  37:Generated_Source\PSoC5/CyDmac.c **** * properly during segments initialization as well.
  38:Generated_Source\PSoC5/CyDmac.c **** *******************************************************************************/
  39:Generated_Source\PSoC5/CyDmac.c **** static uint8  CyDmaTdCurrentNumber = CY_DMA_NUMBEROF_TDS;           /* Current Number of free eleme
  40:Generated_Source\PSoC5/CyDmac.c **** static uint8  CyDmaTdFreeIndex = (uint8)(CY_DMA_NUMBEROF_TDS - 1u); /* Index of first available TD 
  41:Generated_Source\PSoC5/CyDmac.c **** static uint32 CyDmaChannels = DMA_CHANNELS_USED__MASK0;              /* Bit map of DMA channel owne
  42:Generated_Source\PSoC5/CyDmac.c **** 
  43:Generated_Source\PSoC5/CyDmac.c **** 
  44:Generated_Source\PSoC5/CyDmac.c **** /*******************************************************************************
  45:Generated_Source\PSoC5/CyDmac.c **** * Function Name: CyDmacConfigure
  46:Generated_Source\PSoC5/CyDmac.c **** ****************************************************************************//**
  47:Generated_Source\PSoC5/CyDmac.c **** *
  48:Generated_Source\PSoC5/CyDmac.c **** * Creates a linked list of all the TDs to be allocated. This function is called
  49:Generated_Source\PSoC5/CyDmac.c **** * by the startup code; you do not normally need to call it. You can call this
  50:Generated_Source\PSoC5/CyDmac.c **** * function if all of the DMA channels are inactive.
  51:Generated_Source\PSoC5/CyDmac.c **** *
  52:Generated_Source\PSoC5/CyDmac.c **** *******************************************************************************/
  53:Generated_Source\PSoC5/CyDmac.c **** void CyDmacConfigure(void) 
  54:Generated_Source\PSoC5/CyDmac.c **** {
  28              		.loc 1 54 0
  29              		.cfi_startproc
  30              		@ args = 0, pretend = 0, frame = 0
  31              		@ frame_needed = 0, uses_anonymous_args = 0
  32              		@ link register save eliminated.
  55:Generated_Source\PSoC5/CyDmac.c ****     uint8 dmaIndex;
  56:Generated_Source\PSoC5/CyDmac.c **** 
  57:Generated_Source\PSoC5/CyDmac.c ****     /* Set TD list variables. */
  58:Generated_Source\PSoC5/CyDmac.c ****     CyDmaTdFreeIndex     = (uint8)(CY_DMA_NUMBEROF_TDS - 1u);
  33              		.loc 1 58 0
  34 0000 7F20     		movs	r0, #127
  59:Generated_Source\PSoC5/CyDmac.c ****     CyDmaTdCurrentNumber = CY_DMA_NUMBEROF_TDS;
  60:Generated_Source\PSoC5/CyDmac.c **** 
  61:Generated_Source\PSoC5/CyDmac.c ****     /* Make TD free list. */
  62:Generated_Source\PSoC5/CyDmac.c ****     for(dmaIndex = (uint8)(CY_DMA_NUMBEROF_TDS - 1u); dmaIndex != 0u; dmaIndex--)
  35              		.loc 1 62 0
  36 0002 0346     		mov	r3, r0
  58:Generated_Source\PSoC5/CyDmac.c ****     CyDmaTdCurrentNumber = CY_DMA_NUMBEROF_TDS;
  37              		.loc 1 58 0
  38 0004 0749     		ldr	r1, .L6
  54:Generated_Source\PSoC5/CyDmac.c ****     uint8 dmaIndex;
  39              		.loc 1 54 0
  40 0006 10B4     		push	{r4}
  41              		.cfi_def_cfa_offset 4
  42              		.cfi_offset 4, -4
  59:Generated_Source\PSoC5/CyDmac.c ****     CyDmaTdCurrentNumber = CY_DMA_NUMBEROF_TDS;
  43              		.loc 1 59 0
  44 0008 074A     		ldr	r2, .L6+4
  45 000a 8024     		movs	r4, #128
  58:Generated_Source\PSoC5/CyDmac.c ****     CyDmaTdCurrentNumber = CY_DMA_NUMBEROF_TDS;
  46              		.loc 1 58 0
  47 000c 0870     		strb	r0, [r1]
  59:Generated_Source\PSoC5/CyDmac.c ****     CyDmaTdCurrentNumber = CY_DMA_NUMBEROF_TDS;
ARM GAS  C:\Users\larco\AppData\Local\Temp\ccqyq8l8.s 			page 3


  48              		.loc 1 59 0
  49 000e 4C70     		strb	r4, [r1, #1]
  50              	.LVL0:
  51              	.L2:
  63:Generated_Source\PSoC5/CyDmac.c ****     {
  64:Generated_Source\PSoC5/CyDmac.c ****         CY_DMA_TDMEM_STRUCT_PTR[dmaIndex].TD0[0u] = (uint8)(dmaIndex - 1u);
  52              		.loc 1 64 0 discriminator 3
  53 0010 013B     		subs	r3, r3, #1
  54              	.LVL1:
  55 0012 DBB2     		uxtb	r3, r3
  56 0014 02F80839 		strb	r3, [r2], #-8
  57              	.LVL2:
  62:Generated_Source\PSoC5/CyDmac.c ****     {
  58              		.loc 1 62 0 discriminator 3
  59 0018 002B     		cmp	r3, #0
  60 001a F9D1     		bne	.L2
  65:Generated_Source\PSoC5/CyDmac.c ****     }
  66:Generated_Source\PSoC5/CyDmac.c **** 
  67:Generated_Source\PSoC5/CyDmac.c ****     /* Make last one point to zero. */
  68:Generated_Source\PSoC5/CyDmac.c ****     CY_DMA_TDMEM_STRUCT_PTR[dmaIndex].TD0[0u] = 0u;
  61              		.loc 1 68 0
  62 001c 034A     		ldr	r2, .L6+8
  63 001e 1370     		strb	r3, [r2]
  69:Generated_Source\PSoC5/CyDmac.c **** }
  64              		.loc 1 69 0
  65 0020 10BC     		pop	{r4}
  66              		.cfi_restore 4
  67              		.cfi_def_cfa_offset 0
  68 0022 7047     		bx	lr
  69              	.L7:
  70              		.align	2
  71              	.L6:
  72 0024 00000000 		.word	.LANCHOR0
  73 0028 F87B0040 		.word	1073773560
  74 002c 00780040 		.word	1073772544
  75              		.cfi_endproc
  76              	.LFE0:
  77              		.size	CyDmacConfigure, .-CyDmacConfigure
  78              		.section	.text.CyDmacError,"ax",%progbits
  79              		.align	2
  80              		.global	CyDmacError
  81              		.thumb
  82              		.thumb_func
  83              		.type	CyDmacError, %function
  84              	CyDmacError:
  85              	.LFB1:
  70:Generated_Source\PSoC5/CyDmac.c **** 
  71:Generated_Source\PSoC5/CyDmac.c **** 
  72:Generated_Source\PSoC5/CyDmac.c **** /*******************************************************************************
  73:Generated_Source\PSoC5/CyDmac.c **** * Function Name: CyDmacError
  74:Generated_Source\PSoC5/CyDmac.c **** ****************************************************************************//**
  75:Generated_Source\PSoC5/CyDmac.c **** *
  76:Generated_Source\PSoC5/CyDmac.c **** *  Returns errors of the last failed DMA transaction.
  77:Generated_Source\PSoC5/CyDmac.c **** *
  78:Generated_Source\PSoC5/CyDmac.c **** * \return Errors of the last failed DMA transaction.
  79:Generated_Source\PSoC5/CyDmac.c **** *
  80:Generated_Source\PSoC5/CyDmac.c **** *  DMAC_PERIPH_ERR:
ARM GAS  C:\Users\larco\AppData\Local\Temp\ccqyq8l8.s 			page 4


  81:Generated_Source\PSoC5/CyDmac.c **** *   Set to 1 when a peripheral responds to a bus transaction with an error
  82:Generated_Source\PSoC5/CyDmac.c **** *   response.
  83:Generated_Source\PSoC5/CyDmac.c **** *
  84:Generated_Source\PSoC5/CyDmac.c **** *  DMAC_UNPOP_ACC:
  85:Generated_Source\PSoC5/CyDmac.c **** *   Set to 1 when an access is attempted to an invalid address.
  86:Generated_Source\PSoC5/CyDmac.c **** *
  87:Generated_Source\PSoC5/CyDmac.c **** *  DMAC_BUS_TIMEOUT:
  88:Generated_Source\PSoC5/CyDmac.c **** *   Set to 1 when a bus timeout occurs. Cleared by writing a 1. Timeout values
  89:Generated_Source\PSoC5/CyDmac.c **** *   are determined by the BUS_TIMEOUT field in the PHUBCFG register.
  90:Generated_Source\PSoC5/CyDmac.c **** *
  91:Generated_Source\PSoC5/CyDmac.c **** * Theory:
  92:Generated_Source\PSoC5/CyDmac.c **** *  Once an error occurs the error bits are sticky and are only cleared by
  93:Generated_Source\PSoC5/CyDmac.c **** *  writing 1 to the error register.
  94:Generated_Source\PSoC5/CyDmac.c **** *
  95:Generated_Source\PSoC5/CyDmac.c **** *******************************************************************************/
  96:Generated_Source\PSoC5/CyDmac.c **** uint8 CyDmacError(void) 
  97:Generated_Source\PSoC5/CyDmac.c **** {
  86              		.loc 1 97 0
  87              		.cfi_startproc
  88              		@ args = 0, pretend = 0, frame = 0
  89              		@ frame_needed = 0, uses_anonymous_args = 0
  90              		@ link register save eliminated.
  98:Generated_Source\PSoC5/CyDmac.c ****     return((uint8)(((uint32) 0x0Eu) & *CY_DMA_ERR_PTR));
  91              		.loc 1 98 0
  92 0000 024B     		ldr	r3, .L9
  93 0002 1868     		ldr	r0, [r3]
  99:Generated_Source\PSoC5/CyDmac.c **** }
  94              		.loc 1 99 0
  95 0004 00F00E00 		and	r0, r0, #14
  96 0008 7047     		bx	lr
  97              	.L10:
  98 000a 00BF     		.align	2
  99              	.L9:
 100 000c 04700040 		.word	1073770500
 101              		.cfi_endproc
 102              	.LFE1:
 103              		.size	CyDmacError, .-CyDmacError
 104              		.section	.text.CyDmacClearError,"ax",%progbits
 105              		.align	2
 106              		.global	CyDmacClearError
 107              		.thumb
 108              		.thumb_func
 109              		.type	CyDmacClearError, %function
 110              	CyDmacClearError:
 111              	.LFB2:
 100:Generated_Source\PSoC5/CyDmac.c **** 
 101:Generated_Source\PSoC5/CyDmac.c **** 
 102:Generated_Source\PSoC5/CyDmac.c **** /*******************************************************************************
 103:Generated_Source\PSoC5/CyDmac.c **** * Function Name: CyDmacClearError
 104:Generated_Source\PSoC5/CyDmac.c **** ****************************************************************************//**
 105:Generated_Source\PSoC5/CyDmac.c **** *
 106:Generated_Source\PSoC5/CyDmac.c **** *  Clears the error bits in the error register of the DMAC.
 107:Generated_Source\PSoC5/CyDmac.c **** *
 108:Generated_Source\PSoC5/CyDmac.c **** * \param error:
 109:Generated_Source\PSoC5/CyDmac.c **** *   Clears the error bits in the DMAC error register.
 110:Generated_Source\PSoC5/CyDmac.c **** *
 111:Generated_Source\PSoC5/CyDmac.c **** *  \param DMAC_PERIPH_ERR:
ARM GAS  C:\Users\larco\AppData\Local\Temp\ccqyq8l8.s 			page 5


 112:Generated_Source\PSoC5/CyDmac.c **** *   Set to 1 when a peripheral responds to a bus transaction with an error
 113:Generated_Source\PSoC5/CyDmac.c **** *   response.
 114:Generated_Source\PSoC5/CyDmac.c **** *
 115:Generated_Source\PSoC5/CyDmac.c **** *  \param DMAC_UNPOP_ACC:
 116:Generated_Source\PSoC5/CyDmac.c **** *   Set to 1 when an access is attempted to an invalid address.
 117:Generated_Source\PSoC5/CyDmac.c **** *
 118:Generated_Source\PSoC5/CyDmac.c **** *  \param DMAC_BUS_TIMEOUT:
 119:Generated_Source\PSoC5/CyDmac.c **** *   Set to 1 when a bus timeout occurs. Cleared by writing 1. Timeout values
 120:Generated_Source\PSoC5/CyDmac.c **** *   are determined by the BUS_TIMEOUT field in the PHUBCFG register.
 121:Generated_Source\PSoC5/CyDmac.c **** *
 122:Generated_Source\PSoC5/CyDmac.c **** * Theory:
 123:Generated_Source\PSoC5/CyDmac.c **** *  Once an error occurs the error bits are sticky and are only cleared by
 124:Generated_Source\PSoC5/CyDmac.c **** *  writing 1 to the error register.
 125:Generated_Source\PSoC5/CyDmac.c **** *
 126:Generated_Source\PSoC5/CyDmac.c **** *******************************************************************************/
 127:Generated_Source\PSoC5/CyDmac.c **** void CyDmacClearError(uint8 error) 
 128:Generated_Source\PSoC5/CyDmac.c **** {
 112              		.loc 1 128 0
 113              		.cfi_startproc
 114              		@ args = 0, pretend = 0, frame = 0
 115              		@ frame_needed = 0, uses_anonymous_args = 0
 116              		@ link register save eliminated.
 117              	.LVL3:
 129:Generated_Source\PSoC5/CyDmac.c ****     *CY_DMA_ERR_PTR = (((uint32)0x0Fu) & ((uint32)error));
 118              		.loc 1 129 0
 119 0000 024B     		ldr	r3, .L12
 120 0002 00F00F00 		and	r0, r0, #15
 121              	.LVL4:
 122 0006 1860     		str	r0, [r3]
 123 0008 7047     		bx	lr
 124              	.L13:
 125 000a 00BF     		.align	2
 126              	.L12:
 127 000c 04700040 		.word	1073770500
 128              		.cfi_endproc
 129              	.LFE2:
 130              		.size	CyDmacClearError, .-CyDmacClearError
 131              		.section	.text.CyDmacErrorAddress,"ax",%progbits
 132              		.align	2
 133              		.global	CyDmacErrorAddress
 134              		.thumb
 135              		.thumb_func
 136              		.type	CyDmacErrorAddress, %function
 137              	CyDmacErrorAddress:
 138              	.LFB3:
 130:Generated_Source\PSoC5/CyDmac.c **** }
 131:Generated_Source\PSoC5/CyDmac.c **** 
 132:Generated_Source\PSoC5/CyDmac.c **** 
 133:Generated_Source\PSoC5/CyDmac.c **** /*******************************************************************************
 134:Generated_Source\PSoC5/CyDmac.c **** * Function Name: CyDmacErrorAddress
 135:Generated_Source\PSoC5/CyDmac.c **** ****************************************************************************//**
 136:Generated_Source\PSoC5/CyDmac.c **** *
 137:Generated_Source\PSoC5/CyDmac.c **** *  When DMAC_BUS_TIMEOUT, DMAC_UNPOP_ACC, and DMAC_PERIPH_ERR occur the
 138:Generated_Source\PSoC5/CyDmac.c **** *  address of the error is written to the error address register and can be read
 139:Generated_Source\PSoC5/CyDmac.c **** *  with this function.
 140:Generated_Source\PSoC5/CyDmac.c **** *
 141:Generated_Source\PSoC5/CyDmac.c **** *  If there are multiple errors, only the address of the first is saved.
ARM GAS  C:\Users\larco\AppData\Local\Temp\ccqyq8l8.s 			page 6


 142:Generated_Source\PSoC5/CyDmac.c **** *
 143:Generated_Source\PSoC5/CyDmac.c **** * \return The address that caused the error.
 144:Generated_Source\PSoC5/CyDmac.c **** *
 145:Generated_Source\PSoC5/CyDmac.c **** *******************************************************************************/
 146:Generated_Source\PSoC5/CyDmac.c **** uint32 CyDmacErrorAddress(void) 
 147:Generated_Source\PSoC5/CyDmac.c **** {
 139              		.loc 1 147 0
 140              		.cfi_startproc
 141              		@ args = 0, pretend = 0, frame = 0
 142              		@ frame_needed = 0, uses_anonymous_args = 0
 143              		@ link register save eliminated.
 148:Generated_Source\PSoC5/CyDmac.c ****     return(CY_GET_REG32(CY_DMA_ERR_ADR_PTR));
 144              		.loc 1 148 0
 145 0000 014B     		ldr	r3, .L15
 146 0002 1868     		ldr	r0, [r3]
 149:Generated_Source\PSoC5/CyDmac.c **** }
 147              		.loc 1 149 0
 148 0004 7047     		bx	lr
 149              	.L16:
 150 0006 00BF     		.align	2
 151              	.L15:
 152 0008 08700040 		.word	1073770504
 153              		.cfi_endproc
 154              	.LFE3:
 155              		.size	CyDmacErrorAddress, .-CyDmacErrorAddress
 156              		.section	.text.CyDmaChAlloc,"ax",%progbits
 157              		.align	2
 158              		.global	CyDmaChAlloc
 159              		.thumb
 160              		.thumb_func
 161              		.type	CyDmaChAlloc, %function
 162              	CyDmaChAlloc:
 163              	.LFB4:
 150:Generated_Source\PSoC5/CyDmac.c **** 
 151:Generated_Source\PSoC5/CyDmac.c **** 
 152:Generated_Source\PSoC5/CyDmac.c **** /*******************************************************************************
 153:Generated_Source\PSoC5/CyDmac.c **** * Function Name: CyDmaChAlloc
 154:Generated_Source\PSoC5/CyDmac.c **** ****************************************************************************//**
 155:Generated_Source\PSoC5/CyDmac.c **** *
 156:Generated_Source\PSoC5/CyDmac.c **** *  Allocates a channel from the DMAC to be used in all functions that require a
 157:Generated_Source\PSoC5/CyDmac.c **** *  channel handle.
 158:Generated_Source\PSoC5/CyDmac.c **** *
 159:Generated_Source\PSoC5/CyDmac.c **** * \return The allocated channel number. Zero is a valid channel number.
 160:Generated_Source\PSoC5/CyDmac.c **** *  DMA_INVALID_CHANNEL is returned if there are no channels available.
 161:Generated_Source\PSoC5/CyDmac.c **** *
 162:Generated_Source\PSoC5/CyDmac.c **** *******************************************************************************/
 163:Generated_Source\PSoC5/CyDmac.c **** uint8 CyDmaChAlloc(void) 
 164:Generated_Source\PSoC5/CyDmac.c **** {
 164              		.loc 1 164 0
 165              		.cfi_startproc
 166              		@ args = 0, pretend = 0, frame = 0
 167              		@ frame_needed = 0, uses_anonymous_args = 0
 168              	.LVL5:
 169 0000 38B5     		push	{r3, r4, r5, lr}
 170              		.cfi_def_cfa_offset 16
 171              		.cfi_offset 3, -16
 172              		.cfi_offset 4, -12
ARM GAS  C:\Users\larco\AppData\Local\Temp\ccqyq8l8.s 			page 7


 173              		.cfi_offset 5, -8
 174              		.cfi_offset 14, -4
 175 0002 0D4D     		ldr	r5, .L24
 165:Generated_Source\PSoC5/CyDmac.c ****     uint8 interruptState;
 166:Generated_Source\PSoC5/CyDmac.c ****     uint8 dmaIndex;
 167:Generated_Source\PSoC5/CyDmac.c ****     uint32 channel = 1u;
 168:Generated_Source\PSoC5/CyDmac.c **** 
 169:Generated_Source\PSoC5/CyDmac.c **** 
 170:Generated_Source\PSoC5/CyDmac.c ****     /* Enter critical section! */
 171:Generated_Source\PSoC5/CyDmac.c ****     interruptState = CyEnterCriticalSection();
 176              		.loc 1 171 0
 177 0004 FFF7FEFF 		bl	CyEnterCriticalSection
 178              	.LVL6:
 179 0008 0023     		movs	r3, #0
 180 000a 6968     		ldr	r1, [r5, #4]
 167:Generated_Source\PSoC5/CyDmac.c **** 
 181              		.loc 1 167 0
 182 000c 0122     		movs	r2, #1
 183 000e 03E0     		b	.L20
 184              	.LVL7:
 185              	.L18:
 172:Generated_Source\PSoC5/CyDmac.c **** 
 173:Generated_Source\PSoC5/CyDmac.c ****     /* Look for free channel. */
 174:Generated_Source\PSoC5/CyDmac.c ****     for(dmaIndex = 0u; dmaIndex < CY_DMA_NUMBEROF_CHANNELS; dmaIndex++)
 186              		.loc 1 174 0 discriminator 2
 187 0010 182B     		cmp	r3, #24
 175:Generated_Source\PSoC5/CyDmac.c ****     {
 176:Generated_Source\PSoC5/CyDmac.c ****         if(0uL == (CyDmaChannels & channel))
 177:Generated_Source\PSoC5/CyDmac.c ****         {
 178:Generated_Source\PSoC5/CyDmac.c ****             /* Mark channel as used. */
 179:Generated_Source\PSoC5/CyDmac.c ****             CyDmaChannels |= channel;
 180:Generated_Source\PSoC5/CyDmac.c ****             break;
 181:Generated_Source\PSoC5/CyDmac.c ****         }
 182:Generated_Source\PSoC5/CyDmac.c **** 
 183:Generated_Source\PSoC5/CyDmac.c ****         channel <<= 1u;
 188              		.loc 1 183 0 discriminator 2
 189 0012 4FEA4202 		lsl	r2, r2, #1
 190              	.LVL8:
 174:Generated_Source\PSoC5/CyDmac.c ****     {
 191              		.loc 1 174 0 discriminator 2
 192 0016 0AD0     		beq	.L23
 193              	.LVL9:
 194              	.L20:
 176:Generated_Source\PSoC5/CyDmac.c ****         {
 195              		.loc 1 176 0
 196 0018 1142     		tst	r1, r2
 197 001a DCB2     		uxtb	r4, r3
 198              	.LVL10:
 199 001c 03F10103 		add	r3, r3, #1
 200 0020 F6D1     		bne	.L18
 179:Generated_Source\PSoC5/CyDmac.c ****             break;
 201              		.loc 1 179 0
 202 0022 0A43     		orrs	r2, r2, r1
 203              	.LVL11:
 204 0024 6A60     		str	r2, [r5, #4]
 184:Generated_Source\PSoC5/CyDmac.c ****     }
 185:Generated_Source\PSoC5/CyDmac.c **** 
ARM GAS  C:\Users\larco\AppData\Local\Temp\ccqyq8l8.s 			page 8


 186:Generated_Source\PSoC5/CyDmac.c ****     if(dmaIndex >= CY_DMA_NUMBEROF_CHANNELS)
 187:Generated_Source\PSoC5/CyDmac.c ****     {
 188:Generated_Source\PSoC5/CyDmac.c ****         dmaIndex = CY_DMA_INVALID_CHANNEL;
 189:Generated_Source\PSoC5/CyDmac.c ****     }
 190:Generated_Source\PSoC5/CyDmac.c **** 
 191:Generated_Source\PSoC5/CyDmac.c ****     /* Exit critical section! */
 192:Generated_Source\PSoC5/CyDmac.c ****     CyExitCriticalSection(interruptState);
 205              		.loc 1 192 0
 206 0026 FFF7FEFF 		bl	CyExitCriticalSection
 207              	.LVL12:
 193:Generated_Source\PSoC5/CyDmac.c **** 
 194:Generated_Source\PSoC5/CyDmac.c ****     return(dmaIndex);
 195:Generated_Source\PSoC5/CyDmac.c **** }
 208              		.loc 1 195 0
 209 002a 2046     		mov	r0, r4
 210 002c 38BD     		pop	{r3, r4, r5, pc}
 211              	.LVL13:
 212              	.L23:
 188:Generated_Source\PSoC5/CyDmac.c ****     }
 213              		.loc 1 188 0
 214 002e FF24     		movs	r4, #255
 215              	.LVL14:
 192:Generated_Source\PSoC5/CyDmac.c **** 
 216              		.loc 1 192 0
 217 0030 FFF7FEFF 		bl	CyExitCriticalSection
 218              	.LVL15:
 219              		.loc 1 195 0
 220 0034 2046     		mov	r0, r4
 221 0036 38BD     		pop	{r3, r4, r5, pc}
 222              	.LVL16:
 223              	.L25:
 224              		.align	2
 225              	.L24:
 226 0038 00000000 		.word	.LANCHOR0
 227              		.cfi_endproc
 228              	.LFE4:
 229              		.size	CyDmaChAlloc, .-CyDmaChAlloc
 230              		.section	.text.CyDmaChFree,"ax",%progbits
 231              		.align	2
 232              		.global	CyDmaChFree
 233              		.thumb
 234              		.thumb_func
 235              		.type	CyDmaChFree, %function
 236              	CyDmaChFree:
 237              	.LFB5:
 196:Generated_Source\PSoC5/CyDmac.c **** 
 197:Generated_Source\PSoC5/CyDmac.c **** 
 198:Generated_Source\PSoC5/CyDmac.c **** /*******************************************************************************
 199:Generated_Source\PSoC5/CyDmac.c **** * Function Name: CyDmaChFree
 200:Generated_Source\PSoC5/CyDmac.c **** ****************************************************************************//**
 201:Generated_Source\PSoC5/CyDmac.c **** *
 202:Generated_Source\PSoC5/CyDmac.c **** * Frees a channel allocated by \ref DmaChAlloc().
 203:Generated_Source\PSoC5/CyDmac.c **** *
 204:Generated_Source\PSoC5/CyDmac.c **** * \param chHandle The handle previously returned by \ref CyDmaChAlloc() or \ref
 205:Generated_Source\PSoC5/CyDmac.c **** * DMA_DmaInitalize().
 206:Generated_Source\PSoC5/CyDmac.c **** *
 207:Generated_Source\PSoC5/CyDmac.c **** * \return CYRET_SUCCESS if successful.
ARM GAS  C:\Users\larco\AppData\Local\Temp\ccqyq8l8.s 			page 9


 208:Generated_Source\PSoC5/CyDmac.c **** * \return CYRET_BAD_PARAM if chHandle is invalid.
 209:Generated_Source\PSoC5/CyDmac.c **** *
 210:Generated_Source\PSoC5/CyDmac.c **** *******************************************************************************/
 211:Generated_Source\PSoC5/CyDmac.c **** cystatus CyDmaChFree(uint8 chHandle) 
 212:Generated_Source\PSoC5/CyDmac.c **** {
 238              		.loc 1 212 0
 239              		.cfi_startproc
 240              		@ args = 0, pretend = 0, frame = 0
 241              		@ frame_needed = 0, uses_anonymous_args = 0
 242              	.LVL17:
 213:Generated_Source\PSoC5/CyDmac.c ****     cystatus status = CYRET_BAD_PARAM;
 214:Generated_Source\PSoC5/CyDmac.c ****     uint8 interruptState;
 215:Generated_Source\PSoC5/CyDmac.c **** 
 216:Generated_Source\PSoC5/CyDmac.c ****     if(chHandle < CY_DMA_NUMBEROF_CHANNELS)
 243              		.loc 1 216 0
 244 0000 1728     		cmp	r0, #23
 245 0002 01D9     		bls	.L31
 213:Generated_Source\PSoC5/CyDmac.c ****     cystatus status = CYRET_BAD_PARAM;
 246              		.loc 1 213 0
 247 0004 0120     		movs	r0, #1
 248              	.LVL18:
 249 0006 7047     		bx	lr
 250              	.LVL19:
 251              	.L31:
 212:Generated_Source\PSoC5/CyDmac.c ****     cystatus status = CYRET_BAD_PARAM;
 252              		.loc 1 212 0
 253 0008 10B5     		push	{r4, lr}
 254              		.cfi_def_cfa_offset 8
 255              		.cfi_offset 4, -8
 256              		.cfi_offset 14, -4
 257 000a 0446     		mov	r4, r0
 217:Generated_Source\PSoC5/CyDmac.c ****     {
 218:Generated_Source\PSoC5/CyDmac.c ****         /* Enter critical section */
 219:Generated_Source\PSoC5/CyDmac.c ****         interruptState = CyEnterCriticalSection();
 258              		.loc 1 219 0
 259 000c FFF7FEFF 		bl	CyEnterCriticalSection
 260              	.LVL20:
 220:Generated_Source\PSoC5/CyDmac.c **** 
 221:Generated_Source\PSoC5/CyDmac.c ****         /* Clear bit mask that keeps track of ownership. */
 222:Generated_Source\PSoC5/CyDmac.c ****         CyDmaChannels &= ~(((uint32) 1u) << chHandle);
 261              		.loc 1 222 0
 262 0010 0549     		ldr	r1, .L32
 263 0012 0122     		movs	r2, #1
 264 0014 4B68     		ldr	r3, [r1, #4]
 265 0016 02FA04F4 		lsl	r4, r2, r4
 266 001a 23EA0403 		bic	r3, r3, r4
 267 001e 4B60     		str	r3, [r1, #4]
 223:Generated_Source\PSoC5/CyDmac.c **** 
 224:Generated_Source\PSoC5/CyDmac.c ****         /* Exit critical section */
 225:Generated_Source\PSoC5/CyDmac.c ****         CyExitCriticalSection(interruptState);
 268              		.loc 1 225 0
 269 0020 FFF7FEFF 		bl	CyExitCriticalSection
 270              	.LVL21:
 226:Generated_Source\PSoC5/CyDmac.c ****         status = CYRET_SUCCESS;
 271              		.loc 1 226 0
 272 0024 0020     		movs	r0, #0
 273 0026 10BD     		pop	{r4, pc}
ARM GAS  C:\Users\larco\AppData\Local\Temp\ccqyq8l8.s 			page 10


 274              	.L33:
 275              		.align	2
 276              	.L32:
 277 0028 00000000 		.word	.LANCHOR0
 278              		.cfi_endproc
 279              	.LFE5:
 280              		.size	CyDmaChFree, .-CyDmaChFree
 281              		.section	.text.CyDmaChEnable,"ax",%progbits
 282              		.align	2
 283              		.global	CyDmaChEnable
 284              		.thumb
 285              		.thumb_func
 286              		.type	CyDmaChEnable, %function
 287              	CyDmaChEnable:
 288              	.LFB6:
 227:Generated_Source\PSoC5/CyDmac.c ****     }
 228:Generated_Source\PSoC5/CyDmac.c **** 
 229:Generated_Source\PSoC5/CyDmac.c ****     return(status);
 230:Generated_Source\PSoC5/CyDmac.c **** }
 231:Generated_Source\PSoC5/CyDmac.c **** 
 232:Generated_Source\PSoC5/CyDmac.c **** 
 233:Generated_Source\PSoC5/CyDmac.c **** /*******************************************************************************
 234:Generated_Source\PSoC5/CyDmac.c **** * Function Name: CyDmaChEnable
 235:Generated_Source\PSoC5/CyDmac.c **** ****************************************************************************//**
 236:Generated_Source\PSoC5/CyDmac.c **** *
 237:Generated_Source\PSoC5/CyDmac.c **** *  Enables the DMA channel. A software or hardware request still must happen
 238:Generated_Source\PSoC5/CyDmac.c **** *  before the channel is executed.
 239:Generated_Source\PSoC5/CyDmac.c **** *
 240:Generated_Source\PSoC5/CyDmac.c **** *  \param chHandle A handle previously returned by \ref CyDmaChAlloc() or \ref
 241:Generated_Source\PSoC5/CyDmac.c **** *  DMA_DmaInitalize().
 242:Generated_Source\PSoC5/CyDmac.c **** *
 243:Generated_Source\PSoC5/CyDmac.c **** *  \param preserveTds Preserves the original TD state when the TD has completed.
 244:Generated_Source\PSoC5/CyDmac.c **** *  This parameter applies to all TDs in the channel.
 245:Generated_Source\PSoC5/CyDmac.c **** *
 246:Generated_Source\PSoC5/CyDmac.c **** *   0 - When TD is completed, the DMAC leaves the TD configuration values in
 247:Generated_Source\PSoC5/CyDmac.c **** *   their current state, and does not restore them to their original state.
 248:Generated_Source\PSoC5/CyDmac.c **** *
 249:Generated_Source\PSoC5/CyDmac.c **** *   1 - When TD is completed, the DMAC restores the original configuration
 250:Generated_Source\PSoC5/CyDmac.c **** *   values of the TD.
 251:Generated_Source\PSoC5/CyDmac.c **** *
 252:Generated_Source\PSoC5/CyDmac.c **** *  When preserveTds is set, the TD slot that equals the channel number becomes
 253:Generated_Source\PSoC5/CyDmac.c **** *  RESERVED and that becomes where the working registers exist. So, for example,
 254:Generated_Source\PSoC5/CyDmac.c **** *  if you are using CH06 and preserveTds is set, you are not allowed to use TD
 255:Generated_Source\PSoC5/CyDmac.c **** *  slot 6. That is reclaimed by the DMA engine for its private use.
 256:Generated_Source\PSoC5/CyDmac.c **** *
 257:Generated_Source\PSoC5/CyDmac.c **** *  \note Do not chain back to a completed TD if the preserveTds for the channel
 258:Generated_Source\PSoC5/CyDmac.c **** *  is set to 0. When a TD has completed preserveTds for the channel set to 0,
 259:Generated_Source\PSoC5/CyDmac.c **** *  the transfer count will be at 0. If a TD with a transfer count of 0 is
 260:Generated_Source\PSoC5/CyDmac.c **** *  started, the TD will transfer an indefinite amount of data.
 261:Generated_Source\PSoC5/CyDmac.c **** *
 262:Generated_Source\PSoC5/CyDmac.c **** *  Take extra precautions when using the hardware request (DRQ) option when the
 263:Generated_Source\PSoC5/CyDmac.c **** *  preserveTds is set to 0, as you might be requesting the wrong data.
 264:Generated_Source\PSoC5/CyDmac.c **** *
 265:Generated_Source\PSoC5/CyDmac.c **** * \return CYRET_SUCCESS if successful.
 266:Generated_Source\PSoC5/CyDmac.c **** * \return CYRET_BAD_PARAM if chHandle is invalid.
 267:Generated_Source\PSoC5/CyDmac.c **** *
 268:Generated_Source\PSoC5/CyDmac.c **** *******************************************************************************/
ARM GAS  C:\Users\larco\AppData\Local\Temp\ccqyq8l8.s 			page 11


 269:Generated_Source\PSoC5/CyDmac.c **** cystatus CyDmaChEnable(uint8 chHandle, uint8 preserveTds) 
 270:Generated_Source\PSoC5/CyDmac.c **** {
 289              		.loc 1 270 0
 290              		.cfi_startproc
 291              		@ args = 0, pretend = 0, frame = 0
 292              		@ frame_needed = 0, uses_anonymous_args = 0
 293              		@ link register save eliminated.
 294              	.LVL22:
 271:Generated_Source\PSoC5/CyDmac.c ****     cystatus status = CYRET_BAD_PARAM;
 272:Generated_Source\PSoC5/CyDmac.c **** 
 273:Generated_Source\PSoC5/CyDmac.c ****     if(chHandle < CY_DMA_NUMBEROF_CHANNELS)
 295              		.loc 1 273 0
 296 0000 1728     		cmp	r0, #23
 297 0002 17D8     		bhi	.L38
 274:Generated_Source\PSoC5/CyDmac.c ****     {
 275:Generated_Source\PSoC5/CyDmac.c ****         if (0u != preserveTds)
 298              		.loc 1 275 0
 299 0004 69B9     		cbnz	r1, .L39
 276:Generated_Source\PSoC5/CyDmac.c ****         {
 277:Generated_Source\PSoC5/CyDmac.c ****             /* Store intermediate TD states separately in CHn_SEP_TD0/1 to
 278:Generated_Source\PSoC5/CyDmac.c ****             *  preserve original TD chain
 279:Generated_Source\PSoC5/CyDmac.c ****             */
 280:Generated_Source\PSoC5/CyDmac.c ****             CY_DMA_CH_STRUCT_PTR[chHandle].basic_cfg[0u] |= CY_DMA_CH_BASIC_CFG_WORK_SEP;
 281:Generated_Source\PSoC5/CyDmac.c ****         }
 282:Generated_Source\PSoC5/CyDmac.c ****         else
 283:Generated_Source\PSoC5/CyDmac.c ****         {
 284:Generated_Source\PSoC5/CyDmac.c ****             /* Store intermediate and final TD states on top of original TD chain */
 285:Generated_Source\PSoC5/CyDmac.c ****             CY_DMA_CH_STRUCT_PTR[chHandle].basic_cfg[0u] &= (uint8)(~CY_DMA_CH_BASIC_CFG_WORK_SEP);
 300              		.loc 1 285 0
 301 0006 0C49     		ldr	r1, .L40
 302              	.LVL23:
 303 0008 0001     		lsls	r0, r0, #4
 304              	.LVL24:
 305 000a 0B46     		mov	r3, r1
 306 000c 425C     		ldrb	r2, [r0, r1]	@ zero_extendqisi2
 307 000e 0344     		add	r3, r3, r0
 308 0010 02F0DF02 		and	r2, r2, #223
 309 0014 4254     		strb	r2, [r0, r1]
 310              	.L37:
 286:Generated_Source\PSoC5/CyDmac.c ****         }
 287:Generated_Source\PSoC5/CyDmac.c **** 
 288:Generated_Source\PSoC5/CyDmac.c ****         /* Enable channel */
 289:Generated_Source\PSoC5/CyDmac.c ****         CY_DMA_CH_STRUCT_PTR[chHandle].basic_cfg[0u] |= CY_DMA_CH_BASIC_CFG_EN;
 311              		.loc 1 289 0
 312 0016 1A78     		ldrb	r2, [r3]	@ zero_extendqisi2
 290:Generated_Source\PSoC5/CyDmac.c **** 
 291:Generated_Source\PSoC5/CyDmac.c ****         status = CYRET_SUCCESS;
 313              		.loc 1 291 0
 314 0018 0020     		movs	r0, #0
 289:Generated_Source\PSoC5/CyDmac.c **** 
 315              		.loc 1 289 0
 316 001a 42F00102 		orr	r2, r2, #1
 317 001e 1A70     		strb	r2, [r3]
 318              	.LVL25:
 319 0020 7047     		bx	lr
 320              	.LVL26:
 321              	.L39:
ARM GAS  C:\Users\larco\AppData\Local\Temp\ccqyq8l8.s 			page 12


 280:Generated_Source\PSoC5/CyDmac.c ****         }
 322              		.loc 1 280 0
 323 0022 0549     		ldr	r1, .L40
 324              	.LVL27:
 325 0024 0001     		lsls	r0, r0, #4
 326              	.LVL28:
 327 0026 0B46     		mov	r3, r1
 328 0028 425C     		ldrb	r2, [r0, r1]	@ zero_extendqisi2
 329 002a 0344     		add	r3, r3, r0
 330 002c 42F02002 		orr	r2, r2, #32
 331 0030 4254     		strb	r2, [r0, r1]
 332 0032 F0E7     		b	.L37
 333              	.LVL29:
 334              	.L38:
 271:Generated_Source\PSoC5/CyDmac.c **** 
 335              		.loc 1 271 0
 336 0034 0120     		movs	r0, #1
 337              	.LVL30:
 292:Generated_Source\PSoC5/CyDmac.c ****     }
 293:Generated_Source\PSoC5/CyDmac.c **** 
 294:Generated_Source\PSoC5/CyDmac.c ****     return(status);
 295:Generated_Source\PSoC5/CyDmac.c **** }
 338              		.loc 1 295 0
 339 0036 7047     		bx	lr
 340              	.L41:
 341              		.align	2
 342              	.L40:
 343 0038 10700040 		.word	1073770512
 344              		.cfi_endproc
 345              	.LFE6:
 346              		.size	CyDmaChEnable, .-CyDmaChEnable
 347              		.section	.text.CyDmaChDisable,"ax",%progbits
 348              		.align	2
 349              		.global	CyDmaChDisable
 350              		.thumb
 351              		.thumb_func
 352              		.type	CyDmaChDisable, %function
 353              	CyDmaChDisable:
 354              	.LFB7:
 296:Generated_Source\PSoC5/CyDmac.c **** 
 297:Generated_Source\PSoC5/CyDmac.c **** 
 298:Generated_Source\PSoC5/CyDmac.c **** /*******************************************************************************
 299:Generated_Source\PSoC5/CyDmac.c **** * Function Name: CyDmaChDisable
 300:Generated_Source\PSoC5/CyDmac.c **** ****************************************************************************//**
 301:Generated_Source\PSoC5/CyDmac.c **** *
 302:Generated_Source\PSoC5/CyDmac.c **** * Disables the DMA channel. Once this function is called, CyDmaChStatus() may
 303:Generated_Source\PSoC5/CyDmac.c **** * be called to determine when the channel is disabled and which TDs were being
 304:Generated_Source\PSoC5/CyDmac.c **** * executed.
 305:Generated_Source\PSoC5/CyDmac.c **** *
 306:Generated_Source\PSoC5/CyDmac.c **** * If it is currently executing it will allow the current burst to finish
 307:Generated_Source\PSoC5/CyDmac.c **** * naturally.
 308:Generated_Source\PSoC5/CyDmac.c **** *
 309:Generated_Source\PSoC5/CyDmac.c **** * \param chHandle A handle previously returned by \ref CyDmaChAlloc() or \ref
 310:Generated_Source\PSoC5/CyDmac.c **** * DMA_DmaInitalize().
 311:Generated_Source\PSoC5/CyDmac.c **** *
 312:Generated_Source\PSoC5/CyDmac.c **** * \return CYRET_SUCCESS if successful.
 313:Generated_Source\PSoC5/CyDmac.c **** * \return CYRET_BAD_PARAM if chHandle is invalid.
ARM GAS  C:\Users\larco\AppData\Local\Temp\ccqyq8l8.s 			page 13


 314:Generated_Source\PSoC5/CyDmac.c **** *
 315:Generated_Source\PSoC5/CyDmac.c **** *******************************************************************************/
 316:Generated_Source\PSoC5/CyDmac.c **** cystatus CyDmaChDisable(uint8 chHandle) 
 317:Generated_Source\PSoC5/CyDmac.c **** {
 355              		.loc 1 317 0
 356              		.cfi_startproc
 357              		@ args = 0, pretend = 0, frame = 0
 358              		@ frame_needed = 0, uses_anonymous_args = 0
 359              		@ link register save eliminated.
 360              	.LVL31:
 318:Generated_Source\PSoC5/CyDmac.c ****     cystatus status = CYRET_BAD_PARAM;
 319:Generated_Source\PSoC5/CyDmac.c **** 
 320:Generated_Source\PSoC5/CyDmac.c ****     if(chHandle < CY_DMA_NUMBEROF_CHANNELS)
 361              		.loc 1 320 0
 362 0000 1728     		cmp	r0, #23
 363 0002 0BD8     		bhi	.L44
 321:Generated_Source\PSoC5/CyDmac.c ****     {
 322:Generated_Source\PSoC5/CyDmac.c ****         /***********************************************************************
 323:Generated_Source\PSoC5/CyDmac.c ****         * Should not change configuration information of a DMA channel when it
 324:Generated_Source\PSoC5/CyDmac.c ****         * is active (or vulnerable to becoming active).
 325:Generated_Source\PSoC5/CyDmac.c ****         ***********************************************************************/
 326:Generated_Source\PSoC5/CyDmac.c **** 
 327:Generated_Source\PSoC5/CyDmac.c ****         /* Disable channel */
 328:Generated_Source\PSoC5/CyDmac.c ****         CY_DMA_CH_STRUCT_PTR[chHandle].basic_cfg[0] &= ((uint8) (~CY_DMA_CH_BASIC_CFG_EN));
 364              		.loc 1 328 0
 365 0004 064A     		ldr	r2, .L45
 366 0006 0301     		lsls	r3, r0, #4
 367 0008 995C     		ldrb	r1, [r3, r2]	@ zero_extendqisi2
 329:Generated_Source\PSoC5/CyDmac.c **** 
 330:Generated_Source\PSoC5/CyDmac.c ****         /* Store intermediate and final TD states on top of original TD chain */
 331:Generated_Source\PSoC5/CyDmac.c ****         CY_DMA_CH_STRUCT_PTR[chHandle].basic_cfg[0] &= ((uint8) (~CY_DMA_CH_BASIC_CFG_WORK_SEP));
 332:Generated_Source\PSoC5/CyDmac.c ****         status = CYRET_SUCCESS;
 368              		.loc 1 332 0
 369 000a 0020     		movs	r0, #0
 370              	.LVL32:
 328:Generated_Source\PSoC5/CyDmac.c **** 
 371              		.loc 1 328 0
 372 000c 01F0FE01 		and	r1, r1, #254
 373 0010 9954     		strb	r1, [r3, r2]
 331:Generated_Source\PSoC5/CyDmac.c ****         status = CYRET_SUCCESS;
 374              		.loc 1 331 0
 375 0012 995C     		ldrb	r1, [r3, r2]	@ zero_extendqisi2
 376 0014 01F0DF01 		and	r1, r1, #223
 377 0018 9954     		strb	r1, [r3, r2]
 378              	.LVL33:
 379 001a 7047     		bx	lr
 380              	.LVL34:
 381              	.L44:
 318:Generated_Source\PSoC5/CyDmac.c **** 
 382              		.loc 1 318 0
 383 001c 0120     		movs	r0, #1
 384              	.LVL35:
 333:Generated_Source\PSoC5/CyDmac.c ****     }
 334:Generated_Source\PSoC5/CyDmac.c **** 
 335:Generated_Source\PSoC5/CyDmac.c ****     return(status);
 336:Generated_Source\PSoC5/CyDmac.c **** }
 385              		.loc 1 336 0
ARM GAS  C:\Users\larco\AppData\Local\Temp\ccqyq8l8.s 			page 14


 386 001e 7047     		bx	lr
 387              	.L46:
 388              		.align	2
 389              	.L45:
 390 0020 10700040 		.word	1073770512
 391              		.cfi_endproc
 392              	.LFE7:
 393              		.size	CyDmaChDisable, .-CyDmaChDisable
 394              		.section	.text.CyDmaClearPendingDrq,"ax",%progbits
 395              		.align	2
 396              		.global	CyDmaClearPendingDrq
 397              		.thumb
 398              		.thumb_func
 399              		.type	CyDmaClearPendingDrq, %function
 400              	CyDmaClearPendingDrq:
 401              	.LFB8:
 337:Generated_Source\PSoC5/CyDmac.c **** 
 338:Generated_Source\PSoC5/CyDmac.c **** 
 339:Generated_Source\PSoC5/CyDmac.c **** /*******************************************************************************
 340:Generated_Source\PSoC5/CyDmac.c **** * Function Name: CyDmaClearPendingDrq
 341:Generated_Source\PSoC5/CyDmac.c **** ****************************************************************************//**
 342:Generated_Source\PSoC5/CyDmac.c **** *
 343:Generated_Source\PSoC5/CyDmac.c **** * Clears pending the DMA data request.
 344:Generated_Source\PSoC5/CyDmac.c **** *
 345:Generated_Source\PSoC5/CyDmac.c **** * \param chHandle Handle to the dma channel.
 346:Generated_Source\PSoC5/CyDmac.c **** *
 347:Generated_Source\PSoC5/CyDmac.c **** * \return CYRET_SUCCESS if successful.
 348:Generated_Source\PSoC5/CyDmac.c **** * \return CYRET_BAD_PARAM if chHandle is invalid.
 349:Generated_Source\PSoC5/CyDmac.c **** *
 350:Generated_Source\PSoC5/CyDmac.c **** *******************************************************************************/
 351:Generated_Source\PSoC5/CyDmac.c **** cystatus CyDmaClearPendingDrq(uint8 chHandle) 
 352:Generated_Source\PSoC5/CyDmac.c **** {
 402              		.loc 1 352 0
 403              		.cfi_startproc
 404              		@ args = 0, pretend = 0, frame = 0
 405              		@ frame_needed = 0, uses_anonymous_args = 0
 406              		@ link register save eliminated.
 407              	.LVL36:
 353:Generated_Source\PSoC5/CyDmac.c ****     cystatus status = CYRET_BAD_PARAM;
 354:Generated_Source\PSoC5/CyDmac.c **** 
 355:Generated_Source\PSoC5/CyDmac.c ****     if(chHandle < CY_DMA_NUMBEROF_CHANNELS)
 408              		.loc 1 355 0
 409 0000 1728     		cmp	r0, #23
 410 0002 0FD8     		bhi	.L49
 352:Generated_Source\PSoC5/CyDmac.c ****     cystatus status = CYRET_BAD_PARAM;
 411              		.loc 1 352 0
 412 0004 10B4     		push	{r4}
 413              		.cfi_def_cfa_offset 4
 414              		.cfi_offset 4, -4
 356:Generated_Source\PSoC5/CyDmac.c ****     {
 357:Generated_Source\PSoC5/CyDmac.c ****         CY_DMA_CH_STRUCT_PTR[chHandle].action[0] |= CY_DMA_CPU_TERM_CHAIN;
 415              		.loc 1 357 0
 416 0006 084A     		ldr	r2, .L52
 417 0008 0301     		lsls	r3, r0, #4
 418 000a 1A44     		add	r2, r2, r3
 419 000c 1179     		ldrb	r1, [r2, #4]	@ zero_extendqisi2
 420 000e 064C     		ldr	r4, .L52
ARM GAS  C:\Users\larco\AppData\Local\Temp\ccqyq8l8.s 			page 15


 421 0010 41F00401 		orr	r1, r1, #4
 422 0014 1171     		strb	r1, [r2, #4]
 358:Generated_Source\PSoC5/CyDmac.c ****         CY_DMA_CH_STRUCT_PTR[chHandle].basic_cfg[0] |= 0x01u;
 423              		.loc 1 358 0
 424 0016 1A5D     		ldrb	r2, [r3, r4]	@ zero_extendqisi2
 359:Generated_Source\PSoC5/CyDmac.c ****         status = CYRET_SUCCESS;
 425              		.loc 1 359 0
 426 0018 0020     		movs	r0, #0
 427              	.LVL37:
 358:Generated_Source\PSoC5/CyDmac.c ****         CY_DMA_CH_STRUCT_PTR[chHandle].basic_cfg[0] |= 0x01u;
 428              		.loc 1 358 0
 429 001a 42F00102 		orr	r2, r2, #1
 430 001e 1A55     		strb	r2, [r3, r4]
 431              	.LVL38:
 360:Generated_Source\PSoC5/CyDmac.c ****     }
 361:Generated_Source\PSoC5/CyDmac.c **** 
 362:Generated_Source\PSoC5/CyDmac.c ****     return(status);
 363:Generated_Source\PSoC5/CyDmac.c **** }
 432              		.loc 1 363 0
 433 0020 10BC     		pop	{r4}
 434              		.cfi_restore 4
 435              		.cfi_def_cfa_offset 0
 436 0022 7047     		bx	lr
 437              	.LVL39:
 438              	.L49:
 353:Generated_Source\PSoC5/CyDmac.c **** 
 439              		.loc 1 353 0
 440 0024 0120     		movs	r0, #1
 441              	.LVL40:
 442 0026 7047     		bx	lr
 443              	.L53:
 444              		.align	2
 445              	.L52:
 446 0028 10700040 		.word	1073770512
 447              		.cfi_endproc
 448              	.LFE8:
 449              		.size	CyDmaClearPendingDrq, .-CyDmaClearPendingDrq
 450              		.section	.text.CyDmaChPriority,"ax",%progbits
 451              		.align	2
 452              		.global	CyDmaChPriority
 453              		.thumb
 454              		.thumb_func
 455              		.type	CyDmaChPriority, %function
 456              	CyDmaChPriority:
 457              	.LFB9:
 364:Generated_Source\PSoC5/CyDmac.c **** 
 365:Generated_Source\PSoC5/CyDmac.c **** 
 366:Generated_Source\PSoC5/CyDmac.c **** /*******************************************************************************
 367:Generated_Source\PSoC5/CyDmac.c **** * Function Name: CyDmaChPriority
 368:Generated_Source\PSoC5/CyDmac.c **** ****************************************************************************//**
 369:Generated_Source\PSoC5/CyDmac.c **** *
 370:Generated_Source\PSoC5/CyDmac.c **** *  Sets the priority of a DMA channel. You can use this function when you want
 371:Generated_Source\PSoC5/CyDmac.c **** *  to change the priority at run time. If the priority remains the same for a
 372:Generated_Source\PSoC5/CyDmac.c **** *  DMA channel, then you can configure the priority in the .cydwr file.
 373:Generated_Source\PSoC5/CyDmac.c **** *
 374:Generated_Source\PSoC5/CyDmac.c **** *  \param chHandle A handle previously returned by \ref CyDmaChAlloc() or \ref
 375:Generated_Source\PSoC5/CyDmac.c **** *  DMA_DmaInitalize().
ARM GAS  C:\Users\larco\AppData\Local\Temp\ccqyq8l8.s 			page 16


 376:Generated_Source\PSoC5/CyDmac.c **** *
 377:Generated_Source\PSoC5/CyDmac.c **** *  \param priority Priority to set the channel to, 0 - 7.
 378:Generated_Source\PSoC5/CyDmac.c **** *
 379:Generated_Source\PSoC5/CyDmac.c **** * \return CYRET_SUCCESS if successful.
 380:Generated_Source\PSoC5/CyDmac.c **** *  \return CYRET_BAD_PARAM if chHandle is invalid.
 381:Generated_Source\PSoC5/CyDmac.c **** *
 382:Generated_Source\PSoC5/CyDmac.c **** *******************************************************************************/
 383:Generated_Source\PSoC5/CyDmac.c **** cystatus CyDmaChPriority(uint8 chHandle, uint8 priority) 
 384:Generated_Source\PSoC5/CyDmac.c **** {
 458              		.loc 1 384 0
 459              		.cfi_startproc
 460              		@ args = 0, pretend = 0, frame = 0
 461              		@ frame_needed = 0, uses_anonymous_args = 0
 462              		@ link register save eliminated.
 463              	.LVL41:
 385:Generated_Source\PSoC5/CyDmac.c ****     uint8 value;
 386:Generated_Source\PSoC5/CyDmac.c ****     cystatus status = CYRET_BAD_PARAM;
 387:Generated_Source\PSoC5/CyDmac.c **** 
 388:Generated_Source\PSoC5/CyDmac.c ****     if(chHandle < CY_DMA_NUMBEROF_CHANNELS)
 464              		.loc 1 388 0
 465 0000 1728     		cmp	r0, #23
 466 0002 0BD8     		bhi	.L56
 389:Generated_Source\PSoC5/CyDmac.c ****     {
 390:Generated_Source\PSoC5/CyDmac.c ****         value = CY_DMA_CH_STRUCT_PTR[chHandle].basic_cfg[0u] & ((uint8)(~(0x0Eu)));
 467              		.loc 1 390 0
 468 0004 064A     		ldr	r2, .L57
 469 0006 0001     		lsls	r0, r0, #4
 470              	.LVL42:
 471 0008 835C     		ldrb	r3, [r0, r2]	@ zero_extendqisi2
 472              	.LVL43:
 391:Generated_Source\PSoC5/CyDmac.c **** 
 392:Generated_Source\PSoC5/CyDmac.c ****         CY_DMA_CH_STRUCT_PTR[chHandle].basic_cfg[0u] = value | ((uint8) ((priority & 0x7u) << 0x01u
 473              		.loc 1 392 0
 474 000a 4900     		lsls	r1, r1, #1
 475              	.LVL44:
 476 000c 03F0F103 		and	r3, r3, #241
 477              	.LVL45:
 478 0010 01F00E01 		and	r1, r1, #14
 479 0014 1943     		orrs	r1, r1, r3
 480 0016 8154     		strb	r1, [r0, r2]
 481              	.LVL46:
 393:Generated_Source\PSoC5/CyDmac.c **** 
 394:Generated_Source\PSoC5/CyDmac.c ****         status = CYRET_SUCCESS;
 482              		.loc 1 394 0
 483 0018 0020     		movs	r0, #0
 484 001a 7047     		bx	lr
 485              	.LVL47:
 486              	.L56:
 386:Generated_Source\PSoC5/CyDmac.c **** 
 487              		.loc 1 386 0
 488 001c 0120     		movs	r0, #1
 489              	.LVL48:
 395:Generated_Source\PSoC5/CyDmac.c ****     }
 396:Generated_Source\PSoC5/CyDmac.c **** 
 397:Generated_Source\PSoC5/CyDmac.c ****     return(status);
 398:Generated_Source\PSoC5/CyDmac.c **** }
 490              		.loc 1 398 0
ARM GAS  C:\Users\larco\AppData\Local\Temp\ccqyq8l8.s 			page 17


 491 001e 7047     		bx	lr
 492              	.L58:
 493              		.align	2
 494              	.L57:
 495 0020 10700040 		.word	1073770512
 496              		.cfi_endproc
 497              	.LFE9:
 498              		.size	CyDmaChPriority, .-CyDmaChPriority
 499              		.section	.text.CyDmaChSetExtendedAddress,"ax",%progbits
 500              		.align	2
 501              		.global	CyDmaChSetExtendedAddress
 502              		.thumb
 503              		.thumb_func
 504              		.type	CyDmaChSetExtendedAddress, %function
 505              	CyDmaChSetExtendedAddress:
 506              	.LFB10:
 399:Generated_Source\PSoC5/CyDmac.c **** 
 400:Generated_Source\PSoC5/CyDmac.c **** 
 401:Generated_Source\PSoC5/CyDmac.c **** /*******************************************************************************
 402:Generated_Source\PSoC5/CyDmac.c **** * Function Name: CyDmaChSetExtendedAddress
 403:Generated_Source\PSoC5/CyDmac.c **** ****************************************************************************//**
 404:Generated_Source\PSoC5/CyDmac.c **** *
 405:Generated_Source\PSoC5/CyDmac.c **** *  Sets the high 16 bits of the source and destination addresses for the DMA
 406:Generated_Source\PSoC5/CyDmac.c **** *  channel (valid for all TDs in the chain).
 407:Generated_Source\PSoC5/CyDmac.c **** *
 408:Generated_Source\PSoC5/CyDmac.c **** *  \param chHandle A handle previously returned by \ref CyDmaChAlloc() or \ref
 409:Generated_Source\PSoC5/CyDmac.c **** *  DMA_DmaInitalize().
 410:Generated_Source\PSoC5/CyDmac.c **** *
 411:Generated_Source\PSoC5/CyDmac.c **** *  \param source Upper 16 bit address of the DMA transfer source.
 412:Generated_Source\PSoC5/CyDmac.c **** *
 413:Generated_Source\PSoC5/CyDmac.c **** *  \param destination Upper 16 bit address of the DMA transfer destination.
 414:Generated_Source\PSoC5/CyDmac.c **** *
 415:Generated_Source\PSoC5/CyDmac.c **** * \return CYRET_SUCCESS if successful.
 416:Generated_Source\PSoC5/CyDmac.c **** * \return CYRET_BAD_PARAM if chHandle is invalid.
 417:Generated_Source\PSoC5/CyDmac.c **** *
 418:Generated_Source\PSoC5/CyDmac.c **** *******************************************************************************/
 419:Generated_Source\PSoC5/CyDmac.c **** cystatus CyDmaChSetExtendedAddress(uint8 chHandle, uint16 source, uint16 destination) \
 420:Generated_Source\PSoC5/CyDmac.c ****     
 421:Generated_Source\PSoC5/CyDmac.c **** {
 507              		.loc 1 421 0
 508              		.cfi_startproc
 509              		@ args = 0, pretend = 0, frame = 0
 510              		@ frame_needed = 0, uses_anonymous_args = 0
 511              		@ link register save eliminated.
 512              	.LVL49:
 422:Generated_Source\PSoC5/CyDmac.c ****     cystatus status = CYRET_BAD_PARAM;
 423:Generated_Source\PSoC5/CyDmac.c ****     reg16 *convert;
 424:Generated_Source\PSoC5/CyDmac.c **** 
 425:Generated_Source\PSoC5/CyDmac.c ****     #if(CY_PSOC5)
 426:Generated_Source\PSoC5/CyDmac.c **** 
 427:Generated_Source\PSoC5/CyDmac.c ****         /* 0x1FFF8000-0x1FFFFFFF needs to use alias at 0x20008000-0x2000FFFF */
 428:Generated_Source\PSoC5/CyDmac.c ****         if(source == 0x1FFFu)
 513              		.loc 1 428 0
 514 0000 41F6FF73 		movw	r3, #8191
 429:Generated_Source\PSoC5/CyDmac.c ****         {
 430:Generated_Source\PSoC5/CyDmac.c ****             source = 0x2000u;
 515              		.loc 1 430 0
ARM GAS  C:\Users\larco\AppData\Local\Temp\ccqyq8l8.s 			page 18


 516 0004 9942     		cmp	r1, r3
 517 0006 08BF     		it	eq
 518 0008 4FF40051 		moveq	r1, #8192
 519              	.LVL50:
 431:Generated_Source\PSoC5/CyDmac.c ****         }
 432:Generated_Source\PSoC5/CyDmac.c **** 
 433:Generated_Source\PSoC5/CyDmac.c ****         if(destination == 0x1FFFu)
 434:Generated_Source\PSoC5/CyDmac.c ****         {
 435:Generated_Source\PSoC5/CyDmac.c ****             destination = 0x2000u;
 520              		.loc 1 435 0
 521 000c 9A42     		cmp	r2, r3
 522 000e 08BF     		it	eq
 523 0010 4FF40052 		moveq	r2, #8192
 524              	.LVL51:
 436:Generated_Source\PSoC5/CyDmac.c ****         }
 437:Generated_Source\PSoC5/CyDmac.c **** 
 438:Generated_Source\PSoC5/CyDmac.c ****     #endif  /* (CY_PSOC5) */
 439:Generated_Source\PSoC5/CyDmac.c **** 
 440:Generated_Source\PSoC5/CyDmac.c **** 
 441:Generated_Source\PSoC5/CyDmac.c ****     if(chHandle < CY_DMA_NUMBEROF_CHANNELS)
 525              		.loc 1 441 0
 526 0014 1728     		cmp	r0, #23
 527 0016 08D8     		bhi	.L63
 442:Generated_Source\PSoC5/CyDmac.c ****     {
 443:Generated_Source\PSoC5/CyDmac.c ****         /* Set source address */
 444:Generated_Source\PSoC5/CyDmac.c ****         convert = (reg16 *) &CY_DMA_CFGMEM_STRUCT_PTR[chHandle].CFG1[0];
 528              		.loc 1 444 0
 529 0018 C000     		lsls	r0, r0, #3
 530              	.LVL52:
 531 001a 00F18043 		add	r3, r0, #1073741824
 532 001e 03F5EC43 		add	r3, r3, #30208
 533              	.LVL53:
 445:Generated_Source\PSoC5/CyDmac.c ****         CY_SET_REG16(convert, source);
 534              		.loc 1 445 0
 535 0022 9980     		strh	r1, [r3, #4]	@ movhi
 536              	.LVL54:
 446:Generated_Source\PSoC5/CyDmac.c **** 
 447:Generated_Source\PSoC5/CyDmac.c ****         /* Set destination address */
 448:Generated_Source\PSoC5/CyDmac.c ****         convert = (reg16 *) &CY_DMA_CFGMEM_STRUCT_PTR[chHandle].CFG1[2u];
 449:Generated_Source\PSoC5/CyDmac.c ****         CY_SET_REG16(convert, destination);
 450:Generated_Source\PSoC5/CyDmac.c ****         status = CYRET_SUCCESS;
 537              		.loc 1 450 0
 538 0024 0020     		movs	r0, #0
 449:Generated_Source\PSoC5/CyDmac.c ****         status = CYRET_SUCCESS;
 539              		.loc 1 449 0
 540 0026 DA80     		strh	r2, [r3, #6]	@ movhi
 541              	.LVL55:
 542 0028 7047     		bx	lr
 543              	.LVL56:
 544              	.L63:
 422:Generated_Source\PSoC5/CyDmac.c ****     reg16 *convert;
 545              		.loc 1 422 0
 546 002a 0120     		movs	r0, #1
 547              	.LVL57:
 451:Generated_Source\PSoC5/CyDmac.c ****     }
 452:Generated_Source\PSoC5/CyDmac.c **** 
 453:Generated_Source\PSoC5/CyDmac.c ****     return(status);
ARM GAS  C:\Users\larco\AppData\Local\Temp\ccqyq8l8.s 			page 19


 454:Generated_Source\PSoC5/CyDmac.c **** }
 548              		.loc 1 454 0
 549 002c 7047     		bx	lr
 550              		.cfi_endproc
 551              	.LFE10:
 552              		.size	CyDmaChSetExtendedAddress, .-CyDmaChSetExtendedAddress
 553 002e 00BF     		.section	.text.CyDmaChSetInitialTd,"ax",%progbits
 554              		.align	2
 555              		.global	CyDmaChSetInitialTd
 556              		.thumb
 557              		.thumb_func
 558              		.type	CyDmaChSetInitialTd, %function
 559              	CyDmaChSetInitialTd:
 560              	.LFB11:
 455:Generated_Source\PSoC5/CyDmac.c **** 
 456:Generated_Source\PSoC5/CyDmac.c **** 
 457:Generated_Source\PSoC5/CyDmac.c **** /*******************************************************************************
 458:Generated_Source\PSoC5/CyDmac.c **** * Function Name: CyDmaChSetInitialTd
 459:Generated_Source\PSoC5/CyDmac.c **** ****************************************************************************//**
 460:Generated_Source\PSoC5/CyDmac.c **** *
 461:Generated_Source\PSoC5/CyDmac.c **** * Sets the initial TD to be executed for the channel when the \ref CyDmaChEnable()
 462:Generated_Source\PSoC5/CyDmac.c **** * function is called.
 463:Generated_Source\PSoC5/CyDmac.c **** *
 464:Generated_Source\PSoC5/CyDmac.c **** * \param chHandle A handle previously returned by \ref CyDmaChAlloc() or
 465:Generated_Source\PSoC5/CyDmac.c **** * \ref DMA_DmaInitialize().
 466:Generated_Source\PSoC5/CyDmac.c **** *
 467:Generated_Source\PSoC5/CyDmac.c **** * \param startTd Set the TD index as the first TD associated with the
 468:Generated_Source\PSoC5/CyDmac.c **** * channel. Zero is a valid TD index.
 469:Generated_Source\PSoC5/CyDmac.c **** *
 470:Generated_Source\PSoC5/CyDmac.c **** * \return CYRET_SUCCESS if successful.
 471:Generated_Source\PSoC5/CyDmac.c **** * \return CYRET_BAD_PARAM if chHandle is invalid.
 472:Generated_Source\PSoC5/CyDmac.c **** *
 473:Generated_Source\PSoC5/CyDmac.c **** *******************************************************************************/
 474:Generated_Source\PSoC5/CyDmac.c **** cystatus CyDmaChSetInitialTd(uint8 chHandle, uint8 startTd) 
 475:Generated_Source\PSoC5/CyDmac.c **** {
 561              		.loc 1 475 0
 562              		.cfi_startproc
 563              		@ args = 0, pretend = 0, frame = 0
 564              		@ frame_needed = 0, uses_anonymous_args = 0
 565              		@ link register save eliminated.
 566              	.LVL58:
 476:Generated_Source\PSoC5/CyDmac.c ****     cystatus status = CYRET_BAD_PARAM;
 477:Generated_Source\PSoC5/CyDmac.c **** 
 478:Generated_Source\PSoC5/CyDmac.c ****     if(chHandle < CY_DMA_NUMBEROF_CHANNELS)
 567              		.loc 1 478 0
 568 0000 1728     		cmp	r0, #23
 569 0002 05D8     		bhi	.L66
 479:Generated_Source\PSoC5/CyDmac.c ****     {
 480:Generated_Source\PSoC5/CyDmac.c ****         CY_DMA_CH_STRUCT_PTR[chHandle].basic_status[1u] = startTd;
 570              		.loc 1 480 0
 571 0004 034B     		ldr	r3, .L67
 572 0006 0001     		lsls	r0, r0, #4
 573              	.LVL59:
 574 0008 0344     		add	r3, r3, r0
 575 000a 5972     		strb	r1, [r3, #9]
 576              	.LVL60:
 481:Generated_Source\PSoC5/CyDmac.c ****         status = CYRET_SUCCESS;
ARM GAS  C:\Users\larco\AppData\Local\Temp\ccqyq8l8.s 			page 20


 577              		.loc 1 481 0
 578 000c 0020     		movs	r0, #0
 579 000e 7047     		bx	lr
 580              	.LVL61:
 581              	.L66:
 476:Generated_Source\PSoC5/CyDmac.c ****     cystatus status = CYRET_BAD_PARAM;
 582              		.loc 1 476 0
 583 0010 0120     		movs	r0, #1
 584              	.LVL62:
 482:Generated_Source\PSoC5/CyDmac.c ****     }
 483:Generated_Source\PSoC5/CyDmac.c **** 
 484:Generated_Source\PSoC5/CyDmac.c ****     return(status);
 485:Generated_Source\PSoC5/CyDmac.c **** }
 585              		.loc 1 485 0
 586 0012 7047     		bx	lr
 587              	.L68:
 588              		.align	2
 589              	.L67:
 590 0014 10700040 		.word	1073770512
 591              		.cfi_endproc
 592              	.LFE11:
 593              		.size	CyDmaChSetInitialTd, .-CyDmaChSetInitialTd
 594              		.section	.text.CyDmaChSetRequest,"ax",%progbits
 595              		.align	2
 596              		.global	CyDmaChSetRequest
 597              		.thumb
 598              		.thumb_func
 599              		.type	CyDmaChSetRequest, %function
 600              	CyDmaChSetRequest:
 601              	.LFB12:
 486:Generated_Source\PSoC5/CyDmac.c **** 
 487:Generated_Source\PSoC5/CyDmac.c **** 
 488:Generated_Source\PSoC5/CyDmac.c **** /*******************************************************************************
 489:Generated_Source\PSoC5/CyDmac.c **** * Function Name: CyDmaChSetRequest
 490:Generated_Source\PSoC5/CyDmac.c **** ****************************************************************************//**
 491:Generated_Source\PSoC5/CyDmac.c **** *
 492:Generated_Source\PSoC5/CyDmac.c **** *  Allows the caller to terminate a chain of TDs, terminate one TD, or create a
 493:Generated_Source\PSoC5/CyDmac.c **** *  direct request to start the DMA channel.
 494:Generated_Source\PSoC5/CyDmac.c **** *
 495:Generated_Source\PSoC5/CyDmac.c **** *  \param chHandle A handle previously returned by \ref CyDmaChAlloc() or \ref
 496:Generated_Source\PSoC5/CyDmac.c **** *  DMA_DmaInitalize().
 497:Generated_Source\PSoC5/CyDmac.c **** *
 498:Generated_Source\PSoC5/CyDmac.c **** *  \param request One of the following constants. Each of the constants is a
 499:Generated_Source\PSoC5/CyDmac.c **** *  three-bit value.
 500:Generated_Source\PSoC5/CyDmac.c **** *   CPU_REQ         - Create a direct request to start the DMA channel
 501:Generated_Source\PSoC5/CyDmac.c **** *   CPU_TERM_TD     - Terminate one TD
 502:Generated_Source\PSoC5/CyDmac.c **** *   CPU_TERM_CHAIN  - Terminate a chain of TDs
 503:Generated_Source\PSoC5/CyDmac.c **** *
 504:Generated_Source\PSoC5/CyDmac.c **** * \return CYRET_SUCCESS if successful.
 505:Generated_Source\PSoC5/CyDmac.c **** * \return CYRET_BAD_PARAM if chHandle is invalid.
 506:Generated_Source\PSoC5/CyDmac.c **** *
 507:Generated_Source\PSoC5/CyDmac.c **** *******************************************************************************/
 508:Generated_Source\PSoC5/CyDmac.c **** cystatus CyDmaChSetRequest(uint8 chHandle, uint8 request) 
 509:Generated_Source\PSoC5/CyDmac.c **** {
 602              		.loc 1 509 0
 603              		.cfi_startproc
 604              		@ args = 0, pretend = 0, frame = 0
ARM GAS  C:\Users\larco\AppData\Local\Temp\ccqyq8l8.s 			page 21


 605              		@ frame_needed = 0, uses_anonymous_args = 0
 606              		@ link register save eliminated.
 607              	.LVL63:
 510:Generated_Source\PSoC5/CyDmac.c ****     cystatus status = CYRET_BAD_PARAM;
 511:Generated_Source\PSoC5/CyDmac.c **** 
 512:Generated_Source\PSoC5/CyDmac.c ****     if(chHandle < CY_DMA_NUMBEROF_CHANNELS)
 608              		.loc 1 512 0
 609 0000 1728     		cmp	r0, #23
 610 0002 09D8     		bhi	.L71
 513:Generated_Source\PSoC5/CyDmac.c ****     {
 514:Generated_Source\PSoC5/CyDmac.c ****         CY_DMA_CH_STRUCT_PTR[chHandle].action[0u] |= (request & (CPU_REQ | CPU_TERM_TD | CPU_TERM_C
 611              		.loc 1 514 0
 612 0004 054B     		ldr	r3, .L72
 613 0006 0001     		lsls	r0, r0, #4
 614              	.LVL64:
 615 0008 0344     		add	r3, r3, r0
 616 000a 1A79     		ldrb	r2, [r3, #4]	@ zero_extendqisi2
 617 000c 01F00701 		and	r1, r1, #7
 618              	.LVL65:
 619 0010 1143     		orrs	r1, r1, r2
 620 0012 1971     		strb	r1, [r3, #4]
 621              	.LVL66:
 515:Generated_Source\PSoC5/CyDmac.c ****         status = CYRET_SUCCESS;
 622              		.loc 1 515 0
 623 0014 0020     		movs	r0, #0
 624 0016 7047     		bx	lr
 625              	.LVL67:
 626              	.L71:
 510:Generated_Source\PSoC5/CyDmac.c ****     cystatus status = CYRET_BAD_PARAM;
 627              		.loc 1 510 0
 628 0018 0120     		movs	r0, #1
 629              	.LVL68:
 516:Generated_Source\PSoC5/CyDmac.c ****     }
 517:Generated_Source\PSoC5/CyDmac.c **** 
 518:Generated_Source\PSoC5/CyDmac.c ****     return(status);
 519:Generated_Source\PSoC5/CyDmac.c **** }
 630              		.loc 1 519 0
 631 001a 7047     		bx	lr
 632              	.L73:
 633              		.align	2
 634              	.L72:
 635 001c 10700040 		.word	1073770512
 636              		.cfi_endproc
 637              	.LFE12:
 638              		.size	CyDmaChSetRequest, .-CyDmaChSetRequest
 639              		.section	.text.CyDmaChGetRequest,"ax",%progbits
 640              		.align	2
 641              		.global	CyDmaChGetRequest
 642              		.thumb
 643              		.thumb_func
 644              		.type	CyDmaChGetRequest, %function
 645              	CyDmaChGetRequest:
 646              	.LFB13:
 520:Generated_Source\PSoC5/CyDmac.c **** 
 521:Generated_Source\PSoC5/CyDmac.c **** 
 522:Generated_Source\PSoC5/CyDmac.c **** /*******************************************************************************
 523:Generated_Source\PSoC5/CyDmac.c **** * Function Name: CyDmaChGetRequest
ARM GAS  C:\Users\larco\AppData\Local\Temp\ccqyq8l8.s 			page 22


 524:Generated_Source\PSoC5/CyDmac.c **** ****************************************************************************//**
 525:Generated_Source\PSoC5/CyDmac.c **** *
 526:Generated_Source\PSoC5/CyDmac.c **** * This function allows the caller of \ref CyDmaChSetRequest() to determine if the
 527:Generated_Source\PSoC5/CyDmac.c **** * request was completed.
 528:Generated_Source\PSoC5/CyDmac.c **** *
 529:Generated_Source\PSoC5/CyDmac.c **** * \param chHandle A handle previously returned by \ref CyDmaChAlloc() or \ref
 530:Generated_Source\PSoC5/CyDmac.c **** * DMA_DmaInitalize().
 531:Generated_Source\PSoC5/CyDmac.c **** *
 532:Generated_Source\PSoC5/CyDmac.c **** * \return Returns a three-bit field, corresponding to the three bits of the
 533:Generated_Source\PSoC5/CyDmac.c **** * request, which describes the state of the previously posted request. If the
 534:Generated_Source\PSoC5/CyDmac.c **** * value is zero, the request was completed. CY_DMA_INVALID_CHANNEL if the handle
 535:Generated_Source\PSoC5/CyDmac.c **** * is invalid.
 536:Generated_Source\PSoC5/CyDmac.c **** *
 537:Generated_Source\PSoC5/CyDmac.c **** *******************************************************************************/
 538:Generated_Source\PSoC5/CyDmac.c **** cystatus CyDmaChGetRequest(uint8 chHandle) 
 539:Generated_Source\PSoC5/CyDmac.c **** {
 647              		.loc 1 539 0
 648              		.cfi_startproc
 649              		@ args = 0, pretend = 0, frame = 0
 650              		@ frame_needed = 0, uses_anonymous_args = 0
 651              		@ link register save eliminated.
 652              	.LVL69:
 540:Generated_Source\PSoC5/CyDmac.c ****     cystatus status = CY_DMA_INVALID_CHANNEL;
 541:Generated_Source\PSoC5/CyDmac.c **** 
 542:Generated_Source\PSoC5/CyDmac.c ****     if(chHandle < CY_DMA_NUMBEROF_CHANNELS)
 653              		.loc 1 542 0
 654 0000 1728     		cmp	r0, #23
 655 0002 01D9     		bls	.L77
 540:Generated_Source\PSoC5/CyDmac.c ****     cystatus status = CY_DMA_INVALID_CHANNEL;
 656              		.loc 1 540 0
 657 0004 FF20     		movs	r0, #255
 658              	.LVL70:
 543:Generated_Source\PSoC5/CyDmac.c ****     {
 544:Generated_Source\PSoC5/CyDmac.c ****         status = (cystatus) ((uint32)CY_DMA_CH_STRUCT_PTR[chHandle].action[0u] &
 545:Generated_Source\PSoC5/CyDmac.c ****                             (uint32)(CY_DMA_CPU_REQ | CY_DMA_CPU_TERM_TD | CY_DMA_CPU_TERM_CHAIN));
 546:Generated_Source\PSoC5/CyDmac.c ****     }
 547:Generated_Source\PSoC5/CyDmac.c **** 
 548:Generated_Source\PSoC5/CyDmac.c ****     return(status);
 549:Generated_Source\PSoC5/CyDmac.c **** }
 659              		.loc 1 549 0
 660 0006 7047     		bx	lr
 661              	.LVL71:
 662              	.L77:
 544:Generated_Source\PSoC5/CyDmac.c ****                             (uint32)(CY_DMA_CPU_REQ | CY_DMA_CPU_TERM_TD | CY_DMA_CPU_TERM_CHAIN));
 663              		.loc 1 544 0
 664 0008 034B     		ldr	r3, .L78
 665 000a 0001     		lsls	r0, r0, #4
 666              	.LVL72:
 667 000c 0344     		add	r3, r3, r0
 668 000e 1879     		ldrb	r0, [r3, #4]	@ zero_extendqisi2
 669 0010 00F00700 		and	r0, r0, #7
 670              	.LVL73:
 671 0014 7047     		bx	lr
 672              	.L79:
 673 0016 00BF     		.align	2
 674              	.L78:
 675 0018 10700040 		.word	1073770512
ARM GAS  C:\Users\larco\AppData\Local\Temp\ccqyq8l8.s 			page 23


 676              		.cfi_endproc
 677              	.LFE13:
 678              		.size	CyDmaChGetRequest, .-CyDmaChGetRequest
 679              		.section	.text.CyDmaChStatus,"ax",%progbits
 680              		.align	2
 681              		.global	CyDmaChStatus
 682              		.thumb
 683              		.thumb_func
 684              		.type	CyDmaChStatus, %function
 685              	CyDmaChStatus:
 686              	.LFB14:
 550:Generated_Source\PSoC5/CyDmac.c **** 
 551:Generated_Source\PSoC5/CyDmac.c **** 
 552:Generated_Source\PSoC5/CyDmac.c **** /*******************************************************************************
 553:Generated_Source\PSoC5/CyDmac.c **** * Function Name: CyDmaChStatus
 554:Generated_Source\PSoC5/CyDmac.c **** ****************************************************************************//**
 555:Generated_Source\PSoC5/CyDmac.c **** *
 556:Generated_Source\PSoC5/CyDmac.c **** *  Determines the status of the DMA channel.
 557:Generated_Source\PSoC5/CyDmac.c **** *
 558:Generated_Source\PSoC5/CyDmac.c **** *  \param chHandle A handle previously returned by \ref CyDmaChAlloc() or \ref
 559:Generated_Source\PSoC5/CyDmac.c **** *  DMA_DmaInitalize().
 560:Generated_Source\PSoC5/CyDmac.c **** *
 561:Generated_Source\PSoC5/CyDmac.c **** *  \param currentTd The address to store the index of the current TD. Can be NULL
 562:Generated_Source\PSoC5/CyDmac.c **** *  if the value is not needed.
 563:Generated_Source\PSoC5/CyDmac.c **** *
 564:Generated_Source\PSoC5/CyDmac.c **** *  \param state The address to store the state of the channel. Can be NULL if the
 565:Generated_Source\PSoC5/CyDmac.c **** *  value is not needed.
 566:Generated_Source\PSoC5/CyDmac.c **** *
 567:Generated_Source\PSoC5/CyDmac.c **** *   STATUS_TD_ACTIVE
 568:Generated_Source\PSoC5/CyDmac.c **** *    \param 0: Channel is not currently being serviced by DMAC
 569:Generated_Source\PSoC5/CyDmac.c **** *    \param 1: Channel is currently being serviced by DMAC
 570:Generated_Source\PSoC5/CyDmac.c **** *
 571:Generated_Source\PSoC5/CyDmac.c **** *   STATUS_CHAIN_ACTIVE
 572:Generated_Source\PSoC5/CyDmac.c **** *    \param 0: TD chain is inactive; either no DMA requests have triggered a new chain
 573:Generated_Source\PSoC5/CyDmac.c **** *       or the previous chain has completed.
 574:Generated_Source\PSoC5/CyDmac.c **** *    \param 1: TD chain has been triggered by a DMA request
 575:Generated_Source\PSoC5/CyDmac.c **** *
 576:Generated_Source\PSoC5/CyDmac.c **** * \return CYRET_SUCCESS if successful.
 577:Generated_Source\PSoC5/CyDmac.c **** * \return CYRET_BAD_PARAM if chHandle is invalid.
 578:Generated_Source\PSoC5/CyDmac.c **** *
 579:Generated_Source\PSoC5/CyDmac.c **** * Theory:
 580:Generated_Source\PSoC5/CyDmac.c **** *   The caller can check on the activity of the Current TD and the Chain.
 581:Generated_Source\PSoC5/CyDmac.c **** *
 582:Generated_Source\PSoC5/CyDmac.c **** *******************************************************************************/
 583:Generated_Source\PSoC5/CyDmac.c **** cystatus CyDmaChStatus(uint8 chHandle, uint8 * currentTd, uint8 * state) 
 584:Generated_Source\PSoC5/CyDmac.c **** {
 687              		.loc 1 584 0
 688              		.cfi_startproc
 689              		@ args = 0, pretend = 0, frame = 0
 690              		@ frame_needed = 0, uses_anonymous_args = 0
 691              		@ link register save eliminated.
 692              	.LVL74:
 585:Generated_Source\PSoC5/CyDmac.c ****     cystatus status = CYRET_BAD_PARAM;
 586:Generated_Source\PSoC5/CyDmac.c **** 
 587:Generated_Source\PSoC5/CyDmac.c ****     if(chHandle < CY_DMA_NUMBEROF_CHANNELS)
 693              		.loc 1 587 0
 694 0000 1728     		cmp	r0, #23
ARM GAS  C:\Users\larco\AppData\Local\Temp\ccqyq8l8.s 			page 24


 695 0002 11D8     		bhi	.L83
 584:Generated_Source\PSoC5/CyDmac.c ****     cystatus status = CYRET_BAD_PARAM;
 696              		.loc 1 584 0
 697 0004 10B4     		push	{r4}
 698              		.cfi_def_cfa_offset 4
 699              		.cfi_offset 4, -4
 588:Generated_Source\PSoC5/CyDmac.c ****     {
 589:Generated_Source\PSoC5/CyDmac.c ****         if(NULL != currentTd)
 700              		.loc 1 589 0
 701 0006 31B1     		cbz	r1, .L82
 590:Generated_Source\PSoC5/CyDmac.c ****         {
 591:Generated_Source\PSoC5/CyDmac.c ****             *currentTd = CY_DMA_CH_STRUCT_PTR[chHandle].basic_status[1] & 0x7Fu;
 702              		.loc 1 591 0
 703 0008 094B     		ldr	r3, .L89
 704 000a 0401     		lsls	r4, r0, #4
 705 000c 2344     		add	r3, r3, r4
 706 000e 5B7A     		ldrb	r3, [r3, #9]	@ zero_extendqisi2
 707 0010 03F07F03 		and	r3, r3, #127
 708 0014 0B70     		strb	r3, [r1]
 709              	.L82:
 592:Generated_Source\PSoC5/CyDmac.c ****         }
 593:Generated_Source\PSoC5/CyDmac.c **** 
 594:Generated_Source\PSoC5/CyDmac.c ****         if(NULL != state)
 710              		.loc 1 594 0
 711 0016 4AB1     		cbz	r2, .L84
 595:Generated_Source\PSoC5/CyDmac.c ****         {
 596:Generated_Source\PSoC5/CyDmac.c ****             *state= CY_DMA_CH_STRUCT_PTR[chHandle].basic_status[0];
 712              		.loc 1 596 0
 713 0018 054B     		ldr	r3, .L89
 714 001a 0001     		lsls	r0, r0, #4
 715              	.LVL75:
 716 001c 0344     		add	r3, r3, r0
 717 001e 1B7A     		ldrb	r3, [r3, #8]	@ zero_extendqisi2
 597:Generated_Source\PSoC5/CyDmac.c ****         }
 598:Generated_Source\PSoC5/CyDmac.c **** 
 599:Generated_Source\PSoC5/CyDmac.c ****         status = CYRET_SUCCESS;
 718              		.loc 1 599 0
 719 0020 0020     		movs	r0, #0
 596:Generated_Source\PSoC5/CyDmac.c ****         }
 720              		.loc 1 596 0
 721 0022 1370     		strb	r3, [r2]
 722              	.L81:
 723              	.LVL76:
 600:Generated_Source\PSoC5/CyDmac.c ****     }
 601:Generated_Source\PSoC5/CyDmac.c **** 
 602:Generated_Source\PSoC5/CyDmac.c ****     return (status);
 603:Generated_Source\PSoC5/CyDmac.c **** }
 724              		.loc 1 603 0
 725 0024 10BC     		pop	{r4}
 726              		.cfi_restore 4
 727              		.cfi_def_cfa_offset 0
 728 0026 7047     		bx	lr
 729              	.LVL77:
 730              	.L83:
 585:Generated_Source\PSoC5/CyDmac.c **** 
 731              		.loc 1 585 0
 732 0028 0120     		movs	r0, #1
ARM GAS  C:\Users\larco\AppData\Local\Temp\ccqyq8l8.s 			page 25


 733              	.LVL78:
 734              		.loc 1 603 0
 735 002a 7047     		bx	lr
 736              	.LVL79:
 737              	.L84:
 738              		.cfi_def_cfa_offset 4
 739              		.cfi_offset 4, -4
 599:Generated_Source\PSoC5/CyDmac.c ****     }
 740              		.loc 1 599 0
 741 002c 1046     		mov	r0, r2
 742              	.LVL80:
 743 002e F9E7     		b	.L81
 744              	.L90:
 745              		.align	2
 746              	.L89:
 747 0030 10700040 		.word	1073770512
 748              		.cfi_endproc
 749              	.LFE14:
 750              		.size	CyDmaChStatus, .-CyDmaChStatus
 751              		.section	.text.CyDmaChSetConfiguration,"ax",%progbits
 752              		.align	2
 753              		.global	CyDmaChSetConfiguration
 754              		.thumb
 755              		.thumb_func
 756              		.type	CyDmaChSetConfiguration, %function
 757              	CyDmaChSetConfiguration:
 758              	.LFB15:
 604:Generated_Source\PSoC5/CyDmac.c **** 
 605:Generated_Source\PSoC5/CyDmac.c **** 
 606:Generated_Source\PSoC5/CyDmac.c **** /*******************************************************************************
 607:Generated_Source\PSoC5/CyDmac.c **** * Function Name: CyDmaChSetConfiguration
 608:Generated_Source\PSoC5/CyDmac.c **** ****************************************************************************//**
 609:Generated_Source\PSoC5/CyDmac.c **** *
 610:Generated_Source\PSoC5/CyDmac.c **** * Sets configuration information of the channel.
 611:Generated_Source\PSoC5/CyDmac.c **** *
 612:Generated_Source\PSoC5/CyDmac.c **** *  \param uint8 chHandle:
 613:Generated_Source\PSoC5/CyDmac.c **** *   A handle previously returned by CyDmaChAlloc() or DMA_DmaInitialize().
 614:Generated_Source\PSoC5/CyDmac.c **** *
 615:Generated_Source\PSoC5/CyDmac.c **** *  \param uint8 burstCount:
 616:Generated_Source\PSoC5/CyDmac.c **** *   Specifies the size of bursts (1 to 127) the data transfer should be divided
 617:Generated_Source\PSoC5/CyDmac.c **** *   into. If this value is zero then the whole transfer is done in one burst.
 618:Generated_Source\PSoC5/CyDmac.c **** *
 619:Generated_Source\PSoC5/CyDmac.c **** *  \param uint8 requestPerBurst:
 620:Generated_Source\PSoC5/CyDmac.c **** *   The whole of the data can be split into multiple bursts, if this is
 621:Generated_Source\PSoC5/CyDmac.c **** *   \param required to complete the transaction:
 622:Generated_Source\PSoC5/CyDmac.c **** *    \param 0: All subsequent bursts after the first burst will be automatically
 623:Generated_Source\PSoC5/CyDmac.c **** *       requested and carried out
 624:Generated_Source\PSoC5/CyDmac.c **** *    \param 1: All subsequent bursts after the first burst must also be individually
 625:Generated_Source\PSoC5/CyDmac.c **** *       requested.
 626:Generated_Source\PSoC5/CyDmac.c **** *
 627:Generated_Source\PSoC5/CyDmac.c **** *  \param uint8 tdDone0:
 628:Generated_Source\PSoC5/CyDmac.c **** *   Selects one of the TERMOUT0 interrupt lines to signal completion. The line
 629:Generated_Source\PSoC5/CyDmac.c **** *   connected to the nrq terminal will determine the TERMOUT0_SEL definition and
 630:Generated_Source\PSoC5/CyDmac.c **** *   should be used as supplied by cyfitter.h
 631:Generated_Source\PSoC5/CyDmac.c **** *
 632:Generated_Source\PSoC5/CyDmac.c **** *  \param uint8 tdDone1:
 633:Generated_Source\PSoC5/CyDmac.c **** *   Selects one of the TERMOUT1 interrupt lines to signal completion. The line
ARM GAS  C:\Users\larco\AppData\Local\Temp\ccqyq8l8.s 			page 26


 634:Generated_Source\PSoC5/CyDmac.c **** *   connected to the nrq terminal will determine the TERMOUT1_SEL definition and
 635:Generated_Source\PSoC5/CyDmac.c **** *   should be used as supplied by cyfitter.h
 636:Generated_Source\PSoC5/CyDmac.c **** *
 637:Generated_Source\PSoC5/CyDmac.c **** *  \param uint8 tdStop:
 638:Generated_Source\PSoC5/CyDmac.c **** *   Selects one of the TERMIN interrupt lines to signal to the DMAC that the TD
 639:Generated_Source\PSoC5/CyDmac.c **** *   should terminate. The signal connected to the trq terminal will determine
 640:Generated_Source\PSoC5/CyDmac.c **** *   which TERMIN (termination request) is used.
 641:Generated_Source\PSoC5/CyDmac.c **** *
 642:Generated_Source\PSoC5/CyDmac.c **** * \return
 643:Generated_Source\PSoC5/CyDmac.c **** *  CYRET_SUCCESS if successful.
 644:Generated_Source\PSoC5/CyDmac.c **** *  CYRET_BAD_PARAM if chHandle is invalid.
 645:Generated_Source\PSoC5/CyDmac.c **** *
 646:Generated_Source\PSoC5/CyDmac.c **** *******************************************************************************/
 647:Generated_Source\PSoC5/CyDmac.c **** cystatus CyDmaChSetConfiguration(uint8 chHandle, uint8 burstCount, uint8 requestPerBurst,
 648:Generated_Source\PSoC5/CyDmac.c ****                                  uint8 tdDone0, uint8 tdDone1, uint8 tdStop) 
 649:Generated_Source\PSoC5/CyDmac.c **** {
 759              		.loc 1 649 0
 760              		.cfi_startproc
 761              		@ args = 8, pretend = 0, frame = 0
 762              		@ frame_needed = 0, uses_anonymous_args = 0
 763              		@ link register save eliminated.
 764              	.LVL81:
 765 0000 70B4     		push	{r4, r5, r6}
 766              		.cfi_def_cfa_offset 12
 767              		.cfi_offset 4, -12
 768              		.cfi_offset 5, -8
 769              		.cfi_offset 6, -4
 650:Generated_Source\PSoC5/CyDmac.c ****     cystatus status = CYRET_BAD_PARAM;
 651:Generated_Source\PSoC5/CyDmac.c **** 
 652:Generated_Source\PSoC5/CyDmac.c ****     if(chHandle < CY_DMA_NUMBEROF_CHANNELS)
 770              		.loc 1 652 0
 771 0002 1728     		cmp	r0, #23
 649:Generated_Source\PSoC5/CyDmac.c ****     cystatus status = CYRET_BAD_PARAM;
 772              		.loc 1 649 0
 773 0004 9DF80C60 		ldrb	r6, [sp, #12]	@ zero_extendqisi2
 774 0008 9DF81050 		ldrb	r5, [sp, #16]	@ zero_extendqisi2
 775              		.loc 1 652 0
 776 000c 18D8     		bhi	.L93
 653:Generated_Source\PSoC5/CyDmac.c ****     {
 654:Generated_Source\PSoC5/CyDmac.c ****         CY_DMA_CFGMEM_STRUCT_PTR[chHandle].CFG0[0] = (burstCount & 0x7Fu) | ((uint8)((requestPerBur
 777              		.loc 1 654 0
 778 000e C000     		lsls	r0, r0, #3
 779              	.LVL82:
 780 0010 01F07F01 		and	r1, r1, #127
 781              	.LVL83:
 655:Generated_Source\PSoC5/CyDmac.c ****         CY_DMA_CFGMEM_STRUCT_PTR[chHandle].CFG0[1] = ((uint8)((tdDone1 & 0xFu) << 4u)) | (tdDone0 &
 782              		.loc 1 655 0
 783 0014 03F00F03 		and	r3, r3, #15
 784              	.LVL84:
 654:Generated_Source\PSoC5/CyDmac.c ****         CY_DMA_CFGMEM_STRUCT_PTR[chHandle].CFG0[1] = ((uint8)((tdDone1 & 0xFu) << 4u)) | (tdDone0 &
 785              		.loc 1 654 0
 786 0018 00F18044 		add	r4, r0, #1073741824
 787 001c 41EAC211 		orr	r1, r1, r2, lsl #7
 788              		.loc 1 655 0
 789 0020 43EA0613 		orr	r3, r3, r6, lsl #4
 654:Generated_Source\PSoC5/CyDmac.c ****         CY_DMA_CFGMEM_STRUCT_PTR[chHandle].CFG0[1] = ((uint8)((tdDone1 & 0xFu) << 4u)) | (tdDone0 &
 790              		.loc 1 654 0
ARM GAS  C:\Users\larco\AppData\Local\Temp\ccqyq8l8.s 			page 27


 791 0024 04F5EC44 		add	r4, r4, #30208
 656:Generated_Source\PSoC5/CyDmac.c ****         CY_DMA_CFGMEM_STRUCT_PTR[chHandle].CFG0[2] = 0x0Fu & tdStop;
 792              		.loc 1 656 0
 793 0028 05F00F05 		and	r5, r5, #15
 657:Generated_Source\PSoC5/CyDmac.c ****         CY_DMA_CFGMEM_STRUCT_PTR[chHandle].CFG0[3] = 0u; /* burstcount_remain. */
 794              		.loc 1 657 0
 795 002c 0022     		movs	r2, #0
 796              	.LVL85:
 654:Generated_Source\PSoC5/CyDmac.c ****         CY_DMA_CFGMEM_STRUCT_PTR[chHandle].CFG0[1] = ((uint8)((tdDone1 & 0xFu) << 4u)) | (tdDone0 &
 797              		.loc 1 654 0
 798 002e C9B2     		uxtb	r1, r1
 655:Generated_Source\PSoC5/CyDmac.c ****         CY_DMA_CFGMEM_STRUCT_PTR[chHandle].CFG0[2] = 0x0Fu & tdStop;
 799              		.loc 1 655 0
 800 0030 DBB2     		uxtb	r3, r3
 654:Generated_Source\PSoC5/CyDmac.c ****         CY_DMA_CFGMEM_STRUCT_PTR[chHandle].CFG0[1] = ((uint8)((tdDone1 & 0xFu) << 4u)) | (tdDone0 &
 801              		.loc 1 654 0
 802 0032 2170     		strb	r1, [r4]
 655:Generated_Source\PSoC5/CyDmac.c ****         CY_DMA_CFGMEM_STRUCT_PTR[chHandle].CFG0[2] = 0x0Fu & tdStop;
 803              		.loc 1 655 0
 804 0034 6370     		strb	r3, [r4, #1]
 656:Generated_Source\PSoC5/CyDmac.c ****         CY_DMA_CFGMEM_STRUCT_PTR[chHandle].CFG0[3] = 0u; /* burstcount_remain. */
 805              		.loc 1 656 0
 806 0036 A570     		strb	r5, [r4, #2]
 807              		.loc 1 657 0
 808 0038 E270     		strb	r2, [r4, #3]
 809              	.LVL86:
 658:Generated_Source\PSoC5/CyDmac.c **** 
 659:Generated_Source\PSoC5/CyDmac.c ****         status = CYRET_SUCCESS;
 810              		.loc 1 659 0
 811 003a 1046     		mov	r0, r2
 812              	.LVL87:
 660:Generated_Source\PSoC5/CyDmac.c ****     }
 661:Generated_Source\PSoC5/CyDmac.c **** 
 662:Generated_Source\PSoC5/CyDmac.c ****     return (status);
 663:Generated_Source\PSoC5/CyDmac.c **** }
 813              		.loc 1 663 0
 814 003c 70BC     		pop	{r4, r5, r6}
 815              		.cfi_remember_state
 816              		.cfi_restore 6
 817              		.cfi_restore 5
 818              		.cfi_restore 4
 819              		.cfi_def_cfa_offset 0
 820              	.LVL88:
 821 003e 7047     		bx	lr
 822              	.LVL89:
 823              	.L93:
 824              		.cfi_restore_state
 650:Generated_Source\PSoC5/CyDmac.c **** 
 825              		.loc 1 650 0
 826 0040 0120     		movs	r0, #1
 827              	.LVL90:
 828              		.loc 1 663 0
 829 0042 70BC     		pop	{r4, r5, r6}
 830              		.cfi_restore 4
 831              		.cfi_restore 5
 832              		.cfi_restore 6
 833              		.cfi_def_cfa_offset 0
ARM GAS  C:\Users\larco\AppData\Local\Temp\ccqyq8l8.s 			page 28


 834              	.LVL91:
 835 0044 7047     		bx	lr
 836              		.cfi_endproc
 837              	.LFE15:
 838              		.size	CyDmaChSetConfiguration, .-CyDmaChSetConfiguration
 839 0046 00BF     		.section	.text.CyDmaTdAllocate,"ax",%progbits
 840              		.align	2
 841              		.global	CyDmaTdAllocate
 842              		.thumb
 843              		.thumb_func
 844              		.type	CyDmaTdAllocate, %function
 845              	CyDmaTdAllocate:
 846              	.LFB16:
 664:Generated_Source\PSoC5/CyDmac.c **** 
 665:Generated_Source\PSoC5/CyDmac.c **** 
 666:Generated_Source\PSoC5/CyDmac.c **** /*******************************************************************************
 667:Generated_Source\PSoC5/CyDmac.c **** * Function Name: CyDmaTdAllocate
 668:Generated_Source\PSoC5/CyDmac.c **** ****************************************************************************//**
 669:Generated_Source\PSoC5/CyDmac.c **** *
 670:Generated_Source\PSoC5/CyDmac.c **** *  Allocates a TD for use with an allocated DMA channel.
 671:Generated_Source\PSoC5/CyDmac.c **** *
 672:Generated_Source\PSoC5/CyDmac.c **** * \return
 673:Generated_Source\PSoC5/CyDmac.c **** *  Zero-based index of the TD to be used by the caller. Since there are 128 TDs
 674:Generated_Source\PSoC5/CyDmac.c **** *  minus the reserved TDs (0 to 23), the value returned would range from 24 to
 675:Generated_Source\PSoC5/CyDmac.c **** *  127 not 24 to 128. DMA_INVALID_TD is returned if there are no free TDs
 676:Generated_Source\PSoC5/CyDmac.c **** *  available.
 677:Generated_Source\PSoC5/CyDmac.c **** *
 678:Generated_Source\PSoC5/CyDmac.c **** *******************************************************************************/
 679:Generated_Source\PSoC5/CyDmac.c **** uint8 CyDmaTdAllocate(void) 
 680:Generated_Source\PSoC5/CyDmac.c **** {
 847              		.loc 1 680 0
 848              		.cfi_startproc
 849              		@ args = 0, pretend = 0, frame = 0
 850              		@ frame_needed = 0, uses_anonymous_args = 0
 851              	.LVL92:
 852 0000 10B5     		push	{r4, lr}
 853              		.cfi_def_cfa_offset 8
 854              		.cfi_offset 4, -8
 855              		.cfi_offset 14, -4
 681:Generated_Source\PSoC5/CyDmac.c ****     uint8 interruptState;
 682:Generated_Source\PSoC5/CyDmac.c ****     uint8 element = CY_DMA_INVALID_TD;
 683:Generated_Source\PSoC5/CyDmac.c **** 
 684:Generated_Source\PSoC5/CyDmac.c ****     /* Enter critical section! */
 685:Generated_Source\PSoC5/CyDmac.c ****     interruptState = CyEnterCriticalSection();
 856              		.loc 1 685 0
 857 0002 FFF7FEFF 		bl	CyEnterCriticalSection
 858              	.LVL93:
 686:Generated_Source\PSoC5/CyDmac.c **** 
 687:Generated_Source\PSoC5/CyDmac.c ****     if(CyDmaTdCurrentNumber > NUMBEROF_CHANNELS)
 859              		.loc 1 687 0
 860 0006 0B4B     		ldr	r3, .L100
 861 0008 5A78     		ldrb	r2, [r3, #1]	@ zero_extendqisi2
 862 000a 182A     		cmp	r2, #24
 863 000c 04D8     		bhi	.L99
 682:Generated_Source\PSoC5/CyDmac.c **** 
 864              		.loc 1 682 0
 865 000e FF24     		movs	r4, #255
ARM GAS  C:\Users\larco\AppData\Local\Temp\ccqyq8l8.s 			page 29


 866              	.LVL94:
 688:Generated_Source\PSoC5/CyDmac.c ****     {
 689:Generated_Source\PSoC5/CyDmac.c ****         /* Get pointer to Next available. */
 690:Generated_Source\PSoC5/CyDmac.c ****         element = CyDmaTdFreeIndex;
 691:Generated_Source\PSoC5/CyDmac.c **** 
 692:Generated_Source\PSoC5/CyDmac.c ****         /* Decrement the count. */
 693:Generated_Source\PSoC5/CyDmac.c ****         CyDmaTdCurrentNumber--;
 694:Generated_Source\PSoC5/CyDmac.c **** 
 695:Generated_Source\PSoC5/CyDmac.c ****         /* Update next available pointer. */
 696:Generated_Source\PSoC5/CyDmac.c ****         CyDmaTdFreeIndex = CY_DMA_TDMEM_STRUCT_PTR[element].TD0[0];
 697:Generated_Source\PSoC5/CyDmac.c ****     }
 698:Generated_Source\PSoC5/CyDmac.c **** 
 699:Generated_Source\PSoC5/CyDmac.c ****     /* Exit critical section! */
 700:Generated_Source\PSoC5/CyDmac.c ****     CyExitCriticalSection(interruptState);
 867              		.loc 1 700 0
 868 0010 FFF7FEFF 		bl	CyExitCriticalSection
 869              	.LVL95:
 701:Generated_Source\PSoC5/CyDmac.c **** 
 702:Generated_Source\PSoC5/CyDmac.c ****     return(element);
 703:Generated_Source\PSoC5/CyDmac.c **** }
 870              		.loc 1 703 0
 871 0014 2046     		mov	r0, r4
 872 0016 10BD     		pop	{r4, pc}
 873              	.LVL96:
 874              	.L99:
 690:Generated_Source\PSoC5/CyDmac.c **** 
 875              		.loc 1 690 0
 876 0018 1C78     		ldrb	r4, [r3]	@ zero_extendqisi2
 877              	.LVL97:
 693:Generated_Source\PSoC5/CyDmac.c **** 
 878              		.loc 1 693 0
 879 001a 013A     		subs	r2, r2, #1
 696:Generated_Source\PSoC5/CyDmac.c ****     }
 880              		.loc 1 696 0
 881 001c E100     		lsls	r1, r4, #3
 882 001e 01F18041 		add	r1, r1, #1073741824
 883 0022 01F5F041 		add	r1, r1, #30720
 884 0026 0978     		ldrb	r1, [r1]	@ zero_extendqisi2
 693:Generated_Source\PSoC5/CyDmac.c **** 
 885              		.loc 1 693 0
 886 0028 5A70     		strb	r2, [r3, #1]
 696:Generated_Source\PSoC5/CyDmac.c ****     }
 887              		.loc 1 696 0
 888 002a 1970     		strb	r1, [r3]
 700:Generated_Source\PSoC5/CyDmac.c **** 
 889              		.loc 1 700 0
 890 002c FFF7FEFF 		bl	CyExitCriticalSection
 891              	.LVL98:
 892              		.loc 1 703 0
 893 0030 2046     		mov	r0, r4
 894 0032 10BD     		pop	{r4, pc}
 895              	.LVL99:
 896              	.L101:
 897              		.align	2
 898              	.L100:
 899 0034 00000000 		.word	.LANCHOR0
 900              		.cfi_endproc
ARM GAS  C:\Users\larco\AppData\Local\Temp\ccqyq8l8.s 			page 30


 901              	.LFE16:
 902              		.size	CyDmaTdAllocate, .-CyDmaTdAllocate
 903              		.section	.text.CyDmaTdFree,"ax",%progbits
 904              		.align	2
 905              		.global	CyDmaTdFree
 906              		.thumb
 907              		.thumb_func
 908              		.type	CyDmaTdFree, %function
 909              	CyDmaTdFree:
 910              	.LFB17:
 704:Generated_Source\PSoC5/CyDmac.c **** 
 705:Generated_Source\PSoC5/CyDmac.c **** 
 706:Generated_Source\PSoC5/CyDmac.c **** /*******************************************************************************
 707:Generated_Source\PSoC5/CyDmac.c **** * Function Name: CyDmaTdFree
 708:Generated_Source\PSoC5/CyDmac.c **** ****************************************************************************//**
 709:Generated_Source\PSoC5/CyDmac.c **** *
 710:Generated_Source\PSoC5/CyDmac.c **** *  Returns a TD to the free list.
 711:Generated_Source\PSoC5/CyDmac.c **** *
 712:Generated_Source\PSoC5/CyDmac.c **** *  \param uint8 tdHandle:
 713:Generated_Source\PSoC5/CyDmac.c **** *   The TD handle returned by the CyDmaTdAllocate().
 714:Generated_Source\PSoC5/CyDmac.c **** *
 715:Generated_Source\PSoC5/CyDmac.c **** *******************************************************************************/
 716:Generated_Source\PSoC5/CyDmac.c **** void CyDmaTdFree(uint8 tdHandle) 
 717:Generated_Source\PSoC5/CyDmac.c **** {
 911              		.loc 1 717 0
 912              		.cfi_startproc
 913              		@ args = 0, pretend = 0, frame = 0
 914              		@ frame_needed = 0, uses_anonymous_args = 0
 915              	.LVL100:
 718:Generated_Source\PSoC5/CyDmac.c ****     if(tdHandle < CY_DMA_NUMBEROF_TDS)
 916              		.loc 1 718 0
 917 0000 0206     		lsls	r2, r0, #24
 918 0002 13D4     		bmi	.L105
 717:Generated_Source\PSoC5/CyDmac.c ****     if(tdHandle < CY_DMA_NUMBEROF_TDS)
 919              		.loc 1 717 0
 920 0004 38B5     		push	{r3, r4, r5, lr}
 921              		.cfi_def_cfa_offset 16
 922              		.cfi_offset 3, -16
 923              		.cfi_offset 4, -12
 924              		.cfi_offset 5, -8
 925              		.cfi_offset 14, -4
 926 0006 0446     		mov	r4, r0
 927              	.LBB2:
 719:Generated_Source\PSoC5/CyDmac.c ****     {
 720:Generated_Source\PSoC5/CyDmac.c ****         /* Enter critical section! */
 721:Generated_Source\PSoC5/CyDmac.c ****         uint8 interruptState = CyEnterCriticalSection();
 928              		.loc 1 721 0
 929 0008 FFF7FEFF 		bl	CyEnterCriticalSection
 930              	.LVL101:
 722:Generated_Source\PSoC5/CyDmac.c **** 
 723:Generated_Source\PSoC5/CyDmac.c ****         /* Get pointer to Next available. */
 724:Generated_Source\PSoC5/CyDmac.c ****         CY_DMA_TDMEM_STRUCT_PTR[tdHandle].TD0[0u] = CyDmaTdFreeIndex;
 931              		.loc 1 724 0
 932 000c 084A     		ldr	r2, .L106
 933 000e E300     		lsls	r3, r4, #3
 725:Generated_Source\PSoC5/CyDmac.c **** 
 726:Generated_Source\PSoC5/CyDmac.c ****         /* Set new Next Available. */
ARM GAS  C:\Users\larco\AppData\Local\Temp\ccqyq8l8.s 			page 31


 727:Generated_Source\PSoC5/CyDmac.c ****         CyDmaTdFreeIndex = tdHandle;
 728:Generated_Source\PSoC5/CyDmac.c **** 
 729:Generated_Source\PSoC5/CyDmac.c ****         /* Keep track of how many left. */
 730:Generated_Source\PSoC5/CyDmac.c ****         CyDmaTdCurrentNumber++;
 934              		.loc 1 730 0
 935 0010 5178     		ldrb	r1, [r2, #1]	@ zero_extendqisi2
 724:Generated_Source\PSoC5/CyDmac.c **** 
 936              		.loc 1 724 0
 937 0012 1578     		ldrb	r5, [r2]	@ zero_extendqisi2
 938 0014 03F18043 		add	r3, r3, #1073741824
 939 0018 03F5F043 		add	r3, r3, #30720
 940              		.loc 1 730 0
 941 001c 0131     		adds	r1, r1, #1
 724:Generated_Source\PSoC5/CyDmac.c **** 
 942              		.loc 1 724 0
 943 001e 1D70     		strb	r5, [r3]
 944              		.loc 1 730 0
 945 0020 5170     		strb	r1, [r2, #1]
 727:Generated_Source\PSoC5/CyDmac.c **** 
 946              		.loc 1 727 0
 947 0022 1470     		strb	r4, [r2]
 948              	.LBE2:
 731:Generated_Source\PSoC5/CyDmac.c **** 
 732:Generated_Source\PSoC5/CyDmac.c ****         /* Exit critical section! */
 733:Generated_Source\PSoC5/CyDmac.c ****         CyExitCriticalSection(interruptState);
 734:Generated_Source\PSoC5/CyDmac.c ****     }
 735:Generated_Source\PSoC5/CyDmac.c **** }
 949              		.loc 1 735 0
 950 0024 BDE83840 		pop	{r3, r4, r5, lr}
 951              		.cfi_restore 14
 952              		.cfi_restore 5
 953              		.cfi_restore 4
 954              		.cfi_restore 3
 955              		.cfi_def_cfa_offset 0
 956              	.LBB3:
 733:Generated_Source\PSoC5/CyDmac.c ****     }
 957              		.loc 1 733 0
 958 0028 FFF7FEBF 		b	CyExitCriticalSection
 959              	.LVL102:
 960              	.L105:
 961 002c 7047     		bx	lr
 962              	.L107:
 963 002e 00BF     		.align	2
 964              	.L106:
 965 0030 00000000 		.word	.LANCHOR0
 966              	.LBE3:
 967              		.cfi_endproc
 968              	.LFE17:
 969              		.size	CyDmaTdFree, .-CyDmaTdFree
 970              		.section	.text.CyDmaTdFreeCount,"ax",%progbits
 971              		.align	2
 972              		.global	CyDmaTdFreeCount
 973              		.thumb
 974              		.thumb_func
 975              		.type	CyDmaTdFreeCount, %function
 976              	CyDmaTdFreeCount:
 977              	.LFB18:
ARM GAS  C:\Users\larco\AppData\Local\Temp\ccqyq8l8.s 			page 32


 736:Generated_Source\PSoC5/CyDmac.c **** 
 737:Generated_Source\PSoC5/CyDmac.c **** 
 738:Generated_Source\PSoC5/CyDmac.c **** /*******************************************************************************
 739:Generated_Source\PSoC5/CyDmac.c **** * Function Name: CyDmaTdFreeCount
 740:Generated_Source\PSoC5/CyDmac.c **** ****************************************************************************//**
 741:Generated_Source\PSoC5/CyDmac.c **** *
 742:Generated_Source\PSoC5/CyDmac.c **** *  Returns the number of free TDs available to be allocated.
 743:Generated_Source\PSoC5/CyDmac.c **** *
 744:Generated_Source\PSoC5/CyDmac.c **** * \return
 745:Generated_Source\PSoC5/CyDmac.c **** *  The number of free TDs.
 746:Generated_Source\PSoC5/CyDmac.c **** *
 747:Generated_Source\PSoC5/CyDmac.c **** *******************************************************************************/
 748:Generated_Source\PSoC5/CyDmac.c **** uint8 CyDmaTdFreeCount(void) 
 749:Generated_Source\PSoC5/CyDmac.c **** {
 978              		.loc 1 749 0
 979              		.cfi_startproc
 980              		@ args = 0, pretend = 0, frame = 0
 981              		@ frame_needed = 0, uses_anonymous_args = 0
 982              		@ link register save eliminated.
 750:Generated_Source\PSoC5/CyDmac.c ****     return(CyDmaTdCurrentNumber - CY_DMA_NUMBEROF_CHANNELS);
 983              		.loc 1 750 0
 984 0000 024B     		ldr	r3, .L109
 985 0002 5878     		ldrb	r0, [r3, #1]	@ zero_extendqisi2
 986 0004 1838     		subs	r0, r0, #24
 751:Generated_Source\PSoC5/CyDmac.c **** }
 987              		.loc 1 751 0
 988 0006 C0B2     		uxtb	r0, r0
 989 0008 7047     		bx	lr
 990              	.L110:
 991 000a 00BF     		.align	2
 992              	.L109:
 993 000c 00000000 		.word	.LANCHOR0
 994              		.cfi_endproc
 995              	.LFE18:
 996              		.size	CyDmaTdFreeCount, .-CyDmaTdFreeCount
 997              		.section	.text.CyDmaTdSetConfiguration,"ax",%progbits
 998              		.align	2
 999              		.global	CyDmaTdSetConfiguration
 1000              		.thumb
 1001              		.thumb_func
 1002              		.type	CyDmaTdSetConfiguration, %function
 1003              	CyDmaTdSetConfiguration:
 1004              	.LFB19:
 752:Generated_Source\PSoC5/CyDmac.c **** 
 753:Generated_Source\PSoC5/CyDmac.c **** 
 754:Generated_Source\PSoC5/CyDmac.c **** /*******************************************************************************
 755:Generated_Source\PSoC5/CyDmac.c **** * Function Name: CyDmaTdSetConfiguration
 756:Generated_Source\PSoC5/CyDmac.c **** ****************************************************************************//**
 757:Generated_Source\PSoC5/CyDmac.c **** *
 758:Generated_Source\PSoC5/CyDmac.c **** *  Configures the TD.
 759:Generated_Source\PSoC5/CyDmac.c **** *
 760:Generated_Source\PSoC5/CyDmac.c **** *  \param uint8 tdHandle:
 761:Generated_Source\PSoC5/CyDmac.c **** *   A handle previously returned by CyDmaTdAlloc().
 762:Generated_Source\PSoC5/CyDmac.c **** *
 763:Generated_Source\PSoC5/CyDmac.c **** *  \param uint16 transferCount:
 764:Generated_Source\PSoC5/CyDmac.c **** *   The size of the data transfer (in bytes) for this TD. A size of zero will
 765:Generated_Source\PSoC5/CyDmac.c **** *   cause the transfer to continue indefinitely. This parameter is limited to
ARM GAS  C:\Users\larco\AppData\Local\Temp\ccqyq8l8.s 			page 33


 766:Generated_Source\PSoC5/CyDmac.c **** *   4095 bytes; the TD is not initialized at all when a higher value is passed.
 767:Generated_Source\PSoC5/CyDmac.c **** *
 768:Generated_Source\PSoC5/CyDmac.c **** *  \param uint8 nextTd:
 769:Generated_Source\PSoC5/CyDmac.c **** *   Zero based index of the next Transfer Descriptor in the TD chain. Zero is a
 770:Generated_Source\PSoC5/CyDmac.c **** *   valid pointer to the next TD; DMA_END_CHAIN_TD is the end of the chain.
 771:Generated_Source\PSoC5/CyDmac.c **** *   DMA_DISABLE_TD indicates an end to the chain and the DMA is disabled. No
 772:Generated_Source\PSoC5/CyDmac.c **** *   further TDs are fetched. DMA_DISABLE_TD is only supported on PSoC3 and
 773:Generated_Source\PSoC5/CyDmac.c **** *   PSoC 5LP silicons.
 774:Generated_Source\PSoC5/CyDmac.c **** *
 775:Generated_Source\PSoC5/CyDmac.c **** *  \param uint8 configuration:
 776:Generated_Source\PSoC5/CyDmac.c **** *   Stores the Bit field of configuration bits.
 777:Generated_Source\PSoC5/CyDmac.c **** *
 778:Generated_Source\PSoC5/CyDmac.c **** *   CY_DMA_TD_SWAP_EN        - Perform endian swap
 779:Generated_Source\PSoC5/CyDmac.c **** *
 780:Generated_Source\PSoC5/CyDmac.c **** *   CY_DMA_TD_SWAP_SIZE4     - Swap size = 4 bytes
 781:Generated_Source\PSoC5/CyDmac.c **** *
 782:Generated_Source\PSoC5/CyDmac.c **** *   CY_DMA_TD_AUTO_EXEC_NEXT - The next TD in the chain will trigger
 783:Generated_Source\PSoC5/CyDmac.c **** *                              automatically when the current TD completes.
 784:Generated_Source\PSoC5/CyDmac.c **** *
 785:Generated_Source\PSoC5/CyDmac.c **** *   CY_DMA_TD_TERMIN_EN      - Terminate this TD if a positive edge on the trq
 786:Generated_Source\PSoC5/CyDmac.c **** *                              input line occurs. The positive edge must occur
 787:Generated_Source\PSoC5/CyDmac.c **** *                              during a burst. That is the only time the DMAC
 788:Generated_Source\PSoC5/CyDmac.c **** *                              will listen for it.
 789:Generated_Source\PSoC5/CyDmac.c **** *
 790:Generated_Source\PSoC5/CyDmac.c **** *   DMA__TD_TERMOUT_EN       - When this TD completes, the TERMOUT signal will
 791:Generated_Source\PSoC5/CyDmac.c **** *                              generate a pulse. Note that this option is
 792:Generated_Source\PSoC5/CyDmac.c **** *                              instance specific with the instance name followed
 793:Generated_Source\PSoC5/CyDmac.c **** *                              by two underscores. In this example, the instance
 794:Generated_Source\PSoC5/CyDmac.c **** *                              name is DMA.
 795:Generated_Source\PSoC5/CyDmac.c **** *
 796:Generated_Source\PSoC5/CyDmac.c **** *   CY_DMA_TD_INC_DST_ADR    - Increment DST_ADR according to the size of each
 797:Generated_Source\PSoC5/CyDmac.c **** *                              data transaction in the burst.
 798:Generated_Source\PSoC5/CyDmac.c **** *
 799:Generated_Source\PSoC5/CyDmac.c **** *   CY_DMA_TD_INC_SRC_ADR    - Increment SRC_ADR according to the size of each
 800:Generated_Source\PSoC5/CyDmac.c **** *                              data transaction in the burst.
 801:Generated_Source\PSoC5/CyDmac.c **** *
 802:Generated_Source\PSoC5/CyDmac.c **** * \return
 803:Generated_Source\PSoC5/CyDmac.c **** *  CYRET_SUCCESS if successful.
 804:Generated_Source\PSoC5/CyDmac.c **** *  CYRET_BAD_PARAM if tdHandle or transferCount is invalid.
 805:Generated_Source\PSoC5/CyDmac.c **** *
 806:Generated_Source\PSoC5/CyDmac.c **** *******************************************************************************/
 807:Generated_Source\PSoC5/CyDmac.c **** cystatus CyDmaTdSetConfiguration(uint8 tdHandle, uint16 transferCount, uint8 nextTd, uint8 configur
 808:Generated_Source\PSoC5/CyDmac.c ****     
 809:Generated_Source\PSoC5/CyDmac.c **** {
 1005              		.loc 1 809 0
 1006              		.cfi_startproc
 1007              		@ args = 0, pretend = 0, frame = 0
 1008              		@ frame_needed = 0, uses_anonymous_args = 0
 1009              		@ link register save eliminated.
 1010              	.LVL103:
 810:Generated_Source\PSoC5/CyDmac.c ****     cystatus status = CYRET_BAD_PARAM;
 811:Generated_Source\PSoC5/CyDmac.c **** 
 812:Generated_Source\PSoC5/CyDmac.c ****     if((tdHandle < CY_DMA_NUMBEROF_TDS) && (0u == (0xF000u & transferCount)))
 1011              		.loc 1 812 0
 1012 0000 10F0800F 		tst	r0, #128
 1013 0004 11D1     		bne	.L113
 809:Generated_Source\PSoC5/CyDmac.c ****     cystatus status = CYRET_BAD_PARAM;
ARM GAS  C:\Users\larco\AppData\Local\Temp\ccqyq8l8.s 			page 34


 1014              		.loc 1 809 0 discriminator 1
 1015 0006 30B4     		push	{r4, r5}
 1016              		.cfi_def_cfa_offset 8
 1017              		.cfi_offset 4, -8
 1018              		.cfi_offset 5, -4
 1019              		.loc 1 812 0 discriminator 1
 1020 0008 11F47045 		ands	r5, r1, #61440
 1021 000c 0AD1     		bne	.L114
 1022              	.LBB4:
 813:Generated_Source\PSoC5/CyDmac.c ****     {
 814:Generated_Source\PSoC5/CyDmac.c ****         /* Set 12 bits transfer count. */
 815:Generated_Source\PSoC5/CyDmac.c ****         reg16 *convert = (reg16 *) &CY_DMA_TDMEM_STRUCT_PTR[tdHandle].TD0[0u];
 1023              		.loc 1 815 0
 1024 000e C400     		lsls	r4, r0, #3
 1025 0010 04F18044 		add	r4, r4, #1073741824
 1026 0014 04F5F044 		add	r4, r4, #30720
 1027              	.LVL104:
 816:Generated_Source\PSoC5/CyDmac.c ****         CY_SET_REG16(convert, transferCount);
 1028              		.loc 1 816 0
 1029 0018 2180     		strh	r1, [r4]	@ movhi
 817:Generated_Source\PSoC5/CyDmac.c **** 
 818:Generated_Source\PSoC5/CyDmac.c ****         /* Set Next TD pointer. */
 819:Generated_Source\PSoC5/CyDmac.c ****         CY_DMA_TDMEM_STRUCT_PTR[tdHandle].TD0[2u] = nextTd;
 1030              		.loc 1 819 0
 1031 001a A270     		strb	r2, [r4, #2]
 820:Generated_Source\PSoC5/CyDmac.c **** 
 821:Generated_Source\PSoC5/CyDmac.c ****         /* Configure the TD */
 822:Generated_Source\PSoC5/CyDmac.c ****         CY_DMA_TDMEM_STRUCT_PTR[tdHandle].TD0[3u] = configuration;
 1032              		.loc 1 822 0
 1033 001c E370     		strb	r3, [r4, #3]
 1034              	.LVL105:
 823:Generated_Source\PSoC5/CyDmac.c **** 
 824:Generated_Source\PSoC5/CyDmac.c ****         status = CYRET_SUCCESS;
 1035              		.loc 1 824 0
 1036 001e 2846     		mov	r0, r5
 1037              	.LVL106:
 1038              	.LBE4:
 825:Generated_Source\PSoC5/CyDmac.c ****     }
 826:Generated_Source\PSoC5/CyDmac.c **** 
 827:Generated_Source\PSoC5/CyDmac.c ****     return(status);
 828:Generated_Source\PSoC5/CyDmac.c **** }
 1039              		.loc 1 828 0
 1040 0020 30BC     		pop	{r4, r5}
 1041              		.cfi_remember_state
 1042              		.cfi_restore 5
 1043              		.cfi_restore 4
 1044              		.cfi_def_cfa_offset 0
 1045              	.LVL107:
 1046 0022 7047     		bx	lr
 1047              	.LVL108:
 1048              	.L114:
 1049              		.cfi_restore_state
 810:Generated_Source\PSoC5/CyDmac.c **** 
 1050              		.loc 1 810 0
 1051 0024 0120     		movs	r0, #1
 1052              	.LVL109:
 1053              		.loc 1 828 0
ARM GAS  C:\Users\larco\AppData\Local\Temp\ccqyq8l8.s 			page 35


 1054 0026 30BC     		pop	{r4, r5}
 1055              		.cfi_restore 4
 1056              		.cfi_restore 5
 1057              		.cfi_def_cfa_offset 0
 1058 0028 7047     		bx	lr
 1059              	.LVL110:
 1060              	.L113:
 810:Generated_Source\PSoC5/CyDmac.c **** 
 1061              		.loc 1 810 0
 1062 002a 0120     		movs	r0, #1
 1063              	.LVL111:
 1064              		.loc 1 828 0
 1065 002c 7047     		bx	lr
 1066              		.cfi_endproc
 1067              	.LFE19:
 1068              		.size	CyDmaTdSetConfiguration, .-CyDmaTdSetConfiguration
 1069 002e 00BF     		.section	.text.CyDmaTdGetConfiguration,"ax",%progbits
 1070              		.align	2
 1071              		.global	CyDmaTdGetConfiguration
 1072              		.thumb
 1073              		.thumb_func
 1074              		.type	CyDmaTdGetConfiguration, %function
 1075              	CyDmaTdGetConfiguration:
 1076              	.LFB20:
 829:Generated_Source\PSoC5/CyDmac.c **** 
 830:Generated_Source\PSoC5/CyDmac.c **** 
 831:Generated_Source\PSoC5/CyDmac.c **** /*******************************************************************************
 832:Generated_Source\PSoC5/CyDmac.c **** * Function Name: CyDmaTdGetConfiguration
 833:Generated_Source\PSoC5/CyDmac.c **** ****************************************************************************//**
 834:Generated_Source\PSoC5/CyDmac.c **** *
 835:Generated_Source\PSoC5/CyDmac.c **** *  Retrieves the configuration of the TD. If a NULL pointer is passed as a
 836:Generated_Source\PSoC5/CyDmac.c **** *  parameter, that parameter is skipped. You may request only the values you are
 837:Generated_Source\PSoC5/CyDmac.c **** *  interested in.
 838:Generated_Source\PSoC5/CyDmac.c **** *
 839:Generated_Source\PSoC5/CyDmac.c **** *  \param uint8 tdHandle:
 840:Generated_Source\PSoC5/CyDmac.c **** *   A handle previously returned by CyDmaTdAlloc().
 841:Generated_Source\PSoC5/CyDmac.c **** *
 842:Generated_Source\PSoC5/CyDmac.c **** *  \param uint16 * transferCount:
 843:Generated_Source\PSoC5/CyDmac.c **** *   The address to store the size of the data transfer (in bytes) for this TD.
 844:Generated_Source\PSoC5/CyDmac.c **** *   A size of zero could indicate that the TD has completed its transfer, or
 845:Generated_Source\PSoC5/CyDmac.c **** *   that the TD is doing an indefinite transfer.
 846:Generated_Source\PSoC5/CyDmac.c **** *
 847:Generated_Source\PSoC5/CyDmac.c **** *  \param uint8 * nextTd:
 848:Generated_Source\PSoC5/CyDmac.c **** *   The address to store the index of the next TD in the TD chain.
 849:Generated_Source\PSoC5/CyDmac.c **** *
 850:Generated_Source\PSoC5/CyDmac.c **** *  \param uint8 * configuration:
 851:Generated_Source\PSoC5/CyDmac.c **** *   The address to store the Bit field of configuration bits.
 852:Generated_Source\PSoC5/CyDmac.c **** *   See CyDmaTdSetConfiguration() function description.
 853:Generated_Source\PSoC5/CyDmac.c **** *
 854:Generated_Source\PSoC5/CyDmac.c **** * \return
 855:Generated_Source\PSoC5/CyDmac.c **** *  CYRET_SUCCESS if successful.
 856:Generated_Source\PSoC5/CyDmac.c **** *  CYRET_BAD_PARAM if tdHandle is invalid.
 857:Generated_Source\PSoC5/CyDmac.c **** *
 858:Generated_Source\PSoC5/CyDmac.c **** * \sideeffect
 859:Generated_Source\PSoC5/CyDmac.c **** *  If TD has a transfer count of N and is executed, the transfer count becomes
 860:Generated_Source\PSoC5/CyDmac.c **** *  0. If it is reexecuted, the Transfer count of zero will be interpreted as a
 861:Generated_Source\PSoC5/CyDmac.c **** *  request for indefinite transfer. Be careful when requesting TD with a
ARM GAS  C:\Users\larco\AppData\Local\Temp\ccqyq8l8.s 			page 36


 862:Generated_Source\PSoC5/CyDmac.c **** *  transfer count of zero.
 863:Generated_Source\PSoC5/CyDmac.c **** *
 864:Generated_Source\PSoC5/CyDmac.c **** *******************************************************************************/
 865:Generated_Source\PSoC5/CyDmac.c **** cystatus CyDmaTdGetConfiguration(uint8 tdHandle, uint16 * transferCount, uint8 * nextTd, uint8 * co
 866:Generated_Source\PSoC5/CyDmac.c ****     
 867:Generated_Source\PSoC5/CyDmac.c **** {
 1077              		.loc 1 867 0
 1078              		.cfi_startproc
 1079              		@ args = 0, pretend = 0, frame = 0
 1080              		@ frame_needed = 0, uses_anonymous_args = 0
 1081              		@ link register save eliminated.
 1082              	.LVL112:
 868:Generated_Source\PSoC5/CyDmac.c ****     cystatus status = CYRET_BAD_PARAM;
 869:Generated_Source\PSoC5/CyDmac.c **** 
 870:Generated_Source\PSoC5/CyDmac.c ****     if(tdHandle < CY_DMA_NUMBEROF_TDS)
 1083              		.loc 1 870 0
 1084 0000 10F0800F 		tst	r0, #128
 1085 0004 1DD1     		bne	.L120
 867:Generated_Source\PSoC5/CyDmac.c ****     cystatus status = CYRET_BAD_PARAM;
 1086              		.loc 1 867 0
 1087 0006 10B4     		push	{r4}
 1088              		.cfi_def_cfa_offset 4
 1089              		.cfi_offset 4, -4
 871:Generated_Source\PSoC5/CyDmac.c ****     {
 872:Generated_Source\PSoC5/CyDmac.c ****         /* If we have pointer */
 873:Generated_Source\PSoC5/CyDmac.c ****         if(NULL != transferCount)
 1090              		.loc 1 873 0
 1091 0008 41B1     		cbz	r1, .L118
 1092              	.LBB5:
 874:Generated_Source\PSoC5/CyDmac.c ****         {
 875:Generated_Source\PSoC5/CyDmac.c ****             /* Get 12 bits of transfer count */
 876:Generated_Source\PSoC5/CyDmac.c ****             reg16 *convert = (reg16 *) &CY_DMA_TDMEM_STRUCT_PTR[tdHandle].TD0[0];
 1093              		.loc 1 876 0
 1094 000a C400     		lsls	r4, r0, #3
 1095 000c 04F18044 		add	r4, r4, #1073741824
 1096 0010 04F5F044 		add	r4, r4, #30720
 1097              	.LVL113:
 877:Generated_Source\PSoC5/CyDmac.c ****             *transferCount = 0x0FFFu & CY_GET_REG16(convert);
 1098              		.loc 1 877 0
 1099 0014 2488     		ldrh	r4, [r4]
 1100              	.LVL114:
 1101 0016 C4F30B04 		ubfx	r4, r4, #0, #12
 1102 001a 0C80     		strh	r4, [r1]	@ movhi
 1103              	.LVL115:
 1104              	.L118:
 1105              	.LBE5:
 878:Generated_Source\PSoC5/CyDmac.c ****         }
 879:Generated_Source\PSoC5/CyDmac.c **** 
 880:Generated_Source\PSoC5/CyDmac.c ****         /* If we have pointer */
 881:Generated_Source\PSoC5/CyDmac.c ****         if(NULL != nextTd)
 1106              		.loc 1 881 0
 1107 001c 32B1     		cbz	r2, .L119
 882:Generated_Source\PSoC5/CyDmac.c ****         {
 883:Generated_Source\PSoC5/CyDmac.c ****             /* Get Next TD pointer */
 884:Generated_Source\PSoC5/CyDmac.c ****             *nextTd = CY_DMA_TDMEM_STRUCT_PTR[tdHandle].TD0[2u];
 1108              		.loc 1 884 0
 1109 001e C100     		lsls	r1, r0, #3
ARM GAS  C:\Users\larco\AppData\Local\Temp\ccqyq8l8.s 			page 37


 1110              	.LVL116:
 1111 0020 01F18041 		add	r1, r1, #1073741824
 1112 0024 01F5F041 		add	r1, r1, #30720
 1113 0028 8978     		ldrb	r1, [r1, #2]	@ zero_extendqisi2
 1114 002a 1170     		strb	r1, [r2]
 1115              	.L119:
 885:Generated_Source\PSoC5/CyDmac.c ****         }
 886:Generated_Source\PSoC5/CyDmac.c **** 
 887:Generated_Source\PSoC5/CyDmac.c ****         /* If we have pointer */
 888:Generated_Source\PSoC5/CyDmac.c ****         if(NULL != configuration)
 1116              		.loc 1 888 0
 1117 002c 5BB1     		cbz	r3, .L121
 889:Generated_Source\PSoC5/CyDmac.c ****         {
 890:Generated_Source\PSoC5/CyDmac.c ****             /* Get configuration TD */
 891:Generated_Source\PSoC5/CyDmac.c ****             *configuration = CY_DMA_TDMEM_STRUCT_PTR[tdHandle].TD0[3u];
 1118              		.loc 1 891 0
 1119 002e C000     		lsls	r0, r0, #3
 1120              	.LVL117:
 1121 0030 00F18040 		add	r0, r0, #1073741824
 1122 0034 00F5F040 		add	r0, r0, #30720
 1123 0038 C278     		ldrb	r2, [r0, #3]	@ zero_extendqisi2
 1124              	.LVL118:
 892:Generated_Source\PSoC5/CyDmac.c ****         }
 893:Generated_Source\PSoC5/CyDmac.c **** 
 894:Generated_Source\PSoC5/CyDmac.c ****         status = CYRET_SUCCESS;
 1125              		.loc 1 894 0
 1126 003a 0020     		movs	r0, #0
 891:Generated_Source\PSoC5/CyDmac.c ****         }
 1127              		.loc 1 891 0
 1128 003c 1A70     		strb	r2, [r3]
 1129              	.L117:
 1130              	.LVL119:
 895:Generated_Source\PSoC5/CyDmac.c ****     }
 896:Generated_Source\PSoC5/CyDmac.c **** 
 897:Generated_Source\PSoC5/CyDmac.c ****     return(status);
 898:Generated_Source\PSoC5/CyDmac.c **** }
 1131              		.loc 1 898 0
 1132 003e 10BC     		pop	{r4}
 1133              		.cfi_restore 4
 1134              		.cfi_def_cfa_offset 0
 1135 0040 7047     		bx	lr
 1136              	.LVL120:
 1137              	.L120:
 868:Generated_Source\PSoC5/CyDmac.c **** 
 1138              		.loc 1 868 0
 1139 0042 0120     		movs	r0, #1
 1140              	.LVL121:
 1141              		.loc 1 898 0
 1142 0044 7047     		bx	lr
 1143              	.LVL122:
 1144              	.L121:
 1145              		.cfi_def_cfa_offset 4
 1146              		.cfi_offset 4, -4
 894:Generated_Source\PSoC5/CyDmac.c ****     }
 1147              		.loc 1 894 0
 1148 0046 1846     		mov	r0, r3
 1149              	.LVL123:
ARM GAS  C:\Users\larco\AppData\Local\Temp\ccqyq8l8.s 			page 38


 1150 0048 F9E7     		b	.L117
 1151              		.cfi_endproc
 1152              	.LFE20:
 1153              		.size	CyDmaTdGetConfiguration, .-CyDmaTdGetConfiguration
 1154 004a 00BF     		.section	.text.CyDmaTdSetAddress,"ax",%progbits
 1155              		.align	2
 1156              		.global	CyDmaTdSetAddress
 1157              		.thumb
 1158              		.thumb_func
 1159              		.type	CyDmaTdSetAddress, %function
 1160              	CyDmaTdSetAddress:
 1161              	.LFB21:
 899:Generated_Source\PSoC5/CyDmac.c **** 
 900:Generated_Source\PSoC5/CyDmac.c **** 
 901:Generated_Source\PSoC5/CyDmac.c **** /*******************************************************************************
 902:Generated_Source\PSoC5/CyDmac.c **** * Function Name: CyDmaTdSetAddress
 903:Generated_Source\PSoC5/CyDmac.c **** ****************************************************************************//**
 904:Generated_Source\PSoC5/CyDmac.c **** *
 905:Generated_Source\PSoC5/CyDmac.c **** *  Sets the lower 16 bits of the source and destination addresses for this TD
 906:Generated_Source\PSoC5/CyDmac.c **** *  only.
 907:Generated_Source\PSoC5/CyDmac.c **** *
 908:Generated_Source\PSoC5/CyDmac.c **** *  \param uint8 tdHandle:
 909:Generated_Source\PSoC5/CyDmac.c **** *   A handle previously returned by CyDmaTdAlloc().
 910:Generated_Source\PSoC5/CyDmac.c **** *
 911:Generated_Source\PSoC5/CyDmac.c **** *  \param uint16 source:
 912:Generated_Source\PSoC5/CyDmac.c **** *   The lower 16 address bits of the source of the data transfer.
 913:Generated_Source\PSoC5/CyDmac.c **** *
 914:Generated_Source\PSoC5/CyDmac.c **** *  \param uint16 destination:
 915:Generated_Source\PSoC5/CyDmac.c **** *   The lower 16 address bits of the destination of the data transfer.
 916:Generated_Source\PSoC5/CyDmac.c **** *
 917:Generated_Source\PSoC5/CyDmac.c **** * \return
 918:Generated_Source\PSoC5/CyDmac.c **** *  CYRET_SUCCESS if successful.
 919:Generated_Source\PSoC5/CyDmac.c **** *  CYRET_BAD_PARAM if tdHandle is invalid.
 920:Generated_Source\PSoC5/CyDmac.c **** *
 921:Generated_Source\PSoC5/CyDmac.c **** *******************************************************************************/
 922:Generated_Source\PSoC5/CyDmac.c **** cystatus CyDmaTdSetAddress(uint8 tdHandle, uint16 source, uint16 destination) 
 923:Generated_Source\PSoC5/CyDmac.c **** {
 1162              		.loc 1 923 0
 1163              		.cfi_startproc
 1164              		@ args = 0, pretend = 0, frame = 0
 1165              		@ frame_needed = 0, uses_anonymous_args = 0
 1166              		@ link register save eliminated.
 1167              	.LVL124:
 924:Generated_Source\PSoC5/CyDmac.c ****     cystatus status = CYRET_BAD_PARAM;
 925:Generated_Source\PSoC5/CyDmac.c ****     reg16 *convert;
 926:Generated_Source\PSoC5/CyDmac.c **** 
 927:Generated_Source\PSoC5/CyDmac.c ****     if(tdHandle < CY_DMA_NUMBEROF_TDS)
 1168              		.loc 1 927 0
 1169 0000 0306     		lsls	r3, r0, #24
 1170 0002 08D4     		bmi	.L131
 928:Generated_Source\PSoC5/CyDmac.c ****     {
 929:Generated_Source\PSoC5/CyDmac.c ****         /* Set source address */
 930:Generated_Source\PSoC5/CyDmac.c ****         convert = (reg16 *) &CY_DMA_TDMEM_STRUCT_PTR[tdHandle].TD1[0u];
 1171              		.loc 1 930 0
 1172 0004 C000     		lsls	r0, r0, #3
 1173              	.LVL125:
 1174 0006 00F18043 		add	r3, r0, #1073741824
ARM GAS  C:\Users\larco\AppData\Local\Temp\ccqyq8l8.s 			page 39


 1175 000a 03F5F043 		add	r3, r3, #30720
 1176              	.LVL126:
 931:Generated_Source\PSoC5/CyDmac.c ****         CY_SET_REG16(convert, source);
 1177              		.loc 1 931 0
 1178 000e 9980     		strh	r1, [r3, #4]	@ movhi
 1179              	.LVL127:
 932:Generated_Source\PSoC5/CyDmac.c **** 
 933:Generated_Source\PSoC5/CyDmac.c ****         /* Set destination address */
 934:Generated_Source\PSoC5/CyDmac.c ****         convert = (reg16 *) &CY_DMA_TDMEM_STRUCT_PTR[tdHandle].TD1[2u];
 935:Generated_Source\PSoC5/CyDmac.c ****         CY_SET_REG16(convert, destination);
 936:Generated_Source\PSoC5/CyDmac.c **** 
 937:Generated_Source\PSoC5/CyDmac.c ****         status = CYRET_SUCCESS;
 1180              		.loc 1 937 0
 1181 0010 0020     		movs	r0, #0
 935:Generated_Source\PSoC5/CyDmac.c **** 
 1182              		.loc 1 935 0
 1183 0012 DA80     		strh	r2, [r3, #6]	@ movhi
 1184              	.LVL128:
 1185 0014 7047     		bx	lr
 1186              	.LVL129:
 1187              	.L131:
 924:Generated_Source\PSoC5/CyDmac.c ****     reg16 *convert;
 1188              		.loc 1 924 0
 1189 0016 0120     		movs	r0, #1
 1190              	.LVL130:
 938:Generated_Source\PSoC5/CyDmac.c ****     }
 939:Generated_Source\PSoC5/CyDmac.c **** 
 940:Generated_Source\PSoC5/CyDmac.c ****     return(status);
 941:Generated_Source\PSoC5/CyDmac.c **** }
 1191              		.loc 1 941 0
 1192 0018 7047     		bx	lr
 1193              		.cfi_endproc
 1194              	.LFE21:
 1195              		.size	CyDmaTdSetAddress, .-CyDmaTdSetAddress
 1196 001a 00BF     		.section	.text.CyDmaTdGetAddress,"ax",%progbits
 1197              		.align	2
 1198              		.global	CyDmaTdGetAddress
 1199              		.thumb
 1200              		.thumb_func
 1201              		.type	CyDmaTdGetAddress, %function
 1202              	CyDmaTdGetAddress:
 1203              	.LFB22:
 942:Generated_Source\PSoC5/CyDmac.c **** 
 943:Generated_Source\PSoC5/CyDmac.c **** 
 944:Generated_Source\PSoC5/CyDmac.c **** /*******************************************************************************
 945:Generated_Source\PSoC5/CyDmac.c **** * Function Name: CyDmaTdGetAddress
 946:Generated_Source\PSoC5/CyDmac.c **** ****************************************************************************//**
 947:Generated_Source\PSoC5/CyDmac.c **** *
 948:Generated_Source\PSoC5/CyDmac.c **** *  Retrieves the lower 16 bits of the source and/or destination addresses for
 949:Generated_Source\PSoC5/CyDmac.c **** *  this TD only. If NULL is passed for a pointer parameter, that value is
 950:Generated_Source\PSoC5/CyDmac.c **** *  skipped. You may request only the values of interest.
 951:Generated_Source\PSoC5/CyDmac.c **** *
 952:Generated_Source\PSoC5/CyDmac.c **** *  \param uint8 tdHandle:
 953:Generated_Source\PSoC5/CyDmac.c **** *   A handle previously returned by CyDmaTdAlloc().
 954:Generated_Source\PSoC5/CyDmac.c **** *
 955:Generated_Source\PSoC5/CyDmac.c **** *  \param uint16 * source:
 956:Generated_Source\PSoC5/CyDmac.c **** *   The address to store the lower 16 address bits of the source of the data
ARM GAS  C:\Users\larco\AppData\Local\Temp\ccqyq8l8.s 			page 40


 957:Generated_Source\PSoC5/CyDmac.c **** *   transfer.
 958:Generated_Source\PSoC5/CyDmac.c **** *
 959:Generated_Source\PSoC5/CyDmac.c **** *  \param uint16 * destination:
 960:Generated_Source\PSoC5/CyDmac.c **** *   The address to store the lower 16 address bits of the destination of the
 961:Generated_Source\PSoC5/CyDmac.c **** *   data transfer.
 962:Generated_Source\PSoC5/CyDmac.c **** *
 963:Generated_Source\PSoC5/CyDmac.c **** * \return
 964:Generated_Source\PSoC5/CyDmac.c **** *  CYRET_SUCCESS if successful.
 965:Generated_Source\PSoC5/CyDmac.c **** *  CYRET_BAD_PARAM if tdHandle is invalid.
 966:Generated_Source\PSoC5/CyDmac.c **** *
 967:Generated_Source\PSoC5/CyDmac.c **** *******************************************************************************/
 968:Generated_Source\PSoC5/CyDmac.c **** cystatus CyDmaTdGetAddress(uint8 tdHandle, uint16 * source, uint16 * destination) 
 969:Generated_Source\PSoC5/CyDmac.c **** {
 1204              		.loc 1 969 0
 1205              		.cfi_startproc
 1206              		@ args = 0, pretend = 0, frame = 0
 1207              		@ frame_needed = 0, uses_anonymous_args = 0
 1208              		@ link register save eliminated.
 1209              	.LVL131:
 970:Generated_Source\PSoC5/CyDmac.c ****     cystatus status = CYRET_BAD_PARAM;
 971:Generated_Source\PSoC5/CyDmac.c ****     reg16 *convert;
 972:Generated_Source\PSoC5/CyDmac.c **** 
 973:Generated_Source\PSoC5/CyDmac.c ****     if(tdHandle < CY_DMA_NUMBEROF_TDS)
 1210              		.loc 1 973 0
 1211 0000 0306     		lsls	r3, r0, #24
 1212 0002 11D4     		bmi	.L135
 974:Generated_Source\PSoC5/CyDmac.c ****     {
 975:Generated_Source\PSoC5/CyDmac.c ****         /* If we have a pointer. */
 976:Generated_Source\PSoC5/CyDmac.c ****         if(NULL != source)
 1213              		.loc 1 976 0
 1214 0004 31B1     		cbz	r1, .L134
 977:Generated_Source\PSoC5/CyDmac.c ****         {
 978:Generated_Source\PSoC5/CyDmac.c ****             /* Get source address */
 979:Generated_Source\PSoC5/CyDmac.c ****             convert = (reg16 *) &CY_DMA_TDMEM_STRUCT_PTR[tdHandle].TD1[0u];
 1215              		.loc 1 979 0
 1216 0006 C300     		lsls	r3, r0, #3
 1217 0008 03F18043 		add	r3, r3, #1073741824
 1218 000c 03F5F043 		add	r3, r3, #30720
 1219              	.LVL132:
 980:Generated_Source\PSoC5/CyDmac.c ****             *source = CY_GET_REG16(convert);
 1220              		.loc 1 980 0
 1221 0010 9B88     		ldrh	r3, [r3, #4]
 1222              	.LVL133:
 1223 0012 0B80     		strh	r3, [r1]	@ movhi
 1224              	.LVL134:
 1225              	.L134:
 981:Generated_Source\PSoC5/CyDmac.c ****         }
 982:Generated_Source\PSoC5/CyDmac.c **** 
 983:Generated_Source\PSoC5/CyDmac.c ****         /* If we have a pointer. */
 984:Generated_Source\PSoC5/CyDmac.c ****         if(NULL != destination)
 1226              		.loc 1 984 0
 1227 0014 52B1     		cbz	r2, .L136
 985:Generated_Source\PSoC5/CyDmac.c ****         {
 986:Generated_Source\PSoC5/CyDmac.c ****             /* Get Destination address. */
 987:Generated_Source\PSoC5/CyDmac.c ****             convert = (reg16 *) &CY_DMA_TDMEM_STRUCT_PTR[tdHandle].TD1[2u];
 1228              		.loc 1 987 0
 1229 0016 C000     		lsls	r0, r0, #3
ARM GAS  C:\Users\larco\AppData\Local\Temp\ccqyq8l8.s 			page 41


 1230              	.LVL135:
 1231 0018 00F18040 		add	r0, r0, #1073741824
 1232 001c 00F5F040 		add	r0, r0, #30720
 1233              	.LVL136:
 988:Generated_Source\PSoC5/CyDmac.c ****             *destination = CY_GET_REG16(convert);
 1234              		.loc 1 988 0
 1235 0020 C388     		ldrh	r3, [r0, #6]
 989:Generated_Source\PSoC5/CyDmac.c ****         }
 990:Generated_Source\PSoC5/CyDmac.c **** 
 991:Generated_Source\PSoC5/CyDmac.c ****         status = CYRET_SUCCESS;
 1236              		.loc 1 991 0
 1237 0022 0020     		movs	r0, #0
 1238              	.LVL137:
 988:Generated_Source\PSoC5/CyDmac.c ****             *destination = CY_GET_REG16(convert);
 1239              		.loc 1 988 0
 1240 0024 1380     		strh	r3, [r2]	@ movhi
 1241 0026 7047     		bx	lr
 1242              	.LVL138:
 1243              	.L135:
 970:Generated_Source\PSoC5/CyDmac.c ****     reg16 *convert;
 1244              		.loc 1 970 0
 1245 0028 0120     		movs	r0, #1
 1246              	.LVL139:
 1247 002a 7047     		bx	lr
 1248              	.LVL140:
 1249              	.L136:
 1250              		.loc 1 991 0
 1251 002c 1046     		mov	r0, r2
 1252              	.LVL141:
 992:Generated_Source\PSoC5/CyDmac.c ****     }
 993:Generated_Source\PSoC5/CyDmac.c **** 
 994:Generated_Source\PSoC5/CyDmac.c ****     return(status);
 995:Generated_Source\PSoC5/CyDmac.c **** }
 1253              		.loc 1 995 0
 1254 002e 7047     		bx	lr
 1255              		.cfi_endproc
 1256              	.LFE22:
 1257              		.size	CyDmaTdGetAddress, .-CyDmaTdGetAddress
 1258              		.section	.text.CyDmaChRoundRobin,"ax",%progbits
 1259              		.align	2
 1260              		.global	CyDmaChRoundRobin
 1261              		.thumb
 1262              		.thumb_func
 1263              		.type	CyDmaChRoundRobin, %function
 1264              	CyDmaChRoundRobin:
 1265              	.LFB23:
 996:Generated_Source\PSoC5/CyDmac.c **** 
 997:Generated_Source\PSoC5/CyDmac.c **** 
 998:Generated_Source\PSoC5/CyDmac.c **** /*******************************************************************************
 999:Generated_Source\PSoC5/CyDmac.c **** * Function Name: CyDmaChRoundRobin
1000:Generated_Source\PSoC5/CyDmac.c **** ****************************************************************************//**
1001:Generated_Source\PSoC5/CyDmac.c **** *
1002:Generated_Source\PSoC5/CyDmac.c **** * Either enables or disables the Round-Robin scheduling enforcement algorithm.
1003:Generated_Source\PSoC5/CyDmac.c **** * Within a priority level a Round-Robin fairness algorithm is enforced.
1004:Generated_Source\PSoC5/CyDmac.c **** *
1005:Generated_Source\PSoC5/CyDmac.c **** * \param uint8 chHandle:
1006:Generated_Source\PSoC5/CyDmac.c **** *  A handle previously returned by CyDmaChAlloc() or Dma_DmaInitialize().
ARM GAS  C:\Users\larco\AppData\Local\Temp\ccqyq8l8.s 			page 42


1007:Generated_Source\PSoC5/CyDmac.c **** *
1008:Generated_Source\PSoC5/CyDmac.c **** * \param uint8 enableRR:
1009:Generated_Source\PSoC5/CyDmac.c **** *  \param 0: Disable Round-Robin fairness algorithm
1010:Generated_Source\PSoC5/CyDmac.c **** *  \param 1: Enable Round-Robin fairness algorithm
1011:Generated_Source\PSoC5/CyDmac.c **** *
1012:Generated_Source\PSoC5/CyDmac.c **** * \return
1013:Generated_Source\PSoC5/CyDmac.c **** * CYRET_SUCCESS if successful.
1014:Generated_Source\PSoC5/CyDmac.c **** * CYRET_BAD_PARAM if chHandle is invalid.
1015:Generated_Source\PSoC5/CyDmac.c **** *
1016:Generated_Source\PSoC5/CyDmac.c **** *******************************************************************************/
1017:Generated_Source\PSoC5/CyDmac.c **** cystatus CyDmaChRoundRobin(uint8 chHandle, uint8 enableRR) 
1018:Generated_Source\PSoC5/CyDmac.c **** {
 1266              		.loc 1 1018 0
 1267              		.cfi_startproc
 1268              		@ args = 0, pretend = 0, frame = 0
 1269              		@ frame_needed = 0, uses_anonymous_args = 0
 1270              		@ link register save eliminated.
 1271              	.LVL142:
1019:Generated_Source\PSoC5/CyDmac.c ****     cystatus status = CYRET_BAD_PARAM;
1020:Generated_Source\PSoC5/CyDmac.c **** 
1021:Generated_Source\PSoC5/CyDmac.c ****     if(chHandle < CY_DMA_NUMBEROF_CHANNELS)
 1272              		.loc 1 1021 0
 1273 0000 1728     		cmp	r0, #23
 1274 0002 12D8     		bhi	.L143
1022:Generated_Source\PSoC5/CyDmac.c ****     {
1023:Generated_Source\PSoC5/CyDmac.c ****         if (0u != enableRR)
 1275              		.loc 1 1023 0
 1276 0004 49B9     		cbnz	r1, .L146
1018:Generated_Source\PSoC5/CyDmac.c ****     cystatus status = CYRET_BAD_PARAM;
 1277              		.loc 1 1018 0
 1278 0006 10B4     		push	{r4}
 1279              		.cfi_def_cfa_offset 4
 1280              		.cfi_offset 4, -4
1024:Generated_Source\PSoC5/CyDmac.c ****         {
1025:Generated_Source\PSoC5/CyDmac.c ****             CY_DMA_CH_STRUCT_PTR[chHandle].basic_cfg[0u] |= (uint8)CY_DMA_ROUND_ROBIN_ENABLE;
1026:Generated_Source\PSoC5/CyDmac.c ****         }
1027:Generated_Source\PSoC5/CyDmac.c ****         else
1028:Generated_Source\PSoC5/CyDmac.c ****         {
1029:Generated_Source\PSoC5/CyDmac.c ****             CY_DMA_CH_STRUCT_PTR[chHandle].basic_cfg[0u] &= (uint8)(~CY_DMA_ROUND_ROBIN_ENABLE);
 1281              		.loc 1 1029 0
 1282 0008 094C     		ldr	r4, .L147
 1283 000a 0301     		lsls	r3, r0, #4
 1284 000c 1A5D     		ldrb	r2, [r3, r4]	@ zero_extendqisi2
1030:Generated_Source\PSoC5/CyDmac.c ****         }
1031:Generated_Source\PSoC5/CyDmac.c **** 
1032:Generated_Source\PSoC5/CyDmac.c ****         status = CYRET_SUCCESS;
 1285              		.loc 1 1032 0
 1286 000e 0846     		mov	r0, r1
 1287              	.LVL143:
1029:Generated_Source\PSoC5/CyDmac.c ****         }
 1288              		.loc 1 1029 0
 1289 0010 02F0EF02 		and	r2, r2, #239
 1290 0014 1A55     		strb	r2, [r3, r4]
 1291              	.LVL144:
1033:Generated_Source\PSoC5/CyDmac.c ****     }
1034:Generated_Source\PSoC5/CyDmac.c **** 
1035:Generated_Source\PSoC5/CyDmac.c ****     return(status);
ARM GAS  C:\Users\larco\AppData\Local\Temp\ccqyq8l8.s 			page 43


1036:Generated_Source\PSoC5/CyDmac.c **** }
 1292              		.loc 1 1036 0
 1293 0016 10BC     		pop	{r4}
 1294              		.cfi_restore 4
 1295              		.cfi_def_cfa_offset 0
 1296 0018 7047     		bx	lr
 1297              	.LVL145:
 1298              	.L146:
1025:Generated_Source\PSoC5/CyDmac.c ****         }
 1299              		.loc 1 1025 0
 1300 001a 0549     		ldr	r1, .L147
 1301              	.LVL146:
 1302 001c 0301     		lsls	r3, r0, #4
 1303 001e 5A5C     		ldrb	r2, [r3, r1]	@ zero_extendqisi2
1032:Generated_Source\PSoC5/CyDmac.c ****     }
 1304              		.loc 1 1032 0
 1305 0020 0020     		movs	r0, #0
 1306              	.LVL147:
1025:Generated_Source\PSoC5/CyDmac.c ****         }
 1307              		.loc 1 1025 0
 1308 0022 42F01002 		orr	r2, r2, #16
 1309 0026 5A54     		strb	r2, [r3, r1]
 1310 0028 7047     		bx	lr
 1311              	.LVL148:
 1312              	.L143:
1019:Generated_Source\PSoC5/CyDmac.c **** 
 1313              		.loc 1 1019 0
 1314 002a 0120     		movs	r0, #1
 1315              	.LVL149:
 1316 002c 7047     		bx	lr
 1317              	.L148:
 1318 002e 00BF     		.align	2
 1319              	.L147:
 1320 0030 10700040 		.word	1073770512
 1321              		.cfi_endproc
 1322              	.LFE23:
 1323              		.size	CyDmaChRoundRobin, .-CyDmaChRoundRobin
 1324              		.data
 1325              		.align	2
 1326              		.set	.LANCHOR0,. + 0
 1327              		.type	CyDmaTdFreeIndex, %object
 1328              		.size	CyDmaTdFreeIndex, 1
 1329              	CyDmaTdFreeIndex:
 1330 0000 7F       		.byte	127
 1331              		.type	CyDmaTdCurrentNumber, %object
 1332              		.size	CyDmaTdCurrentNumber, 1
 1333              	CyDmaTdCurrentNumber:
 1334 0001 80       		.byte	-128
 1335 0002 0000     		.space	2
 1336              		.type	CyDmaChannels, %object
 1337              		.size	CyDmaChannels, 4
 1338              	CyDmaChannels:
 1339 0004 01000000 		.word	1
 1340              		.text
 1341              	.Letext0:
 1342              		.file 2 "Generated_Source\\PSoC5\\cytypes.h"
 1343              		.file 3 "Generated_Source\\PSoC5\\CyDmac.h"
ARM GAS  C:\Users\larco\AppData\Local\Temp\ccqyq8l8.s 			page 44


 1344              		.file 4 "Generated_Source\\PSoC5\\CyLib.h"