ARM GAS  C:\Users\larco\AppData\Local\Temp\ccTPadZ9.s 			page 1


   1              		.syntax unified
   2              		.cpu cortex-m3
   3              		.fpu softvfp
   4              		.eabi_attribute 20, 1
   5              		.eabi_attribute 21, 1
   6              		.eabi_attribute 23, 3
   7              		.eabi_attribute 24, 1
   8              		.eabi_attribute 25, 1
   9              		.eabi_attribute 26, 1
  10              		.eabi_attribute 30, 2
  11              		.eabi_attribute 34, 1
  12              		.eabi_attribute 18, 4
  13              		.thumb
  14              		.syntax unified
  15              		.file	"cyfitter_cfg.c"
  16              		.text
  17              	.Ltext0:
  18              		.cfi_sections	.debug_frame
  19              		.section	.text.SetAnalogRoutingPumps,"ax",%progbits
  20              		.align	2
  21              		.global	SetAnalogRoutingPumps
  22              		.thumb
  23              		.thumb_func
  24              		.type	SetAnalogRoutingPumps, %function
  25              	SetAnalogRoutingPumps:
  26              	.LFB7:
  27              		.file 1 "Generated_Source\\PSoC5\\cyfitter_cfg.c"
   1:Generated_Source\PSoC5/cyfitter_cfg.c **** 
   2:Generated_Source\PSoC5/cyfitter_cfg.c **** /*******************************************************************************
   3:Generated_Source\PSoC5/cyfitter_cfg.c **** * File Name: cyfitter_cfg.c
   4:Generated_Source\PSoC5/cyfitter_cfg.c **** * 
   5:Generated_Source\PSoC5/cyfitter_cfg.c **** * PSoC Creator  4.4
   6:Generated_Source\PSoC5/cyfitter_cfg.c **** *
   7:Generated_Source\PSoC5/cyfitter_cfg.c **** * Description:
   8:Generated_Source\PSoC5/cyfitter_cfg.c **** * This file contains device initialization code.
   9:Generated_Source\PSoC5/cyfitter_cfg.c **** * Except for the user defined sections in CyClockStartupError(), this file should not be modified.
  10:Generated_Source\PSoC5/cyfitter_cfg.c **** * This file is automatically generated by PSoC Creator.
  11:Generated_Source\PSoC5/cyfitter_cfg.c **** *
  12:Generated_Source\PSoC5/cyfitter_cfg.c **** ********************************************************************************
  13:Generated_Source\PSoC5/cyfitter_cfg.c **** * Copyright (c) 2007-2020 Cypress Semiconductor.  All rights reserved.
  14:Generated_Source\PSoC5/cyfitter_cfg.c **** * You may use this file only in accordance with the license, terms, conditions, 
  15:Generated_Source\PSoC5/cyfitter_cfg.c **** * disclaimers, and limitations in the end user license agreement accompanying 
  16:Generated_Source\PSoC5/cyfitter_cfg.c **** * the software package with which this file was provided.
  17:Generated_Source\PSoC5/cyfitter_cfg.c **** ********************************************************************************/
  18:Generated_Source\PSoC5/cyfitter_cfg.c **** 
  19:Generated_Source\PSoC5/cyfitter_cfg.c **** #include <string.h>
  20:Generated_Source\PSoC5/cyfitter_cfg.c **** #include "cytypes.h"
  21:Generated_Source\PSoC5/cyfitter_cfg.c **** #include "cydevice_trm.h"
  22:Generated_Source\PSoC5/cyfitter_cfg.c **** #include "cyfitter.h"
  23:Generated_Source\PSoC5/cyfitter_cfg.c **** #include "CyLib.h"
  24:Generated_Source\PSoC5/cyfitter_cfg.c **** #include "cyfitter_cfg.h"
  25:Generated_Source\PSoC5/cyfitter_cfg.c **** #include "cyapicallbacks.h"
  26:Generated_Source\PSoC5/cyfitter_cfg.c **** 
  27:Generated_Source\PSoC5/cyfitter_cfg.c **** #define CY_NEED_CYCLOCKSTARTUPERROR 1
  28:Generated_Source\PSoC5/cyfitter_cfg.c **** 
  29:Generated_Source\PSoC5/cyfitter_cfg.c **** 
  30:Generated_Source\PSoC5/cyfitter_cfg.c **** #if defined(__GNUC__) || defined(__ARMCC_VERSION)
ARM GAS  C:\Users\larco\AppData\Local\Temp\ccTPadZ9.s 			page 2


  31:Generated_Source\PSoC5/cyfitter_cfg.c ****     #define CYPACKED 
  32:Generated_Source\PSoC5/cyfitter_cfg.c ****     #define CYPACKED_ATTR __attribute__ ((packed))
  33:Generated_Source\PSoC5/cyfitter_cfg.c ****     #define CYALIGNED __attribute__ ((aligned))
  34:Generated_Source\PSoC5/cyfitter_cfg.c ****     #define CY_CFG_UNUSED __attribute__ ((unused))
  35:Generated_Source\PSoC5/cyfitter_cfg.c ****     #ifndef CY_CFG_SECTION
  36:Generated_Source\PSoC5/cyfitter_cfg.c ****         #define CY_CFG_SECTION __attribute__ ((section(".psocinit")))
  37:Generated_Source\PSoC5/cyfitter_cfg.c ****     #endif
  38:Generated_Source\PSoC5/cyfitter_cfg.c ****     
  39:Generated_Source\PSoC5/cyfitter_cfg.c ****     #if defined(__ARMCC_VERSION)
  40:Generated_Source\PSoC5/cyfitter_cfg.c ****         #define CY_CFG_MEMORY_BARRIER() __memory_changed()
  41:Generated_Source\PSoC5/cyfitter_cfg.c ****     #else
  42:Generated_Source\PSoC5/cyfitter_cfg.c ****         #define CY_CFG_MEMORY_BARRIER() __sync_synchronize()
  43:Generated_Source\PSoC5/cyfitter_cfg.c ****     #endif
  44:Generated_Source\PSoC5/cyfitter_cfg.c ****     
  45:Generated_Source\PSoC5/cyfitter_cfg.c **** #elif defined(__ICCARM__)
  46:Generated_Source\PSoC5/cyfitter_cfg.c ****     #include <intrinsics.h>
  47:Generated_Source\PSoC5/cyfitter_cfg.c **** 
  48:Generated_Source\PSoC5/cyfitter_cfg.c ****     #define CYPACKED __packed
  49:Generated_Source\PSoC5/cyfitter_cfg.c ****     #define CYPACKED_ATTR 
  50:Generated_Source\PSoC5/cyfitter_cfg.c ****     #define CYALIGNED _Pragma("data_alignment=4")
  51:Generated_Source\PSoC5/cyfitter_cfg.c ****     #define CY_CFG_UNUSED _Pragma("diag_suppress=Pe177")
  52:Generated_Source\PSoC5/cyfitter_cfg.c ****     #define CY_CFG_SECTION _Pragma("location=\".psocinit\"")
  53:Generated_Source\PSoC5/cyfitter_cfg.c ****     
  54:Generated_Source\PSoC5/cyfitter_cfg.c ****     #define CY_CFG_MEMORY_BARRIER() __DMB()
  55:Generated_Source\PSoC5/cyfitter_cfg.c ****     
  56:Generated_Source\PSoC5/cyfitter_cfg.c **** #else
  57:Generated_Source\PSoC5/cyfitter_cfg.c ****     #error Unsupported toolchain
  58:Generated_Source\PSoC5/cyfitter_cfg.c **** #endif
  59:Generated_Source\PSoC5/cyfitter_cfg.c **** 
  60:Generated_Source\PSoC5/cyfitter_cfg.c **** #ifndef CYCODE
  61:Generated_Source\PSoC5/cyfitter_cfg.c ****     #define CYCODE
  62:Generated_Source\PSoC5/cyfitter_cfg.c **** #endif
  63:Generated_Source\PSoC5/cyfitter_cfg.c **** #ifndef CYDATA
  64:Generated_Source\PSoC5/cyfitter_cfg.c ****     #define CYDATA
  65:Generated_Source\PSoC5/cyfitter_cfg.c **** #endif
  66:Generated_Source\PSoC5/cyfitter_cfg.c **** #ifndef CYFAR
  67:Generated_Source\PSoC5/cyfitter_cfg.c ****     #define CYFAR
  68:Generated_Source\PSoC5/cyfitter_cfg.c **** #endif
  69:Generated_Source\PSoC5/cyfitter_cfg.c **** #ifndef CYXDATA
  70:Generated_Source\PSoC5/cyfitter_cfg.c ****     #define CYXDATA
  71:Generated_Source\PSoC5/cyfitter_cfg.c **** #endif
  72:Generated_Source\PSoC5/cyfitter_cfg.c **** 
  73:Generated_Source\PSoC5/cyfitter_cfg.c **** 
  74:Generated_Source\PSoC5/cyfitter_cfg.c **** CY_CFG_UNUSED
  75:Generated_Source\PSoC5/cyfitter_cfg.c **** static void CYMEMZERO(void *s, size_t n);
  76:Generated_Source\PSoC5/cyfitter_cfg.c **** CY_CFG_UNUSED
  77:Generated_Source\PSoC5/cyfitter_cfg.c **** static void CYMEMZERO(void *s, size_t n)
  78:Generated_Source\PSoC5/cyfitter_cfg.c **** {
  79:Generated_Source\PSoC5/cyfitter_cfg.c **** 	(void)memset(s, 0, n);
  80:Generated_Source\PSoC5/cyfitter_cfg.c **** }
  81:Generated_Source\PSoC5/cyfitter_cfg.c **** CY_CFG_UNUSED
  82:Generated_Source\PSoC5/cyfitter_cfg.c **** static void CYCONFIGCPY(void *dest, const void *src, size_t n);
  83:Generated_Source\PSoC5/cyfitter_cfg.c **** CY_CFG_UNUSED
  84:Generated_Source\PSoC5/cyfitter_cfg.c **** static void CYCONFIGCPY(void *dest, const void *src, size_t n)
  85:Generated_Source\PSoC5/cyfitter_cfg.c **** {
  86:Generated_Source\PSoC5/cyfitter_cfg.c **** 	(void)memcpy(dest, src, n);
  87:Generated_Source\PSoC5/cyfitter_cfg.c **** }
ARM GAS  C:\Users\larco\AppData\Local\Temp\ccTPadZ9.s 			page 3


  88:Generated_Source\PSoC5/cyfitter_cfg.c **** CY_CFG_UNUSED
  89:Generated_Source\PSoC5/cyfitter_cfg.c **** static void CYCONFIGCPYCODE(void *dest, const void *src, size_t n);
  90:Generated_Source\PSoC5/cyfitter_cfg.c **** CY_CFG_UNUSED
  91:Generated_Source\PSoC5/cyfitter_cfg.c **** static void CYCONFIGCPYCODE(void *dest, const void *src, size_t n)
  92:Generated_Source\PSoC5/cyfitter_cfg.c **** {
  93:Generated_Source\PSoC5/cyfitter_cfg.c **** 	(void)memcpy(dest, src, n);
  94:Generated_Source\PSoC5/cyfitter_cfg.c **** }
  95:Generated_Source\PSoC5/cyfitter_cfg.c **** 
  96:Generated_Source\PSoC5/cyfitter_cfg.c **** 
  97:Generated_Source\PSoC5/cyfitter_cfg.c **** 
  98:Generated_Source\PSoC5/cyfitter_cfg.c **** 
  99:Generated_Source\PSoC5/cyfitter_cfg.c **** /* Clock startup error codes                                                   */
 100:Generated_Source\PSoC5/cyfitter_cfg.c **** #define CYCLOCKSTART_NO_ERROR    0u
 101:Generated_Source\PSoC5/cyfitter_cfg.c **** #define CYCLOCKSTART_XTAL_ERROR  1u
 102:Generated_Source\PSoC5/cyfitter_cfg.c **** #define CYCLOCKSTART_32KHZ_ERROR 2u
 103:Generated_Source\PSoC5/cyfitter_cfg.c **** #define CYCLOCKSTART_PLL_ERROR   3u
 104:Generated_Source\PSoC5/cyfitter_cfg.c **** #define CYCLOCKSTART_FLL_ERROR   4u
 105:Generated_Source\PSoC5/cyfitter_cfg.c **** #define CYCLOCKSTART_WCO_ERROR   5u
 106:Generated_Source\PSoC5/cyfitter_cfg.c **** 
 107:Generated_Source\PSoC5/cyfitter_cfg.c **** 
 108:Generated_Source\PSoC5/cyfitter_cfg.c **** #ifdef CY_NEED_CYCLOCKSTARTUPERROR
 109:Generated_Source\PSoC5/cyfitter_cfg.c **** /*******************************************************************************
 110:Generated_Source\PSoC5/cyfitter_cfg.c **** * Function Name: CyClockStartupError
 111:Generated_Source\PSoC5/cyfitter_cfg.c **** ********************************************************************************
 112:Generated_Source\PSoC5/cyfitter_cfg.c **** * Summary:
 113:Generated_Source\PSoC5/cyfitter_cfg.c **** *  If an error is encountered during clock configuration (crystal startup error,
 114:Generated_Source\PSoC5/cyfitter_cfg.c **** *  PLL lock error, etc.), the system will end up here.  Unless reimplemented by
 115:Generated_Source\PSoC5/cyfitter_cfg.c **** *  the customer, this function will stop in an infinite loop.
 116:Generated_Source\PSoC5/cyfitter_cfg.c **** *
 117:Generated_Source\PSoC5/cyfitter_cfg.c **** * Parameters:
 118:Generated_Source\PSoC5/cyfitter_cfg.c **** *   void
 119:Generated_Source\PSoC5/cyfitter_cfg.c **** *
 120:Generated_Source\PSoC5/cyfitter_cfg.c **** * Return:
 121:Generated_Source\PSoC5/cyfitter_cfg.c **** *   void
 122:Generated_Source\PSoC5/cyfitter_cfg.c **** *
 123:Generated_Source\PSoC5/cyfitter_cfg.c **** *******************************************************************************/
 124:Generated_Source\PSoC5/cyfitter_cfg.c **** CY_CFG_UNUSED
 125:Generated_Source\PSoC5/cyfitter_cfg.c **** static void CyClockStartupError(uint8 errorCode);
 126:Generated_Source\PSoC5/cyfitter_cfg.c **** CY_CFG_UNUSED
 127:Generated_Source\PSoC5/cyfitter_cfg.c **** static void CyClockStartupError(uint8 errorCode)
 128:Generated_Source\PSoC5/cyfitter_cfg.c **** {
 129:Generated_Source\PSoC5/cyfitter_cfg.c ****     /* To remove the compiler warning if errorCode not used.                */
 130:Generated_Source\PSoC5/cyfitter_cfg.c ****     errorCode = errorCode;
 131:Generated_Source\PSoC5/cyfitter_cfg.c **** 
 132:Generated_Source\PSoC5/cyfitter_cfg.c ****     /* If we have a clock startup error (bad MHz crystal, PLL lock, etc.),  */
 133:Generated_Source\PSoC5/cyfitter_cfg.c ****     /* we will end up here to allow the customer to implement something to  */
 134:Generated_Source\PSoC5/cyfitter_cfg.c ****     /* deal with the clock condition.                                       */
 135:Generated_Source\PSoC5/cyfitter_cfg.c **** 
 136:Generated_Source\PSoC5/cyfitter_cfg.c **** #ifdef CY_CFG_CLOCK_STARTUP_ERROR_CALLBACK
 137:Generated_Source\PSoC5/cyfitter_cfg.c ****     CY_CFG_Clock_Startup_ErrorCallback();
 138:Generated_Source\PSoC5/cyfitter_cfg.c **** #else
 139:Generated_Source\PSoC5/cyfitter_cfg.c ****     /*  If not using CY_CFG_CLOCK_STARTUP_ERROR_CALLBACK, place your clock startup code here. */
 140:Generated_Source\PSoC5/cyfitter_cfg.c ****     /* `#START CyClockStartupError` */
 141:Generated_Source\PSoC5/cyfitter_cfg.c **** 
 142:Generated_Source\PSoC5/cyfitter_cfg.c **** 
 143:Generated_Source\PSoC5/cyfitter_cfg.c **** 
 144:Generated_Source\PSoC5/cyfitter_cfg.c ****     /* `#END` */
ARM GAS  C:\Users\larco\AppData\Local\Temp\ccTPadZ9.s 			page 4


 145:Generated_Source\PSoC5/cyfitter_cfg.c **** 
 146:Generated_Source\PSoC5/cyfitter_cfg.c ****     while(1) {}
 147:Generated_Source\PSoC5/cyfitter_cfg.c **** #endif /* CY_CFG_CLOCK_STARTUP_ERROR_CALLBACK */
 148:Generated_Source\PSoC5/cyfitter_cfg.c **** }
 149:Generated_Source\PSoC5/cyfitter_cfg.c **** #endif
 150:Generated_Source\PSoC5/cyfitter_cfg.c **** 
 151:Generated_Source\PSoC5/cyfitter_cfg.c **** #define CY_CFG_BASE_ADDR_COUNT 36u
 152:Generated_Source\PSoC5/cyfitter_cfg.c **** CYPACKED typedef struct
 153:Generated_Source\PSoC5/cyfitter_cfg.c **** {
 154:Generated_Source\PSoC5/cyfitter_cfg.c **** 	uint8 offset;
 155:Generated_Source\PSoC5/cyfitter_cfg.c **** 	uint8 value;
 156:Generated_Source\PSoC5/cyfitter_cfg.c **** } CYPACKED_ATTR cy_cfg_addrvalue_t;
 157:Generated_Source\PSoC5/cyfitter_cfg.c **** 
 158:Generated_Source\PSoC5/cyfitter_cfg.c **** #define cy_cfg_addr_table ((const uint32 CYFAR *)0x48000000u)
 159:Generated_Source\PSoC5/cyfitter_cfg.c **** #define cy_cfg_data_table ((const cy_cfg_addrvalue_t CYFAR *)0x48000090u)
 160:Generated_Source\PSoC5/cyfitter_cfg.c **** 
 161:Generated_Source\PSoC5/cyfitter_cfg.c **** /* UDB_1_3_1_CONFIG Address: CYDEV_UCFG_B0_P2_U1_BASE Size (bytes): 128 */
 162:Generated_Source\PSoC5/cyfitter_cfg.c **** #define BS_UDB_1_3_1_CONFIG_VAL ((const uint8 CYFAR *)0x48000664u)
 163:Generated_Source\PSoC5/cyfitter_cfg.c **** 
 164:Generated_Source\PSoC5/cyfitter_cfg.c **** /* IOPINS0_0 Address: CYREG_PRT0_DM0 Size (bytes): 8 */
 165:Generated_Source\PSoC5/cyfitter_cfg.c **** #define BS_IOPINS0_0_VAL ((const uint8 CYFAR *)0x480006E4u)
 166:Generated_Source\PSoC5/cyfitter_cfg.c **** 
 167:Generated_Source\PSoC5/cyfitter_cfg.c **** /* IOPINS0_7 Address: CYREG_PRT12_DR Size (bytes): 10 */
 168:Generated_Source\PSoC5/cyfitter_cfg.c **** #define BS_IOPINS0_7_VAL ((const uint8 CYFAR *)0x480006ECu)
 169:Generated_Source\PSoC5/cyfitter_cfg.c **** 
 170:Generated_Source\PSoC5/cyfitter_cfg.c **** /* IOPINS0_8 Address: CYREG_PRT15_DM0 Size (bytes): 8 */
 171:Generated_Source\PSoC5/cyfitter_cfg.c **** #define BS_IOPINS0_8_VAL ((const uint8 CYFAR *)0x480006F8u)
 172:Generated_Source\PSoC5/cyfitter_cfg.c **** 
 173:Generated_Source\PSoC5/cyfitter_cfg.c **** /* IOPINS0_1 Address: CYREG_PRT1_DM0 Size (bytes): 8 */
 174:Generated_Source\PSoC5/cyfitter_cfg.c **** #define BS_IOPINS0_1_VAL ((const uint8 CYFAR *)0x48000700u)
 175:Generated_Source\PSoC5/cyfitter_cfg.c **** 
 176:Generated_Source\PSoC5/cyfitter_cfg.c **** /* IOPINS0_2 Address: CYREG_PRT2_DR Size (bytes): 10 */
 177:Generated_Source\PSoC5/cyfitter_cfg.c **** #define BS_IOPINS0_2_VAL ((const uint8 CYFAR *)0x48000708u)
 178:Generated_Source\PSoC5/cyfitter_cfg.c **** 
 179:Generated_Source\PSoC5/cyfitter_cfg.c **** /* IOPINS0_3 Address: CYREG_PRT3_DM0 Size (bytes): 8 */
 180:Generated_Source\PSoC5/cyfitter_cfg.c **** #define BS_IOPINS0_3_VAL ((const uint8 CYFAR *)0x48000714u)
 181:Generated_Source\PSoC5/cyfitter_cfg.c **** 
 182:Generated_Source\PSoC5/cyfitter_cfg.c **** /* CYDEV_CLKDIST_ACFG0_CFG0 Address: CYREG_CLKDIST_ACFG0_CFG0 Size (bytes): 4 */
 183:Generated_Source\PSoC5/cyfitter_cfg.c **** #define BS_CYDEV_CLKDIST_ACFG0_CFG0_VAL ((const uint8 CYFAR *)0x4800071Cu)
 184:Generated_Source\PSoC5/cyfitter_cfg.c **** 
 185:Generated_Source\PSoC5/cyfitter_cfg.c **** 
 186:Generated_Source\PSoC5/cyfitter_cfg.c **** /*******************************************************************************
 187:Generated_Source\PSoC5/cyfitter_cfg.c **** * Function Name: cfg_write_bytes32
 188:Generated_Source\PSoC5/cyfitter_cfg.c **** ********************************************************************************
 189:Generated_Source\PSoC5/cyfitter_cfg.c **** * Summary:
 190:Generated_Source\PSoC5/cyfitter_cfg.c **** *  This function is used for setting up the chip configuration areas that
 191:Generated_Source\PSoC5/cyfitter_cfg.c **** *  contain relatively sparse data.
 192:Generated_Source\PSoC5/cyfitter_cfg.c **** *
 193:Generated_Source\PSoC5/cyfitter_cfg.c **** * Parameters:
 194:Generated_Source\PSoC5/cyfitter_cfg.c **** *   void
 195:Generated_Source\PSoC5/cyfitter_cfg.c **** *
 196:Generated_Source\PSoC5/cyfitter_cfg.c **** * Return:
 197:Generated_Source\PSoC5/cyfitter_cfg.c **** *   void
 198:Generated_Source\PSoC5/cyfitter_cfg.c **** *
 199:Generated_Source\PSoC5/cyfitter_cfg.c **** *******************************************************************************/
 200:Generated_Source\PSoC5/cyfitter_cfg.c **** static void cfg_write_bytes32(const uint32 addr_table[], const cy_cfg_addrvalue_t data_table[]);
 201:Generated_Source\PSoC5/cyfitter_cfg.c **** static void cfg_write_bytes32(const uint32 addr_table[], const cy_cfg_addrvalue_t data_table[])
ARM GAS  C:\Users\larco\AppData\Local\Temp\ccTPadZ9.s 			page 5


 202:Generated_Source\PSoC5/cyfitter_cfg.c **** {
 203:Generated_Source\PSoC5/cyfitter_cfg.c **** 	/* For 32-bit little-endian architectures */
 204:Generated_Source\PSoC5/cyfitter_cfg.c **** 	uint32 i, j = 0u;
 205:Generated_Source\PSoC5/cyfitter_cfg.c **** 	for (i = 0u; i < CY_CFG_BASE_ADDR_COUNT; i++)
 206:Generated_Source\PSoC5/cyfitter_cfg.c **** 	{
 207:Generated_Source\PSoC5/cyfitter_cfg.c **** 		uint32 baseAddr = addr_table[i];
 208:Generated_Source\PSoC5/cyfitter_cfg.c **** 		uint8 count = (uint8)baseAddr;
 209:Generated_Source\PSoC5/cyfitter_cfg.c **** 		baseAddr &= 0xFFFFFF00u;
 210:Generated_Source\PSoC5/cyfitter_cfg.c **** 		while (count != 0u)
 211:Generated_Source\PSoC5/cyfitter_cfg.c **** 		{
 212:Generated_Source\PSoC5/cyfitter_cfg.c **** 			CY_SET_REG8((void *)(baseAddr + data_table[j].offset), data_table[j].value);
 213:Generated_Source\PSoC5/cyfitter_cfg.c **** 			j++;
 214:Generated_Source\PSoC5/cyfitter_cfg.c **** 			count--;
 215:Generated_Source\PSoC5/cyfitter_cfg.c **** 		}
 216:Generated_Source\PSoC5/cyfitter_cfg.c **** 	}
 217:Generated_Source\PSoC5/cyfitter_cfg.c **** }
 218:Generated_Source\PSoC5/cyfitter_cfg.c **** 
 219:Generated_Source\PSoC5/cyfitter_cfg.c **** /*******************************************************************************
 220:Generated_Source\PSoC5/cyfitter_cfg.c **** * Function Name: ClockSetup
 221:Generated_Source\PSoC5/cyfitter_cfg.c **** ********************************************************************************
 222:Generated_Source\PSoC5/cyfitter_cfg.c **** *
 223:Generated_Source\PSoC5/cyfitter_cfg.c **** * Summary:
 224:Generated_Source\PSoC5/cyfitter_cfg.c **** *  Performs the initialization of all of the clocks in the device based on the
 225:Generated_Source\PSoC5/cyfitter_cfg.c **** *  settings in the Clock tab of the DWR.  This includes enabling the requested
 226:Generated_Source\PSoC5/cyfitter_cfg.c **** *  clocks and setting the necessary dividers to produce the desired frequency. 
 227:Generated_Source\PSoC5/cyfitter_cfg.c **** *
 228:Generated_Source\PSoC5/cyfitter_cfg.c **** * Parameters:
 229:Generated_Source\PSoC5/cyfitter_cfg.c **** *  void
 230:Generated_Source\PSoC5/cyfitter_cfg.c **** *
 231:Generated_Source\PSoC5/cyfitter_cfg.c **** * Return:
 232:Generated_Source\PSoC5/cyfitter_cfg.c **** *  void
 233:Generated_Source\PSoC5/cyfitter_cfg.c **** *
 234:Generated_Source\PSoC5/cyfitter_cfg.c **** *******************************************************************************/
 235:Generated_Source\PSoC5/cyfitter_cfg.c **** static void ClockSetup(void);
 236:Generated_Source\PSoC5/cyfitter_cfg.c **** static void ClockSetup(void)
 237:Generated_Source\PSoC5/cyfitter_cfg.c **** {
 238:Generated_Source\PSoC5/cyfitter_cfg.c **** 	uint32 timeout;
 239:Generated_Source\PSoC5/cyfitter_cfg.c **** 	uint8 pllLock;
 240:Generated_Source\PSoC5/cyfitter_cfg.c **** 
 241:Generated_Source\PSoC5/cyfitter_cfg.c **** 
 242:Generated_Source\PSoC5/cyfitter_cfg.c **** 	/* Configure Digital Clocks based on settings from Clock DWR */
 243:Generated_Source\PSoC5/cyfitter_cfg.c **** 	CY_SET_XTND_REG16((void CYFAR *)(CYREG_CLKDIST_DCFG0_CFG0), 0x0000u);
 244:Generated_Source\PSoC5/cyfitter_cfg.c **** 	CY_SET_XTND_REG8((void CYFAR *)(CYREG_CLKDIST_DCFG0_CFG0 + 0x2u), 0x50u);
 245:Generated_Source\PSoC5/cyfitter_cfg.c **** 	CY_SET_XTND_REG16((void CYFAR *)(CYREG_CLKDIST_DCFG1_CFG0), 0x0013u);
 246:Generated_Source\PSoC5/cyfitter_cfg.c **** 	CY_SET_XTND_REG8((void CYFAR *)(CYREG_CLKDIST_DCFG1_CFG0 + 0x2u), 0x18u);
 247:Generated_Source\PSoC5/cyfitter_cfg.c **** 	CY_SET_XTND_REG16((void CYFAR *)(CYREG_CLKDIST_DCFG2_CFG0), 0x004Du);
 248:Generated_Source\PSoC5/cyfitter_cfg.c **** 	CY_SET_XTND_REG8((void CYFAR *)(CYREG_CLKDIST_DCFG2_CFG0 + 0x2u), 0x18u);
 249:Generated_Source\PSoC5/cyfitter_cfg.c **** 	CY_SET_XTND_REG16((void CYFAR *)(CYREG_CLKDIST_DCFG3_CFG0), 0x0054u);
 250:Generated_Source\PSoC5/cyfitter_cfg.c **** 	CY_SET_XTND_REG8((void CYFAR *)(CYREG_CLKDIST_DCFG3_CFG0 + 0x2u), 0x18u);
 251:Generated_Source\PSoC5/cyfitter_cfg.c **** 	CY_SET_XTND_REG16((void CYFAR *)(CYREG_CLKDIST_DCFG4_CFG0), 0xEA5Fu);
 252:Generated_Source\PSoC5/cyfitter_cfg.c **** 	CY_SET_XTND_REG8((void CYFAR *)(CYREG_CLKDIST_DCFG4_CFG0 + 0x2u), 0x19u);
 253:Generated_Source\PSoC5/cyfitter_cfg.c **** 
 254:Generated_Source\PSoC5/cyfitter_cfg.c **** 	/* Configure Analog Clocks based on settings from Clock DWR */
 255:Generated_Source\PSoC5/cyfitter_cfg.c **** 	CYCONFIGCPY((void CYFAR *)(CYREG_CLKDIST_ACFG0_CFG0), (const void CYFAR *)(BS_CYDEV_CLKDIST_ACFG0_
 256:Generated_Source\PSoC5/cyfitter_cfg.c **** 
 257:Generated_Source\PSoC5/cyfitter_cfg.c **** 	/* Configure ILO based on settings from Clock DWR */
 258:Generated_Source\PSoC5/cyfitter_cfg.c **** 	CY_SET_XTND_REG8((void CYFAR *)(CYREG_SLOWCLK_ILO_CR0), 0x02u);
ARM GAS  C:\Users\larco\AppData\Local\Temp\ccTPadZ9.s 			page 6


 259:Generated_Source\PSoC5/cyfitter_cfg.c **** 	CY_SET_XTND_REG8((void CYFAR *)(CYREG_CLKDIST_CR), 0x08u);
 260:Generated_Source\PSoC5/cyfitter_cfg.c **** 
 261:Generated_Source\PSoC5/cyfitter_cfg.c **** 	/* Configure IMO based on settings from Clock DWR */
 262:Generated_Source\PSoC5/cyfitter_cfg.c **** 	CY_SET_XTND_REG8((void CYFAR *)(CYREG_FASTCLK_IMO_CR), 0x03u);
 263:Generated_Source\PSoC5/cyfitter_cfg.c **** 	CY_SET_XTND_REG8((void CYFAR *)(CYREG_IMO_TR1), (CY_GET_XTND_REG8((void CYFAR *)CYREG_FLSHID_CUST_
 264:Generated_Source\PSoC5/cyfitter_cfg.c **** 
 265:Generated_Source\PSoC5/cyfitter_cfg.c **** 	/* Configure PLL based on settings from Clock DWR */
 266:Generated_Source\PSoC5/cyfitter_cfg.c **** 	CY_SET_XTND_REG16((void CYFAR *)(CYREG_FASTCLK_PLL_P), 0x001Au);
 267:Generated_Source\PSoC5/cyfitter_cfg.c **** 	CY_SET_XTND_REG16((void CYFAR *)(CYREG_FASTCLK_PLL_CFG0), 0x2251u);
 268:Generated_Source\PSoC5/cyfitter_cfg.c **** 	/* Wait up to 250us for the PLL to lock */
 269:Generated_Source\PSoC5/cyfitter_cfg.c **** 	pllLock = 0u;
 270:Generated_Source\PSoC5/cyfitter_cfg.c **** 	for (timeout = 250u / 10u; (timeout > 0u) && (pllLock != 0x03u); timeout--)
 271:Generated_Source\PSoC5/cyfitter_cfg.c **** 	{ 
 272:Generated_Source\PSoC5/cyfitter_cfg.c **** 		pllLock = 0x03u & ((uint8)((uint8)pllLock << 1) | ((CY_GET_XTND_REG8((void CYFAR *)CYREG_FASTCLK_
 273:Generated_Source\PSoC5/cyfitter_cfg.c **** 		CyDelayCycles(10u * 48u); /* Delay 10us based on 48MHz clock */
 274:Generated_Source\PSoC5/cyfitter_cfg.c **** 	}
 275:Generated_Source\PSoC5/cyfitter_cfg.c **** 	/* If we ran out of time the PLL didn't lock so go to the error function */
 276:Generated_Source\PSoC5/cyfitter_cfg.c **** 	if (timeout == 0u)
 277:Generated_Source\PSoC5/cyfitter_cfg.c **** 	{
 278:Generated_Source\PSoC5/cyfitter_cfg.c **** 		CyClockStartupError(CYCLOCKSTART_PLL_ERROR);
 279:Generated_Source\PSoC5/cyfitter_cfg.c **** 	}
 280:Generated_Source\PSoC5/cyfitter_cfg.c **** 
 281:Generated_Source\PSoC5/cyfitter_cfg.c **** 	/* Configure Bus/Master Clock based on settings from Clock DWR */
 282:Generated_Source\PSoC5/cyfitter_cfg.c **** 	CY_SET_XTND_REG16((void CYFAR *)(CYREG_CLKDIST_MSTR0), 0x0100u);
 283:Generated_Source\PSoC5/cyfitter_cfg.c **** 	CY_SET_XTND_REG8((void CYFAR *)(CYREG_CLKDIST_MSTR0), 0x07u);
 284:Generated_Source\PSoC5/cyfitter_cfg.c **** 	CY_SET_XTND_REG8((void CYFAR *)(CYREG_CLKDIST_BCFG0), 0x00u);
 285:Generated_Source\PSoC5/cyfitter_cfg.c **** 	CY_SET_XTND_REG8((void CYFAR *)(CYREG_CLKDIST_BCFG2), 0x48u);
 286:Generated_Source\PSoC5/cyfitter_cfg.c **** 	CY_SET_XTND_REG8((void CYFAR *)(CYREG_CLKDIST_MSTR0), 0x00u);
 287:Generated_Source\PSoC5/cyfitter_cfg.c **** 	CY_SET_XTND_REG8((void CYFAR *)(CYREG_CLKDIST_LD), 0x02u);
 288:Generated_Source\PSoC5/cyfitter_cfg.c **** 	CY_SET_XTND_REG8((void CYFAR *)(CYREG_CLKDIST_DLY1), 0x04u);
 289:Generated_Source\PSoC5/cyfitter_cfg.c **** 
 290:Generated_Source\PSoC5/cyfitter_cfg.c **** 	CY_SET_XTND_REG8((void CYFAR *)(CYREG_PM_ACT_CFG2), ((CY_GET_XTND_REG8((void CYFAR *)CYREG_PM_ACT_
 291:Generated_Source\PSoC5/cyfitter_cfg.c **** 	CY_SET_XTND_REG8((void CYFAR *)(CYREG_PM_ACT_CFG1), ((CY_GET_XTND_REG8((void CYFAR *)CYREG_PM_ACT_
 292:Generated_Source\PSoC5/cyfitter_cfg.c **** 	CY_SET_XTND_REG8((void CYFAR *)(CYREG_PM_ACT_CFG0), ((CY_GET_XTND_REG8((void CYFAR *)CYREG_PM_ACT_
 293:Generated_Source\PSoC5/cyfitter_cfg.c **** }
 294:Generated_Source\PSoC5/cyfitter_cfg.c **** 
 295:Generated_Source\PSoC5/cyfitter_cfg.c **** 
 296:Generated_Source\PSoC5/cyfitter_cfg.c **** /* Analog API Functions */
 297:Generated_Source\PSoC5/cyfitter_cfg.c **** 
 298:Generated_Source\PSoC5/cyfitter_cfg.c **** 
 299:Generated_Source\PSoC5/cyfitter_cfg.c **** /*******************************************************************************
 300:Generated_Source\PSoC5/cyfitter_cfg.c **** * Function Name: AnalogSetDefault
 301:Generated_Source\PSoC5/cyfitter_cfg.c **** ********************************************************************************
 302:Generated_Source\PSoC5/cyfitter_cfg.c **** *
 303:Generated_Source\PSoC5/cyfitter_cfg.c **** * Summary:
 304:Generated_Source\PSoC5/cyfitter_cfg.c **** *  Sets up the analog portions of the chip to default values based on chip
 305:Generated_Source\PSoC5/cyfitter_cfg.c **** *  configuration options from the project.
 306:Generated_Source\PSoC5/cyfitter_cfg.c **** *
 307:Generated_Source\PSoC5/cyfitter_cfg.c **** * Parameters:
 308:Generated_Source\PSoC5/cyfitter_cfg.c **** *  void
 309:Generated_Source\PSoC5/cyfitter_cfg.c **** *
 310:Generated_Source\PSoC5/cyfitter_cfg.c **** * Return:
 311:Generated_Source\PSoC5/cyfitter_cfg.c **** *  void
 312:Generated_Source\PSoC5/cyfitter_cfg.c **** *
 313:Generated_Source\PSoC5/cyfitter_cfg.c **** *******************************************************************************/
 314:Generated_Source\PSoC5/cyfitter_cfg.c **** static void AnalogSetDefault(void);
 315:Generated_Source\PSoC5/cyfitter_cfg.c **** static void AnalogSetDefault(void)
ARM GAS  C:\Users\larco\AppData\Local\Temp\ccTPadZ9.s 			page 7


 316:Generated_Source\PSoC5/cyfitter_cfg.c **** {
 317:Generated_Source\PSoC5/cyfitter_cfg.c **** 	uint8 bg_xover_inl_trim = CY_GET_XTND_REG8((void CYFAR *)(CYREG_FLSHID_MFG_CFG_BG_XOVER_INL_TRIM +
 318:Generated_Source\PSoC5/cyfitter_cfg.c **** 	CY_SET_XTND_REG8((void CYFAR *)(CYREG_BG_DFT0), (bg_xover_inl_trim & 0x07u));
 319:Generated_Source\PSoC5/cyfitter_cfg.c **** 	CY_SET_XTND_REG8((void CYFAR *)(CYREG_BG_DFT1), ((bg_xover_inl_trim >> 4) & 0x0Fu));
 320:Generated_Source\PSoC5/cyfitter_cfg.c **** 	CY_SET_XTND_REG8((void CYFAR *)CYREG_CMP2_CR, 0x02u);
 321:Generated_Source\PSoC5/cyfitter_cfg.c **** 	CY_SET_XTND_REG8((void CYFAR *)CYREG_PM_ACT_CFG7, 0x04u);
 322:Generated_Source\PSoC5/cyfitter_cfg.c **** 	CY_SET_XTND_REG8((void CYFAR *)CYREG_PRT0_AG, 0x01u);
 323:Generated_Source\PSoC5/cyfitter_cfg.c **** 	CY_SET_XTND_REG8((void CYFAR *)CYREG_PRT1_AG, 0xC0u);
 324:Generated_Source\PSoC5/cyfitter_cfg.c **** 	CY_SET_XTND_REG8((void CYFAR *)CYREG_SC1_SW0, 0x04u);
 325:Generated_Source\PSoC5/cyfitter_cfg.c **** 	CY_SET_XTND_REG8((void CYFAR *)CYREG_SC1_SW3, 0x20u);
 326:Generated_Source\PSoC5/cyfitter_cfg.c **** 	CY_SET_XTND_REG8((void CYFAR *)CYREG_SC1_SW8, 0x08u);
 327:Generated_Source\PSoC5/cyfitter_cfg.c **** 	CY_SET_XTND_REG8((void CYFAR *)CYREG_DAC2_SW0, 0x10u);
 328:Generated_Source\PSoC5/cyfitter_cfg.c **** 	CY_SET_XTND_REG8((void CYFAR *)CYREG_CMP2_SW3, 0x20u);
 329:Generated_Source\PSoC5/cyfitter_cfg.c **** 	CY_SET_XTND_REG8((void CYFAR *)CYREG_CMP2_SW4, 0x20u);
 330:Generated_Source\PSoC5/cyfitter_cfg.c **** 	CY_SET_XTND_REG8((void CYFAR *)CYREG_DSM0_SW0, 0x08u);
 331:Generated_Source\PSoC5/cyfitter_cfg.c **** 	CY_SET_XTND_REG8((void CYFAR *)CYREG_DSM0_SW4, 0x20u);
 332:Generated_Source\PSoC5/cyfitter_cfg.c **** 	CY_SET_XTND_REG8((void CYFAR *)CYREG_BUS_SW0, 0x08u);
 333:Generated_Source\PSoC5/cyfitter_cfg.c **** 	CY_SET_XTND_REG8((void CYFAR *)CYREG_PUMP_CR0, 0x44u);
 334:Generated_Source\PSoC5/cyfitter_cfg.c **** }
 335:Generated_Source\PSoC5/cyfitter_cfg.c **** 
 336:Generated_Source\PSoC5/cyfitter_cfg.c **** 
 337:Generated_Source\PSoC5/cyfitter_cfg.c **** /*******************************************************************************
 338:Generated_Source\PSoC5/cyfitter_cfg.c **** * Function Name: SetAnalogRoutingPumps
 339:Generated_Source\PSoC5/cyfitter_cfg.c **** ********************************************************************************
 340:Generated_Source\PSoC5/cyfitter_cfg.c **** *
 341:Generated_Source\PSoC5/cyfitter_cfg.c **** * Summary:
 342:Generated_Source\PSoC5/cyfitter_cfg.c **** * Enables or disables the analog pumps feeding analog routing switches.
 343:Generated_Source\PSoC5/cyfitter_cfg.c **** * Intended to be called at startup, based on the Vdda system configuration;
 344:Generated_Source\PSoC5/cyfitter_cfg.c **** * may be called during operation when the user informs us that the Vdda voltage
 345:Generated_Source\PSoC5/cyfitter_cfg.c **** * crossed the pump threshold.
 346:Generated_Source\PSoC5/cyfitter_cfg.c **** *
 347:Generated_Source\PSoC5/cyfitter_cfg.c **** * Parameters:
 348:Generated_Source\PSoC5/cyfitter_cfg.c **** *  enabled - 1 to enable the pumps, 0 to disable the pumps
 349:Generated_Source\PSoC5/cyfitter_cfg.c **** *
 350:Generated_Source\PSoC5/cyfitter_cfg.c **** * Return:
 351:Generated_Source\PSoC5/cyfitter_cfg.c **** *  void
 352:Generated_Source\PSoC5/cyfitter_cfg.c **** *
 353:Generated_Source\PSoC5/cyfitter_cfg.c **** *******************************************************************************/
 354:Generated_Source\PSoC5/cyfitter_cfg.c **** void SetAnalogRoutingPumps(uint8 enabled)
 355:Generated_Source\PSoC5/cyfitter_cfg.c **** {
  28              		.loc 1 355 0
  29              		.cfi_startproc
  30              		@ args = 0, pretend = 0, frame = 0
  31              		@ frame_needed = 0, uses_anonymous_args = 0
  32              		@ link register save eliminated.
  33              	.LVL0:
 356:Generated_Source\PSoC5/cyfitter_cfg.c **** 	uint8 regValue = CY_GET_XTND_REG8((void CYFAR *)CYREG_PUMP_CR0);
  34              		.loc 1 356 0
  35 0000 064B     		ldr	r3, .L6
  36 0002 1B78     		ldrb	r3, [r3]	@ zero_extendqisi2
  37 0004 DBB2     		uxtb	r3, r3
  38              	.LVL1:
 357:Generated_Source\PSoC5/cyfitter_cfg.c **** 	if (enabled != 0u)
  39              		.loc 1 357 0
  40 0006 20B9     		cbnz	r0, .L5
 358:Generated_Source\PSoC5/cyfitter_cfg.c **** 	{
 359:Generated_Source\PSoC5/cyfitter_cfg.c **** 		regValue |= 0x22u;
ARM GAS  C:\Users\larco\AppData\Local\Temp\ccTPadZ9.s 			page 8


 360:Generated_Source\PSoC5/cyfitter_cfg.c **** 	}
 361:Generated_Source\PSoC5/cyfitter_cfg.c **** 	else
 362:Generated_Source\PSoC5/cyfitter_cfg.c **** 	{
 363:Generated_Source\PSoC5/cyfitter_cfg.c **** 		regValue &= (uint8)~0x22u;
 364:Generated_Source\PSoC5/cyfitter_cfg.c **** 	}
 365:Generated_Source\PSoC5/cyfitter_cfg.c **** 	CY_SET_XTND_REG8((void CYFAR *)CYREG_PUMP_CR0, regValue);
  41              		.loc 1 365 0
  42 0008 044A     		ldr	r2, .L6
 363:Generated_Source\PSoC5/cyfitter_cfg.c **** 	}
  43              		.loc 1 363 0
  44 000a 03F0DD03 		and	r3, r3, #221
  45              	.LVL2:
  46              		.loc 1 365 0
  47 000e 1370     		strb	r3, [r2]
  48 0010 7047     		bx	lr
  49              	.L5:
  50 0012 024A     		ldr	r2, .L6
 359:Generated_Source\PSoC5/cyfitter_cfg.c **** 	}
  51              		.loc 1 359 0
  52 0014 43F02203 		orr	r3, r3, #34
  53              	.LVL3:
  54              		.loc 1 365 0
  55 0018 1370     		strb	r3, [r2]
  56 001a 7047     		bx	lr
  57              	.L7:
  58              		.align	2
  59              	.L6:
  60 001c 76580040 		.word	1073764470
  61              		.cfi_endproc
  62              	.LFE7:
  63              		.size	SetAnalogRoutingPumps, .-SetAnalogRoutingPumps
  64              		.section	.text.cyfitter_cfg,"ax",%progbits
  65              		.align	2
  66              		.global	cyfitter_cfg
  67              		.thumb
  68              		.thumb_func
  69              		.type	cyfitter_cfg, %function
  70              	cyfitter_cfg:
  71              	.LFB8:
 366:Generated_Source\PSoC5/cyfitter_cfg.c **** }
 367:Generated_Source\PSoC5/cyfitter_cfg.c **** 
 368:Generated_Source\PSoC5/cyfitter_cfg.c **** 
 369:Generated_Source\PSoC5/cyfitter_cfg.c **** 
 370:Generated_Source\PSoC5/cyfitter_cfg.c **** 
 371:Generated_Source\PSoC5/cyfitter_cfg.c **** /*******************************************************************************
 372:Generated_Source\PSoC5/cyfitter_cfg.c **** * Function Name: cyfitter_cfg
 373:Generated_Source\PSoC5/cyfitter_cfg.c **** ********************************************************************************
 374:Generated_Source\PSoC5/cyfitter_cfg.c **** * Summary:
 375:Generated_Source\PSoC5/cyfitter_cfg.c **** *  This function is called by the start-up code for the selected device. It
 376:Generated_Source\PSoC5/cyfitter_cfg.c **** *  performs all of the necessary device configuration based on the design
 377:Generated_Source\PSoC5/cyfitter_cfg.c **** *  settings.  This includes settings from the Design Wide Resources (DWR) such
 378:Generated_Source\PSoC5/cyfitter_cfg.c **** *  as Clocks and Pins as well as any component configuration that is necessary.
 379:Generated_Source\PSoC5/cyfitter_cfg.c **** *
 380:Generated_Source\PSoC5/cyfitter_cfg.c **** * Parameters:
 381:Generated_Source\PSoC5/cyfitter_cfg.c **** *   void
 382:Generated_Source\PSoC5/cyfitter_cfg.c **** *
 383:Generated_Source\PSoC5/cyfitter_cfg.c **** * Return:
ARM GAS  C:\Users\larco\AppData\Local\Temp\ccTPadZ9.s 			page 9


 384:Generated_Source\PSoC5/cyfitter_cfg.c **** *   void
 385:Generated_Source\PSoC5/cyfitter_cfg.c **** *
 386:Generated_Source\PSoC5/cyfitter_cfg.c **** *******************************************************************************/
 387:Generated_Source\PSoC5/cyfitter_cfg.c **** 
 388:Generated_Source\PSoC5/cyfitter_cfg.c **** void cyfitter_cfg(void)
 389:Generated_Source\PSoC5/cyfitter_cfg.c **** {
  72              		.loc 1 389 0
  73              		.cfi_startproc
  74              		@ args = 0, pretend = 0, frame = 0
  75              		@ frame_needed = 0, uses_anonymous_args = 0
  76 0000 2DE9F041 		push	{r4, r5, r6, r7, r8, lr}
  77              		.cfi_def_cfa_offset 24
  78              		.cfi_offset 4, -24
  79              		.cfi_offset 5, -20
  80              		.cfi_offset 6, -16
  81              		.cfi_offset 7, -12
  82              		.cfi_offset 8, -8
  83              		.cfi_offset 14, -4
 390:Generated_Source\PSoC5/cyfitter_cfg.c **** #ifdef CYGlobalIntDisable
 391:Generated_Source\PSoC5/cyfitter_cfg.c **** 	/* Disable interrupts by default. Let user enable if/when they want. */
 392:Generated_Source\PSoC5/cyfitter_cfg.c **** 	CYGlobalIntDisable
  84              		.loc 1 392 0
  85              		.syntax unified
  86              	@ 392 "Generated_Source\PSoC5\cyfitter_cfg.c" 1
  87 0004 72B6     		CPSID   i
  88              	@ 0 "" 2
  89              		.thumb
  90              		.syntax unified
  91              	.LBB64:
  92              	.LBB65:
 251:Generated_Source\PSoC5/cyfitter_cfg.c **** 	CY_SET_XTND_REG8((void CYFAR *)(CYREG_CLKDIST_DCFG4_CFG0 + 0x2u), 0x19u);
  93              		.loc 1 251 0
  94 0006 4EF65F27 		movw	r7, #59999
 267:Generated_Source\PSoC5/cyfitter_cfg.c **** 	/* Wait up to 250us for the PLL to lock */
  95              		.loc 1 267 0
  96 000a 42F25124 		movw	r4, #8785
  97              	.LBE65:
  98              	.LBE64:
 393:Generated_Source\PSoC5/cyfitter_cfg.c **** #endif
 394:Generated_Source\PSoC5/cyfitter_cfg.c **** 
 395:Generated_Source\PSoC5/cyfitter_cfg.c **** 
 396:Generated_Source\PSoC5/cyfitter_cfg.c **** 	/* Set Flash Cycles based on max possible frequency in case a glitch occurs during ClockSetup(). *
 397:Generated_Source\PSoC5/cyfitter_cfg.c **** 	CY_SET_XTND_REG8((void CYFAR *)(CYREG_CACHE_CC_CTL), (((CYDEV_INSTRUCT_CACHE_ENABLED) != 0) ? 0x61
  99              		.loc 1 397 0
 100 000e 9E48     		ldr	r0, .L30
 101              	.LBB71:
 102              	.LBB68:
 243:Generated_Source\PSoC5/cyfitter_cfg.c **** 	CY_SET_XTND_REG8((void CYFAR *)(CYREG_CLKDIST_DCFG0_CFG0 + 0x2u), 0x50u);
 103              		.loc 1 243 0
 104 0010 9E49     		ldr	r1, .L30+4
 105              	.LBE68:
 106              	.LBE71:
 107              		.loc 1 397 0
 108 0012 6126     		movs	r6, #97
 109 0014 0670     		strb	r6, [r0]
 110              	.LBB72:
 111              	.LBB69:
ARM GAS  C:\Users\larco\AppData\Local\Temp\ccTPadZ9.s 			page 10


 244:Generated_Source\PSoC5/cyfitter_cfg.c **** 	CY_SET_XTND_REG16((void CYFAR *)(CYREG_CLKDIST_DCFG1_CFG0), 0x0013u);
 112              		.loc 1 244 0
 113 0016 9E4A     		ldr	r2, .L30+8
 243:Generated_Source\PSoC5/cyfitter_cfg.c **** 	CY_SET_XTND_REG8((void CYFAR *)(CYREG_CLKDIST_DCFG0_CFG0 + 0x2u), 0x50u);
 114              		.loc 1 243 0
 115 0018 0026     		movs	r6, #0
 116 001a 0E80     		strh	r6, [r1]	@ movhi
 245:Generated_Source\PSoC5/cyfitter_cfg.c **** 	CY_SET_XTND_REG8((void CYFAR *)(CYREG_CLKDIST_DCFG1_CFG0 + 0x2u), 0x18u);
 117              		.loc 1 245 0
 118 001c 9D4B     		ldr	r3, .L30+12
 244:Generated_Source\PSoC5/cyfitter_cfg.c **** 	CY_SET_XTND_REG16((void CYFAR *)(CYREG_CLKDIST_DCFG1_CFG0), 0x0013u);
 119              		.loc 1 244 0
 120 001e 5026     		movs	r6, #80
 121 0020 1670     		strb	r6, [r2]
 246:Generated_Source\PSoC5/cyfitter_cfg.c **** 	CY_SET_XTND_REG16((void CYFAR *)(CYREG_CLKDIST_DCFG2_CFG0), 0x004Du);
 122              		.loc 1 246 0
 123 0022 9D4D     		ldr	r5, .L30+16
 245:Generated_Source\PSoC5/cyfitter_cfg.c **** 	CY_SET_XTND_REG8((void CYFAR *)(CYREG_CLKDIST_DCFG1_CFG0 + 0x2u), 0x18u);
 124              		.loc 1 245 0
 125 0024 1326     		movs	r6, #19
 126 0026 1E80     		strh	r6, [r3]	@ movhi
 246:Generated_Source\PSoC5/cyfitter_cfg.c **** 	CY_SET_XTND_REG16((void CYFAR *)(CYREG_CLKDIST_DCFG2_CFG0), 0x004Du);
 127              		.loc 1 246 0
 128 0028 1823     		movs	r3, #24
 129 002a 2B70     		strb	r3, [r5]
 247:Generated_Source\PSoC5/cyfitter_cfg.c **** 	CY_SET_XTND_REG8((void CYFAR *)(CYREG_CLKDIST_DCFG2_CFG0 + 0x2u), 0x18u);
 130              		.loc 1 247 0
 131 002c A0F5EF60 		sub	r0, r0, #1912
 132 0030 4D25     		movs	r5, #77
 133 0032 0580     		strh	r5, [r0]	@ movhi
 250:Generated_Source\PSoC5/cyfitter_cfg.c **** 	CY_SET_XTND_REG16((void CYFAR *)(CYREG_CLKDIST_DCFG4_CFG0), 0xEA5Fu);
 134              		.loc 1 250 0
 135 0034 994E     		ldr	r6, .L30+20
 251:Generated_Source\PSoC5/cyfitter_cfg.c **** 	CY_SET_XTND_REG8((void CYFAR *)(CYREG_CLKDIST_DCFG4_CFG0 + 0x2u), 0x19u);
 136              		.loc 1 251 0
 137 0036 9A4D     		ldr	r5, .L30+24
 248:Generated_Source\PSoC5/cyfitter_cfg.c **** 	CY_SET_XTND_REG16((void CYFAR *)(CYREG_CLKDIST_DCFG3_CFG0), 0x0054u);
 138              		.loc 1 248 0
 139 0038 8B72     		strb	r3, [r1, #10]
 249:Generated_Source\PSoC5/cyfitter_cfg.c **** 	CY_SET_XTND_REG8((void CYFAR *)(CYREG_CLKDIST_DCFG3_CFG0 + 0x2u), 0x18u);
 140              		.loc 1 249 0
 141 003a 5421     		movs	r1, #84
 142 003c 5181     		strh	r1, [r2, #10]	@ movhi
 250:Generated_Source\PSoC5/cyfitter_cfg.c **** 	CY_SET_XTND_REG16((void CYFAR *)(CYREG_CLKDIST_DCFG4_CFG0), 0xEA5Fu);
 143              		.loc 1 250 0
 144 003e 3370     		strb	r3, [r6]
 262:Generated_Source\PSoC5/cyfitter_cfg.c **** 	CY_SET_XTND_REG8((void CYFAR *)(CYREG_IMO_TR1), (CY_GET_XTND_REG8((void CYFAR *)CYREG_FLSHID_CUST_
 145              		.loc 1 262 0
 146 0040 9849     		ldr	r1, .L30+28
 251:Generated_Source\PSoC5/cyfitter_cfg.c **** 	CY_SET_XTND_REG8((void CYFAR *)(CYREG_CLKDIST_DCFG4_CFG0 + 0x2u), 0x19u);
 147              		.loc 1 251 0
 148 0042 2F80     		strh	r7, [r5]	@ movhi
 252:Generated_Source\PSoC5/cyfitter_cfg.c **** 
 149              		.loc 1 252 0
 150 0044 1926     		movs	r6, #25
 258:Generated_Source\PSoC5/cyfitter_cfg.c **** 	CY_SET_XTND_REG8((void CYFAR *)(CYREG_CLKDIST_CR), 0x08u);
 151              		.loc 1 258 0
ARM GAS  C:\Users\larco\AppData\Local\Temp\ccTPadZ9.s 			page 11


 152 0046 0227     		movs	r7, #2
 252:Generated_Source\PSoC5/cyfitter_cfg.c **** 
 153              		.loc 1 252 0
 154 0048 8672     		strb	r6, [r0, #10]
 155              	.LVL4:
 259:Generated_Source\PSoC5/cyfitter_cfg.c **** 
 156              		.loc 1 259 0
 157 004a 4FF04025 		mov	r5, #1073758208
 258:Generated_Source\PSoC5/cyfitter_cfg.c **** 	CY_SET_XTND_REG8((void CYFAR *)(CYREG_CLKDIST_CR), 0x08u);
 158              		.loc 1 258 0
 159 004e 82F87E72 		strb	r7, [r2, #638]
 259:Generated_Source\PSoC5/cyfitter_cfg.c **** 
 160              		.loc 1 259 0
 161 0052 0826     		movs	r6, #8
 262:Generated_Source\PSoC5/cyfitter_cfg.c **** 	CY_SET_XTND_REG8((void CYFAR *)(CYREG_IMO_TR1), (CY_GET_XTND_REG8((void CYFAR *)CYREG_FLSHID_CUST_
 162              		.loc 1 262 0
 163 0054 0320     		movs	r0, #3
 263:Generated_Source\PSoC5/cyfitter_cfg.c **** 
 164              		.loc 1 263 0
 165 0056 944A     		ldr	r2, .L30+32
 259:Generated_Source\PSoC5/cyfitter_cfg.c **** 
 166              		.loc 1 259 0
 167 0058 2E70     		strb	r6, [r5]
 262:Generated_Source\PSoC5/cyfitter_cfg.c **** 	CY_SET_XTND_REG8((void CYFAR *)(CYREG_IMO_TR1), (CY_GET_XTND_REG8((void CYFAR *)CYREG_FLSHID_CUST_
 168              		.loc 1 262 0
 169 005a 0870     		strb	r0, [r1]
 263:Generated_Source\PSoC5/cyfitter_cfg.c **** 
 170              		.loc 1 263 0
 171 005c 1278     		ldrb	r2, [r2]	@ zero_extendqisi2
 172 005e 934F     		ldr	r7, .L30+36
 173 0060 D2B2     		uxtb	r2, r2
 266:Generated_Source\PSoC5/cyfitter_cfg.c **** 	CY_SET_XTND_REG16((void CYFAR *)(CYREG_FASTCLK_PLL_CFG0), 0x2251u);
 174              		.loc 1 266 0
 175 0062 1A26     		movs	r6, #26
 176 0064 9248     		ldr	r0, .L30+40
 263:Generated_Source\PSoC5/cyfitter_cfg.c **** 
 177              		.loc 1 263 0
 178 0066 3A70     		strb	r2, [r7]
 266:Generated_Source\PSoC5/cyfitter_cfg.c **** 	CY_SET_XTND_REG16((void CYFAR *)(CYREG_FASTCLK_PLL_CFG0), 0x2251u);
 179              		.loc 1 266 0
 180 0068 A5F82262 		strh	r6, [r5, #546]	@ movhi
 272:Generated_Source\PSoC5/cyfitter_cfg.c **** 		CyDelayCycles(10u * 48u); /* Delay 10us based on 48MHz clock */
 181              		.loc 1 272 0
 182 006c 914A     		ldr	r2, .L30+44
 183 006e 0068     		ldr	r0, [r0]
 267:Generated_Source\PSoC5/cyfitter_cfg.c **** 	/* Wait up to 250us for the PLL to lock */
 184              		.loc 1 267 0
 185 0070 0C84     		strh	r4, [r1, #32]	@ movhi
 272:Generated_Source\PSoC5/cyfitter_cfg.c **** 		CyDelayCycles(10u * 48u); /* Delay 10us based on 48MHz clock */
 186              		.loc 1 272 0
 187 0072 1578     		ldrb	r5, [r2]	@ zero_extendqisi2
 188              	.LBB66:
 189              	.LBB67:
  86:Generated_Source\PSoC5/cyfitter_cfg.c **** }
 190              		.loc 1 86 0
 191 0074 A1F58071 		sub	r1, r1, #256
 192 0078 0860     		str	r0, [r1]
ARM GAS  C:\Users\larco\AppData\Local\Temp\ccTPadZ9.s 			page 12


 193              	.LVL5:
 194              	.LBE67:
 195              	.LBE66:
 273:Generated_Source\PSoC5/cyfitter_cfg.c **** 	}
 196              		.loc 1 273 0
 197 007a 4FF4F070 		mov	r0, #480
 198 007e 1C46     		mov	r4, r3
 272:Generated_Source\PSoC5/cyfitter_cfg.c **** 		CyDelayCycles(10u * 48u); /* Delay 10us based on 48MHz clock */
 199              		.loc 1 272 0
 200 0080 05F00105 		and	r5, r5, #1
 201              	.LVL6:
 202 0084 1646     		mov	r6, r2
 273:Generated_Source\PSoC5/cyfitter_cfg.c **** 	}
 203              		.loc 1 273 0
 204 0086 FFF7FEFF 		bl	CyDelayCycles
 205              	.LVL7:
 206 008a 01E0     		b	.L10
 207              	.L29:
 270:Generated_Source\PSoC5/cyfitter_cfg.c **** 	{ 
 208              		.loc 1 270 0
 209 008c 032D     		cmp	r5, #3
 210 008e 0DD0     		beq	.L28
 211              	.L10:
 272:Generated_Source\PSoC5/cyfitter_cfg.c **** 		CyDelayCycles(10u * 48u); /* Delay 10us based on 48MHz clock */
 212              		.loc 1 272 0
 213 0090 3378     		ldrb	r3, [r6]	@ zero_extendqisi2
 273:Generated_Source\PSoC5/cyfitter_cfg.c **** 	}
 214              		.loc 1 273 0
 215 0092 4FF4F070 		mov	r0, #480
 272:Generated_Source\PSoC5/cyfitter_cfg.c **** 		CyDelayCycles(10u * 48u); /* Delay 10us based on 48MHz clock */
 216              		.loc 1 272 0
 217 0096 03F00103 		and	r3, r3, #1
 218 009a 43EA4505 		orr	r5, r3, r5, lsl #1
 219              	.LVL8:
 273:Generated_Source\PSoC5/cyfitter_cfg.c **** 	}
 220              		.loc 1 273 0
 221 009e FFF7FEFF 		bl	CyDelayCycles
 222              	.LVL9:
 270:Generated_Source\PSoC5/cyfitter_cfg.c **** 	{ 
 223              		.loc 1 270 0
 224 00a2 013C     		subs	r4, r4, #1
 272:Generated_Source\PSoC5/cyfitter_cfg.c **** 		CyDelayCycles(10u * 48u); /* Delay 10us based on 48MHz clock */
 225              		.loc 1 272 0
 226 00a4 05F00305 		and	r5, r5, #3
 227              	.LVL10:
 270:Generated_Source\PSoC5/cyfitter_cfg.c **** 	{ 
 228              		.loc 1 270 0
 229 00a8 F0D1     		bne	.L29
 230              	.L9:
 231 00aa FEE7     		b	.L9
 232              	.L28:
 233 00ac 824E     		ldr	r6, .L30+48
 282:Generated_Source\PSoC5/cyfitter_cfg.c **** 	CY_SET_XTND_REG8((void CYFAR *)(CYREG_CLKDIST_MSTR0), 0x07u);
 234              		.loc 1 282 0
 235 00ae 834B     		ldr	r3, .L30+52
 236 00b0 3546     		mov	r5, r6
 237              	.LVL11:
ARM GAS  C:\Users\larco\AppData\Local\Temp\ccTPadZ9.s 			page 13


 284:Generated_Source\PSoC5/cyfitter_cfg.c **** 	CY_SET_XTND_REG8((void CYFAR *)(CYREG_CLKDIST_BCFG2), 0x48u);
 238              		.loc 1 284 0
 239 00b2 8348     		ldr	r0, .L30+56
 282:Generated_Source\PSoC5/cyfitter_cfg.c **** 	CY_SET_XTND_REG8((void CYFAR *)(CYREG_CLKDIST_MSTR0), 0x07u);
 240              		.loc 1 282 0
 241 00b4 4FF48077 		mov	r7, #256
 242 00b8 1F80     		strh	r7, [r3]	@ movhi
 285:Generated_Source\PSoC5/cyfitter_cfg.c **** 	CY_SET_XTND_REG8((void CYFAR *)(CYREG_CLKDIST_MSTR0), 0x00u);
 243              		.loc 1 285 0
 244 00ba 8249     		ldr	r1, .L30+60
 284:Generated_Source\PSoC5/cyfitter_cfg.c **** 	CY_SET_XTND_REG8((void CYFAR *)(CYREG_CLKDIST_BCFG2), 0x48u);
 245              		.loc 1 284 0
 246 00bc 0022     		movs	r2, #0
 283:Generated_Source\PSoC5/cyfitter_cfg.c **** 	CY_SET_XTND_REG8((void CYFAR *)(CYREG_CLKDIST_BCFG0), 0x00u);
 247              		.loc 1 283 0
 248 00be 0727     		movs	r7, #7
 249 00c0 1F70     		strb	r7, [r3]
 284:Generated_Source\PSoC5/cyfitter_cfg.c **** 	CY_SET_XTND_REG8((void CYFAR *)(CYREG_CLKDIST_BCFG2), 0x48u);
 250              		.loc 1 284 0
 251 00c2 0270     		strb	r2, [r0]
 285:Generated_Source\PSoC5/cyfitter_cfg.c **** 	CY_SET_XTND_REG8((void CYFAR *)(CYREG_CLKDIST_MSTR0), 0x00u);
 252              		.loc 1 285 0
 253 00c4 4820     		movs	r0, #72
 254 00c6 0870     		strb	r0, [r1]
 287:Generated_Source\PSoC5/cyfitter_cfg.c **** 	CY_SET_XTND_REG8((void CYFAR *)(CYREG_CLKDIST_DLY1), 0x04u);
 255              		.loc 1 287 0
 256 00c8 7F4F     		ldr	r7, .L30+64
 288:Generated_Source\PSoC5/cyfitter_cfg.c **** 
 257              		.loc 1 288 0
 258 00ca 8048     		ldr	r0, .L30+68
 286:Generated_Source\PSoC5/cyfitter_cfg.c **** 	CY_SET_XTND_REG8((void CYFAR *)(CYREG_CLKDIST_LD), 0x02u);
 259              		.loc 1 286 0
 260 00cc 1A70     		strb	r2, [r3]
 287:Generated_Source\PSoC5/cyfitter_cfg.c **** 	CY_SET_XTND_REG8((void CYFAR *)(CYREG_CLKDIST_DLY1), 0x04u);
 261              		.loc 1 287 0
 262 00ce 4FF0020E 		mov	lr, #2
 288:Generated_Source\PSoC5/cyfitter_cfg.c **** 
 263              		.loc 1 288 0
 264 00d2 0423     		movs	r3, #4
 287:Generated_Source\PSoC5/cyfitter_cfg.c **** 	CY_SET_XTND_REG8((void CYFAR *)(CYREG_CLKDIST_DLY1), 0x04u);
 265              		.loc 1 287 0
 266 00d4 87F800E0 		strb	lr, [r7]
 288:Generated_Source\PSoC5/cyfitter_cfg.c **** 
 267              		.loc 1 288 0
 268 00d8 0370     		strb	r3, [r0]
 290:Generated_Source\PSoC5/cyfitter_cfg.c **** 	CY_SET_XTND_REG8((void CYFAR *)(CYREG_PM_ACT_CFG1), ((CY_GET_XTND_REG8((void CYFAR *)CYREG_PM_ACT_
 269              		.loc 1 290 0
 270 00da 91F89A33 		ldrb	r3, [r1, #922]	@ zero_extendqisi2
 271              	.LBE69:
 272              	.LBE72:
 398:Generated_Source\PSoC5/cyfitter_cfg.c **** 	/* Setup clocks based on selections from Clock DWR */
 399:Generated_Source\PSoC5/cyfitter_cfg.c **** 	ClockSetup();
 400:Generated_Source\PSoC5/cyfitter_cfg.c **** 	/* Enable/Disable Debug functionality based on settings from System DWR */
 401:Generated_Source\PSoC5/cyfitter_cfg.c **** 	CY_SET_XTND_REG8((void CYFAR *)CYREG_MLOGIC_DEBUG, (CY_GET_XTND_REG8((void CYFAR *)CYREG_MLOGIC_DE
 273              		.loc 1 401 0
 274 00de 1446     		mov	r4, r2
 275              	.LBB73:
ARM GAS  C:\Users\larco\AppData\Local\Temp\ccTPadZ9.s 			page 14


 276              	.LBB70:
 290:Generated_Source\PSoC5/cyfitter_cfg.c **** 	CY_SET_XTND_REG8((void CYFAR *)(CYREG_PM_ACT_CFG1), ((CY_GET_XTND_REG8((void CYFAR *)CYREG_PM_ACT_
 277              		.loc 1 290 0
 278 00e0 43F01F03 		orr	r3, r3, #31
 291:Generated_Source\PSoC5/cyfitter_cfg.c **** 	CY_SET_XTND_REG8((void CYFAR *)(CYREG_PM_ACT_CFG0), ((CY_GET_XTND_REG8((void CYFAR *)CYREG_PM_ACT_
 279              		.loc 1 291 0
 280 00e4 7A4A     		ldr	r2, .L30+72
 290:Generated_Source\PSoC5/cyfitter_cfg.c **** 	CY_SET_XTND_REG8((void CYFAR *)(CYREG_PM_ACT_CFG1), ((CY_GET_XTND_REG8((void CYFAR *)CYREG_PM_ACT_
 281              		.loc 1 290 0
 282 00e6 81F89A33 		strb	r3, [r1, #922]
 291:Generated_Source\PSoC5/cyfitter_cfg.c **** 	CY_SET_XTND_REG8((void CYFAR *)(CYREG_PM_ACT_CFG0), ((CY_GET_XTND_REG8((void CYFAR *)CYREG_PM_ACT_
 283              		.loc 1 291 0
 284 00ea 1378     		ldrb	r3, [r2]	@ zero_extendqisi2
 285 00ec 43F00103 		orr	r3, r3, #1
 286 00f0 1370     		strb	r3, [r2]
 292:Generated_Source\PSoC5/cyfitter_cfg.c **** }
 287              		.loc 1 292 0
 288 00f2 91F89833 		ldrb	r3, [r1, #920]	@ zero_extendqisi2
 289 00f6 43F08003 		orr	r3, r3, #128
 290 00fa 81F89833 		strb	r3, [r1, #920]
 291              	.LBE70:
 292              	.LBE73:
 293              		.loc 1 401 0
 294 00fe 92F84733 		ldrb	r3, [r2, #839]	@ zero_extendqisi2
 295 0102 43F00403 		orr	r3, r3, #4
 296 0106 82F84733 		strb	r3, [r2, #839]
 297              	.LVL12:
 298              	.L12:
 299              	.LBB74:
 300              	.LBB75:
 402:Generated_Source\PSoC5/cyfitter_cfg.c **** 
 403:Generated_Source\PSoC5/cyfitter_cfg.c **** 	{
 404:Generated_Source\PSoC5/cyfitter_cfg.c **** 
 405:Generated_Source\PSoC5/cyfitter_cfg.c **** 		CYPACKED typedef struct {
 406:Generated_Source\PSoC5/cyfitter_cfg.c **** 			void CYFAR *address;
 407:Generated_Source\PSoC5/cyfitter_cfg.c **** 			uint16 size;
 408:Generated_Source\PSoC5/cyfitter_cfg.c **** 		} CYPACKED_ATTR cfg_memset_t;
 409:Generated_Source\PSoC5/cyfitter_cfg.c **** 
 410:Generated_Source\PSoC5/cyfitter_cfg.c **** 
 411:Generated_Source\PSoC5/cyfitter_cfg.c **** 		CYPACKED typedef struct {
 412:Generated_Source\PSoC5/cyfitter_cfg.c **** 			void CYFAR *dest;
 413:Generated_Source\PSoC5/cyfitter_cfg.c **** 			const void CYFAR *src;
 414:Generated_Source\PSoC5/cyfitter_cfg.c **** 			uint16 size;
 415:Generated_Source\PSoC5/cyfitter_cfg.c **** 		} CYPACKED_ATTR cfg_memcpy_t;
 416:Generated_Source\PSoC5/cyfitter_cfg.c **** 
 417:Generated_Source\PSoC5/cyfitter_cfg.c **** 		static const cfg_memset_t CYCODE cfg_memset_list[] = {
 418:Generated_Source\PSoC5/cyfitter_cfg.c **** 			/* address, size */
 419:Generated_Source\PSoC5/cyfitter_cfg.c **** 			{(void CYFAR *)(CYREG_PRT4_DR), 48u},
 420:Generated_Source\PSoC5/cyfitter_cfg.c **** 			{(void CYFAR *)(CYDEV_UCFG_B0_P0_U0_BASE), 1152u},
 421:Generated_Source\PSoC5/cyfitter_cfg.c **** 			{(void CYFAR *)(CYDEV_UCFG_B0_P2_ROUTE_BASE), 2816u},
 422:Generated_Source\PSoC5/cyfitter_cfg.c **** 			{(void CYFAR *)(CYDEV_UCFG_B1_P2_U0_BASE), 2048u},
 423:Generated_Source\PSoC5/cyfitter_cfg.c **** 			{(void CYFAR *)(CYDEV_UCFG_DSI0_BASE), 2560u},
 424:Generated_Source\PSoC5/cyfitter_cfg.c **** 			{(void CYFAR *)(CYDEV_UCFG_DSI12_BASE), 512u},
 425:Generated_Source\PSoC5/cyfitter_cfg.c **** 			{(void CYFAR *)(CYREG_BCTL0_MDCLK_EN), 32u},
 426:Generated_Source\PSoC5/cyfitter_cfg.c **** 		};
 427:Generated_Source\PSoC5/cyfitter_cfg.c **** 
 428:Generated_Source\PSoC5/cyfitter_cfg.c **** 		static const cfg_memcpy_t CYCODE cfg_memcpy_list [] = {
ARM GAS  C:\Users\larco\AppData\Local\Temp\ccTPadZ9.s 			page 15


 429:Generated_Source\PSoC5/cyfitter_cfg.c **** 			/* dest, src, size */
 430:Generated_Source\PSoC5/cyfitter_cfg.c **** 			{(void CYFAR *)(CYDEV_UCFG_B0_P2_U1_BASE), BS_UDB_1_3_1_CONFIG_VAL, 128u},
 431:Generated_Source\PSoC5/cyfitter_cfg.c **** 		};
 432:Generated_Source\PSoC5/cyfitter_cfg.c **** 
 433:Generated_Source\PSoC5/cyfitter_cfg.c **** 		uint8 CYDATA i;
 434:Generated_Source\PSoC5/cyfitter_cfg.c **** 
 435:Generated_Source\PSoC5/cyfitter_cfg.c **** 		/* Zero out critical memory blocks before beginning configuration */
 436:Generated_Source\PSoC5/cyfitter_cfg.c **** 		for (i = 0u; i < (sizeof(cfg_memset_list)/sizeof(cfg_memset_list[0])); i++)
 437:Generated_Source\PSoC5/cyfitter_cfg.c **** 		{
 438:Generated_Source\PSoC5/cyfitter_cfg.c **** 			const cfg_memset_t CYCODE * CYDATA ms = &cfg_memset_list[i];
 439:Generated_Source\PSoC5/cyfitter_cfg.c **** 			CYMEMZERO(ms->address, (size_t)(uint32)(ms->size));
 301              		.loc 1 439 0 discriminator 3
 302 010a 04EB4403 		add	r3, r4, r4, lsl #1
 303              	.LBB76:
 304              	.LBB77:
  79:Generated_Source\PSoC5/cyfitter_cfg.c **** }
 305              		.loc 1 79 0 discriminator 3
 306 010e AA88     		ldrh	r2, [r5, #4]
 307              	.LVL13:
 308 0110 56F81300 		ldr	r0, [r6, r3, lsl #1]	@ unaligned
 309 0114 0134     		adds	r4, r4, #1
 310              	.LVL14:
 311 0116 0021     		movs	r1, #0
 312 0118 FFF7FEFF 		bl	memset
 313              	.LVL15:
 314              	.LBE77:
 315              	.LBE76:
 316              	.LBE75:
 436:Generated_Source\PSoC5/cyfitter_cfg.c **** 		{
 317              		.loc 1 436 0 discriminator 3
 318 011c 072C     		cmp	r4, #7
 319 011e 05F10605 		add	r5, r5, #6
 320 0122 F2D1     		bne	.L12
 321              	.LVL16:
 322              	.LBB78:
 323              	.LBB79:
 324              	.LBB80:
  86:Generated_Source\PSoC5/cyfitter_cfg.c **** }
 325              		.loc 1 86 0 discriminator 3
 326 0124 8022     		movs	r2, #128
 327 0126 6B49     		ldr	r1, .L30+76
 328 0128 6B48     		ldr	r0, .L30+80
 329 012a FFF7FEFF 		bl	memcpy
 330              	.LVL17:
 331 012e 6B4E     		ldr	r6, .L30+84
 332              	.LBE80:
 333              	.LBE79:
 334              	.LBE78:
 335              	.LBB83:
 336              	.LBB84:
 205:Generated_Source\PSoC5/cyfitter_cfg.c **** 	{
 337              		.loc 1 205 0 discriminator 3
 338 0130 6B4F     		ldr	r7, .L30+88
 339              	.LBE84:
 340              	.LBE83:
 341              	.LBB87:
 342              	.LBB82:
ARM GAS  C:\Users\larco\AppData\Local\Temp\ccTPadZ9.s 			page 16


 343              	.LBB81:
  86:Generated_Source\PSoC5/cyfitter_cfg.c **** }
 344              		.loc 1 86 0 discriminator 3
 345 0132 0025     		movs	r5, #0
 346              	.LVL18:
 347              	.L15:
 348              	.LBE81:
 349              	.LBE82:
 350              	.LBE87:
 351              	.LBB88:
 352              	.LBB86:
 353              	.LBB85:
 207:Generated_Source\PSoC5/cyfitter_cfg.c **** 		uint8 count = (uint8)baseAddr;
 354              		.loc 1 207 0
 355 0134 56F8043F 		ldr	r3, [r6, #4]!
 356              	.LVL19:
 210:Generated_Source\PSoC5/cyfitter_cfg.c **** 		{
 357              		.loc 1 210 0
 358 0138 13F0FF0E 		ands	lr, r3, #255
 209:Generated_Source\PSoC5/cyfitter_cfg.c **** 		while (count != 0u)
 359              		.loc 1 209 0
 360 013c 23F0FF04 		bic	r4, r3, #255
 361              	.LVL20:
 210:Generated_Source\PSoC5/cyfitter_cfg.c **** 		{
 362              		.loc 1 210 0
 363 0140 13D0     		beq	.L13
 364 0142 05F11053 		add	r3, r5, #603979776
 365              	.LVL21:
 366 0146 0EF1FF3E 		add	lr, lr, #-1
 367 014a 03F14900 		add	r0, r3, #73
 368 014e 5FFA8EFE 		uxtb	lr, lr
 369 0152 7044     		add	r0, r0, lr
 370 0154 4833     		adds	r3, r3, #72
 371 0156 4000     		lsls	r0, r0, #1
 372 0158 5B00     		lsls	r3, r3, #1
 373              	.LVL22:
 374              	.L14:
 212:Generated_Source\PSoC5/cyfitter_cfg.c **** 			j++;
 375              		.loc 1 212 0
 376 015a 1A78     		ldrb	r2, [r3]	@ zero_extendqisi2
 377 015c 5978     		ldrb	r1, [r3, #1]	@ zero_extendqisi2
 378 015e 0233     		adds	r3, r3, #2
 210:Generated_Source\PSoC5/cyfitter_cfg.c **** 		{
 379              		.loc 1 210 0
 380 0160 8342     		cmp	r3, r0
 212:Generated_Source\PSoC5/cyfitter_cfg.c **** 			j++;
 381              		.loc 1 212 0
 382 0162 1155     		strb	r1, [r2, r4]
 210:Generated_Source\PSoC5/cyfitter_cfg.c **** 		{
 383              		.loc 1 210 0
 384 0164 F9D1     		bne	.L14
 385 0166 0135     		adds	r5, r5, #1
 386 0168 7544     		add	r5, r5, lr
 387              	.L13:
 388              	.LVL23:
 389              	.LBE85:
 205:Generated_Source\PSoC5/cyfitter_cfg.c **** 	{
ARM GAS  C:\Users\larco\AppData\Local\Temp\ccTPadZ9.s 			page 17


 390              		.loc 1 205 0
 391 016a BE42     		cmp	r6, r7
 392 016c E2D1     		bne	.L15
 393              	.LVL24:
 394              	.LBE86:
 395              	.LBE88:
 440:Generated_Source\PSoC5/cyfitter_cfg.c **** 		}
 441:Generated_Source\PSoC5/cyfitter_cfg.c **** 
 442:Generated_Source\PSoC5/cyfitter_cfg.c **** 		/* Copy device configuration data into registers */
 443:Generated_Source\PSoC5/cyfitter_cfg.c **** 		for (i = 0u; i < (sizeof(cfg_memcpy_list)/sizeof(cfg_memcpy_list[0])); i++)
 444:Generated_Source\PSoC5/cyfitter_cfg.c **** 		{
 445:Generated_Source\PSoC5/cyfitter_cfg.c **** 			const cfg_memcpy_t CYCODE * CYDATA mc = &cfg_memcpy_list[i];
 446:Generated_Source\PSoC5/cyfitter_cfg.c **** 			void * CYDATA destPtr = mc->dest;
 447:Generated_Source\PSoC5/cyfitter_cfg.c **** 			const void * CYDATA srcPtr = mc->src;
 448:Generated_Source\PSoC5/cyfitter_cfg.c **** 			uint16 CYDATA numBytes = mc->size;
 449:Generated_Source\PSoC5/cyfitter_cfg.c **** 			CYCONFIGCPY(destPtr, srcPtr, numBytes);
 450:Generated_Source\PSoC5/cyfitter_cfg.c **** 		}
 451:Generated_Source\PSoC5/cyfitter_cfg.c **** 
 452:Generated_Source\PSoC5/cyfitter_cfg.c **** 		cfg_write_bytes32(cy_cfg_addr_table, cy_cfg_data_table);
 453:Generated_Source\PSoC5/cyfitter_cfg.c **** 
 454:Generated_Source\PSoC5/cyfitter_cfg.c **** 		/* Perform normal device configuration. Order is not critical for these items. */
 455:Generated_Source\PSoC5/cyfitter_cfg.c **** 		CY_SET_XTND_REG8((void CYFAR *)(CYREG_DSM0_CR3), 0x0Au);
 456:Generated_Source\PSoC5/cyfitter_cfg.c **** 		CY_SET_XTND_REG16((void CYFAR *)(CYREG_LUT2_CR), 0x0203u);
 396              		.loc 1 456 0
 397 016e 40F20322 		movw	r2, #515
 455:Generated_Source\PSoC5/cyfitter_cfg.c **** 		CY_SET_XTND_REG16((void CYFAR *)(CYREG_LUT2_CR), 0x0203u);
 398              		.loc 1 455 0
 399 0172 5C48     		ldr	r0, .L30+92
 400              		.loc 1 456 0
 401 0174 5C4B     		ldr	r3, .L30+96
 457:Generated_Source\PSoC5/cyfitter_cfg.c **** 		CYMEMZERO((void CYFAR *)(CYREG_PHUB_CFGMEM0_CFG0), 4u);
 458:Generated_Source\PSoC5/cyfitter_cfg.c **** 
 459:Generated_Source\PSoC5/cyfitter_cfg.c **** 		/* Enable digital routing */
 460:Generated_Source\PSoC5/cyfitter_cfg.c **** 		CY_SET_XTND_REG8((void CYFAR *)CYREG_BCTL0_BANK_CTL, CY_GET_XTND_REG8((void CYFAR *)CYREG_BCTL0_B
 402              		.loc 1 460 0
 403 0176 5D49     		ldr	r1, .L30+100
 455:Generated_Source\PSoC5/cyfitter_cfg.c **** 		CY_SET_XTND_REG16((void CYFAR *)(CYREG_LUT2_CR), 0x0203u);
 404              		.loc 1 455 0
 405 0178 0A24     		movs	r4, #10
 406 017a 0470     		strb	r4, [r0]
 456:Generated_Source\PSoC5/cyfitter_cfg.c **** 		CYMEMZERO((void CYFAR *)(CYREG_PHUB_CFGMEM0_CFG0), 4u);
 407              		.loc 1 456 0
 408 017c 1A80     		strh	r2, [r3]	@ movhi
 409              	.LVL25:
 410              		.loc 1 460 0
 411 017e 0B78     		ldrb	r3, [r1]	@ zero_extendqisi2
 461:Generated_Source\PSoC5/cyfitter_cfg.c **** 		CY_SET_XTND_REG8((void CYFAR *)CYREG_BCTL1_BANK_CTL, CY_GET_XTND_REG8((void CYFAR *)CYREG_BCTL1_B
 412              		.loc 1 461 0
 413 0180 5B4A     		ldr	r2, .L30+104
 460:Generated_Source\PSoC5/cyfitter_cfg.c **** 		CY_SET_XTND_REG8((void CYFAR *)CYREG_BCTL1_BANK_CTL, CY_GET_XTND_REG8((void CYFAR *)CYREG_BCTL1_B
 414              		.loc 1 460 0
 415 0182 43F00203 		orr	r3, r3, #2
 416 0186 0B70     		strb	r3, [r1]
 417              		.loc 1 461 0
 418 0188 1378     		ldrb	r3, [r2]	@ zero_extendqisi2
 462:Generated_Source\PSoC5/cyfitter_cfg.c **** 
 463:Generated_Source\PSoC5/cyfitter_cfg.c **** 		/* Enable UDB array */
ARM GAS  C:\Users\larco\AppData\Local\Temp\ccTPadZ9.s 			page 18


 464:Generated_Source\PSoC5/cyfitter_cfg.c **** 		CY_SET_XTND_REG8((void CYFAR *)CYREG_PM_ACT_CFG0, CY_GET_XTND_REG8((void CYFAR *)CYREG_PM_ACT_CFG
 419              		.loc 1 464 0
 420 018a 5A4C     		ldr	r4, .L30+108
 461:Generated_Source\PSoC5/cyfitter_cfg.c **** 
 421              		.loc 1 461 0
 422 018c 43F00203 		orr	r3, r3, #2
 423 0190 1370     		strb	r3, [r2]
 424              		.loc 1 464 0
 425 0192 2378     		ldrb	r3, [r4]	@ zero_extendqisi2
 465:Generated_Source\PSoC5/cyfitter_cfg.c **** 		CY_SET_XTND_REG8((void CYFAR *)CYREG_PM_AVAIL_CR2, CY_GET_XTND_REG8((void CYFAR *)CYREG_PM_AVAIL_
 426              		.loc 1 465 0
 427 0194 A1F58631 		sub	r1, r1, #68608
 464:Generated_Source\PSoC5/cyfitter_cfg.c **** 		CY_SET_XTND_REG8((void CYFAR *)CYREG_PM_AVAIL_CR2, CY_GET_XTND_REG8((void CYFAR *)CYREG_PM_AVAIL_
 428              		.loc 1 464 0
 429 0198 43F04003 		orr	r3, r3, #64
 430 019c 2370     		strb	r3, [r4]
 431              		.loc 1 465 0
 432 019e 4139     		subs	r1, r1, #65
 433 01a0 0A78     		ldrb	r2, [r1]	@ zero_extendqisi2
 434              	.LBB89:
 435              	.LBB90:
  79:Generated_Source\PSoC5/cyfitter_cfg.c **** }
 436              		.loc 1 79 0
 437 01a2 5548     		ldr	r0, .L30+112
 438              	.LBE90:
 439              	.LBE89:
 440              	.LBE74:
 441              	.LBB95:
 442              	.LBB96:
  86:Generated_Source\PSoC5/cyfitter_cfg.c **** }
 443              		.loc 1 86 0
 444 01a4 554E     		ldr	r6, .L30+116
 445              	.LBE96:
 446              	.LBE95:
 447              	.LBB99:
 448              		.loc 1 465 0
 449 01a6 42F01002 		orr	r2, r2, #16
 450              	.LBB93:
 451              	.LBB91:
  79:Generated_Source\PSoC5/cyfitter_cfg.c **** }
 452              		.loc 1 79 0
 453 01aa 0025     		movs	r5, #0
 454              	.LBE91:
 455              	.LBE93:
 456              	.LBE99:
 457              	.LBB100:
 458              	.LBB97:
  86:Generated_Source\PSoC5/cyfitter_cfg.c **** }
 459              		.loc 1 86 0
 460 01ac 544B     		ldr	r3, .L30+120
 461              	.LBE97:
 462              	.LBE100:
 463              	.LBB101:
 464              		.loc 1 465 0
 465 01ae 0A70     		strb	r2, [r1]
 466              	.LBB94:
 467              	.LBB92:
ARM GAS  C:\Users\larco\AppData\Local\Temp\ccTPadZ9.s 			page 19


  79:Generated_Source\PSoC5/cyfitter_cfg.c **** }
 468              		.loc 1 79 0
 469 01b0 0560     		str	r5, [r0]
 470              	.LVL26:
 471              	.LBE92:
 472              	.LBE94:
 473              	.LBE101:
 474              	.LBB102:
 475              	.LBB103:
  86:Generated_Source\PSoC5/cyfitter_cfg.c **** }
 476              		.loc 1 86 0
 477 01b2 544D     		ldr	r5, .L30+124
 478              	.LBE103:
 479              	.LBE102:
 480              	.LBB106:
 481              	.LBB98:
 482 01b4 03CB     		ldmia	r3!, {r0, r1}
 483 01b6 3060     		str	r0, [r6]	@ unaligned
 484 01b8 7160     		str	r1, [r6, #4]	@ unaligned
 485              	.LVL27:
 486              	.LBE98:
 487              	.LBE106:
 488              	.LBB107:
 489              	.LBB104:
 490 01ba 93E80700 		ldmia	r3, {r0, r1, r2}
 491 01be 03C5     		stmia	r5!, {r0, r1}
 492              	.LBE104:
 493              	.LBE107:
 494              	.LBB108:
 495              	.LBB109:
 496 01c0 0C33     		adds	r3, r3, #12
 497              	.LBE109:
 498              	.LBE108:
 499              	.LBB111:
 500              	.LBB105:
 501 01c2 2A80     		strh	r2, [r5]	@ movhi
 502              	.LVL28:
 503              	.LBE105:
 504              	.LBE111:
 505              	.LBB112:
 506              	.LBB113:
 507 01c4 504A     		ldr	r2, .L30+128
 508              	.LBE113:
 509              	.LBE112:
 510              	.LBB116:
 511              	.LBB110:
 512 01c6 03CB     		ldmia	r3!, {r0, r1}
 513 01c8 C5F82A00 		str	r0, [r5, #42]	@ unaligned
 514 01cc C5F82E10 		str	r1, [r5, #46]	@ unaligned
 515              	.LVL29:
 516              	.LBE110:
 517              	.LBE116:
 518              	.LBB117:
 519              	.LBB114:
 520 01d0 03CB     		ldmia	r3!, {r0, r1}
 521              	.LBE114:
 522              	.LBE117:
ARM GAS  C:\Users\larco\AppData\Local\Temp\ccTPadZ9.s 			page 20


 523              	.LBB118:
 524              	.LBB119:
 525 01d2 A83D     		subs	r5, r5, #168
 526              	.LBE119:
 527              	.LBE118:
 528              	.LBB122:
 529              	.LBB115:
 530 01d4 1060     		str	r0, [r2]	@ unaligned
 531 01d6 5160     		str	r1, [r2, #4]	@ unaligned
 532              	.LVL30:
 533              	.LBE115:
 534              	.LBE122:
 535              	.LBB123:
 536              	.LBB120:
 537 01d8 93E80700 		ldmia	r3, {r0, r1, r2}
 538 01dc 03C5     		stmia	r5!, {r0, r1}
 539              	.LBE120:
 540              	.LBE123:
 466:Generated_Source\PSoC5/cyfitter_cfg.c **** 	}
 467:Generated_Source\PSoC5/cyfitter_cfg.c **** 
 468:Generated_Source\PSoC5/cyfitter_cfg.c **** 
 469:Generated_Source\PSoC5/cyfitter_cfg.c **** 	/* Perform second pass device configuration. These items must be configured in specific order afte
 470:Generated_Source\PSoC5/cyfitter_cfg.c **** 	CYCONFIGCPY((void CYFAR *)(CYREG_PRT0_DM0), (const void CYFAR *)(BS_IOPINS0_0_VAL), 8u);
 471:Generated_Source\PSoC5/cyfitter_cfg.c **** 	CYCONFIGCPY((void CYFAR *)(CYREG_PRT12_DR), (const void CYFAR *)(BS_IOPINS0_7_VAL), 10u);
 472:Generated_Source\PSoC5/cyfitter_cfg.c **** 	CYCONFIGCPY((void CYFAR *)(CYREG_PRT15_DM0), (const void CYFAR *)(BS_IOPINS0_8_VAL), 8u);
 473:Generated_Source\PSoC5/cyfitter_cfg.c **** 	CYCONFIGCPY((void CYFAR *)(CYREG_PRT1_DM0), (const void CYFAR *)(BS_IOPINS0_1_VAL), 8u);
 474:Generated_Source\PSoC5/cyfitter_cfg.c **** 	CYCONFIGCPY((void CYFAR *)(CYREG_PRT2_DR), (const void CYFAR *)(BS_IOPINS0_2_VAL), 10u);
 475:Generated_Source\PSoC5/cyfitter_cfg.c **** 	CYCONFIGCPY((void CYFAR *)(CYREG_PRT3_DM0), (const void CYFAR *)(BS_IOPINS0_3_VAL), 8u);
 476:Generated_Source\PSoC5/cyfitter_cfg.c **** 	/* Switch Boost to the precision bandgap reference from its internal reference */
 477:Generated_Source\PSoC5/cyfitter_cfg.c **** 	CY_SET_REG8((void CYXDATA *)CYREG_BOOST_CR2, (CY_GET_REG8((void CYXDATA *)CYREG_BOOST_CR2) | 0x08u
 541              		.loc 1 477 0
 542 01de A6F55E66 		sub	r6, r6, #3552
 543              	.LBB124:
 544              	.LBB121:
  86:Generated_Source\PSoC5/cyfitter_cfg.c **** }
 545              		.loc 1 86 0
 546 01e2 2A80     		strh	r2, [r5]	@ movhi
 547              	.LVL31:
 548              	.LBE121:
 549              	.LBE124:
 550              		.loc 1 477 0
 551 01e4 3278     		ldrb	r2, [r6]	@ zero_extendqisi2
 552              	.LBB125:
 553              	.LBB126:
 317:Generated_Source\PSoC5/cyfitter_cfg.c **** 	CY_SET_XTND_REG8((void CYFAR *)(CYREG_BG_DFT0), (bg_xover_inl_trim & 0x07u));
 554              		.loc 1 317 0
 555 01e6 494D     		ldr	r5, .L30+132
 556              	.LBE126:
 557              	.LBE125:
 558              		.loc 1 477 0
 559 01e8 42F00802 		orr	r2, r2, #8
 560              	.LBB133:
 561              	.LBB134:
  86:Generated_Source\PSoC5/cyfitter_cfg.c **** }
 562              		.loc 1 86 0
 563 01ec 0C33     		adds	r3, r3, #12
 564 01ee 03CB     		ldmia	r3!, {r0, r1}
ARM GAS  C:\Users\larco\AppData\Local\Temp\ccTPadZ9.s 			page 21


 565              	.LBE134:
 566              	.LBE133:
 567              		.loc 1 477 0
 568 01f0 3270     		strb	r2, [r6]
 569              	.LBB137:
 570              	.LBB127:
 317:Generated_Source\PSoC5/cyfitter_cfg.c **** 	CY_SET_XTND_REG8((void CYFAR *)(CYREG_BG_DFT0), (bg_xover_inl_trim & 0x07u));
 571              		.loc 1 317 0
 572 01f2 2B78     		ldrb	r3, [r5]	@ zero_extendqisi2
 318:Generated_Source\PSoC5/cyfitter_cfg.c **** 	CY_SET_XTND_REG8((void CYFAR *)(CYREG_BG_DFT1), ((bg_xover_inl_trim >> 4) & 0x0Fu));
 573              		.loc 1 318 0
 574 01f4 464F     		ldr	r7, .L30+136
 317:Generated_Source\PSoC5/cyfitter_cfg.c **** 	CY_SET_XTND_REG8((void CYFAR *)(CYREG_BG_DFT0), (bg_xover_inl_trim & 0x07u));
 575              		.loc 1 317 0
 576 01f6 DBB2     		uxtb	r3, r3
 319:Generated_Source\PSoC5/cyfitter_cfg.c **** 	CY_SET_XTND_REG8((void CYFAR *)CYREG_CMP2_CR, 0x02u);
 577              		.loc 1 319 0
 578 01f8 464D     		ldr	r5, .L30+140
 318:Generated_Source\PSoC5/cyfitter_cfg.c **** 	CY_SET_XTND_REG8((void CYFAR *)(CYREG_BG_DFT1), ((bg_xover_inl_trim >> 4) & 0x0Fu));
 579              		.loc 1 318 0
 580 01fa 03F0070C 		and	ip, r3, #7
 321:Generated_Source\PSoC5/cyfitter_cfg.c **** 	CY_SET_XTND_REG8((void CYFAR *)CYREG_PRT0_AG, 0x01u);
 581              		.loc 1 321 0
 582 01fe DFF828E1 		ldr	lr, .L30+160
 319:Generated_Source\PSoC5/cyfitter_cfg.c **** 	CY_SET_XTND_REG8((void CYFAR *)CYREG_CMP2_CR, 0x02u);
 583              		.loc 1 319 0
 584 0202 1B09     		lsrs	r3, r3, #4
 318:Generated_Source\PSoC5/cyfitter_cfg.c **** 	CY_SET_XTND_REG8((void CYFAR *)(CYREG_BG_DFT1), ((bg_xover_inl_trim >> 4) & 0x0Fu));
 585              		.loc 1 318 0
 586 0204 87F800C0 		strb	ip, [r7]
 320:Generated_Source\PSoC5/cyfitter_cfg.c **** 	CY_SET_XTND_REG8((void CYFAR *)CYREG_PM_ACT_CFG7, 0x04u);
 587              		.loc 1 320 0
 588 0208 06F5A956 		add	r6, r6, #5408
 319:Generated_Source\PSoC5/cyfitter_cfg.c **** 	CY_SET_XTND_REG8((void CYFAR *)CYREG_CMP2_CR, 0x02u);
 589              		.loc 1 319 0
 590 020c 2B70     		strb	r3, [r5]
 591              	.LBE127:
 592              	.LBE137:
 593              	.LBB138:
 594              	.LBB135:
  86:Generated_Source\PSoC5/cyfitter_cfg.c **** }
 595              		.loc 1 86 0
 596 020e 424A     		ldr	r2, .L30+144
 597              	.LBE135:
 598              	.LBE138:
 599              	.LBB139:
 600              	.LBB128:
 321:Generated_Source\PSoC5/cyfitter_cfg.c **** 	CY_SET_XTND_REG8((void CYFAR *)CYREG_PRT0_AG, 0x01u);
 601              		.loc 1 321 0
 602 0210 0425     		movs	r5, #4
 320:Generated_Source\PSoC5/cyfitter_cfg.c **** 	CY_SET_XTND_REG8((void CYFAR *)CYREG_PM_ACT_CFG7, 0x04u);
 603              		.loc 1 320 0
 604 0212 0227     		movs	r7, #2
 322:Generated_Source\PSoC5/cyfitter_cfg.c **** 	CY_SET_XTND_REG8((void CYFAR *)CYREG_PRT1_AG, 0xC0u);
 605              		.loc 1 322 0
 606 0214 414B     		ldr	r3, .L30+148
 320:Generated_Source\PSoC5/cyfitter_cfg.c **** 	CY_SET_XTND_REG8((void CYFAR *)CYREG_PM_ACT_CFG7, 0x04u);
ARM GAS  C:\Users\larco\AppData\Local\Temp\ccTPadZ9.s 			page 22


 607              		.loc 1 320 0
 608 0216 3770     		strb	r7, [r6]
 321:Generated_Source\PSoC5/cyfitter_cfg.c **** 	CY_SET_XTND_REG8((void CYFAR *)CYREG_PRT0_AG, 0x01u);
 609              		.loc 1 321 0
 610 0218 8EF80050 		strb	r5, [lr]
 324:Generated_Source\PSoC5/cyfitter_cfg.c **** 	CY_SET_XTND_REG8((void CYFAR *)CYREG_SC1_SW3, 0x20u);
 611              		.loc 1 324 0
 612 021c 404F     		ldr	r7, .L30+152
 322:Generated_Source\PSoC5/cyfitter_cfg.c **** 	CY_SET_XTND_REG8((void CYFAR *)CYREG_PRT1_AG, 0xC0u);
 613              		.loc 1 322 0
 614 021e 4FF0010E 		mov	lr, #1
 615              	.LBE128:
 616              	.LBE139:
 617              	.LBB140:
 618              	.LBB136:
  86:Generated_Source\PSoC5/cyfitter_cfg.c **** }
 619              		.loc 1 86 0
 620 0222 1060     		str	r0, [r2]	@ unaligned
 621 0224 5160     		str	r1, [r2, #4]	@ unaligned
 622              	.LVL32:
 623              	.LBE136:
 624              	.LBE140:
 625              	.LBB141:
 626              	.LBB129:
 323:Generated_Source\PSoC5/cyfitter_cfg.c **** 	CY_SET_XTND_REG8((void CYFAR *)CYREG_SC1_SW0, 0x04u);
 627              		.loc 1 323 0
 628 0226 A6F22576 		subw	r6, r6, #1829
 322:Generated_Source\PSoC5/cyfitter_cfg.c **** 	CY_SET_XTND_REG8((void CYFAR *)CYREG_PRT1_AG, 0xC0u);
 629              		.loc 1 322 0
 630 022a 83F800E0 		strb	lr, [r3]
 325:Generated_Source\PSoC5/cyfitter_cfg.c **** 	CY_SET_XTND_REG8((void CYFAR *)CYREG_SC1_SW8, 0x08u);
 631              		.loc 1 325 0
 632 022e DFF8FCC0 		ldr	ip, .L30+164
 326:Generated_Source\PSoC5/cyfitter_cfg.c **** 	CY_SET_XTND_REG8((void CYFAR *)CYREG_DAC2_SW0, 0x10u);
 633              		.loc 1 326 0
 634 0232 DFF8FCE0 		ldr	lr, .L30+168
 323:Generated_Source\PSoC5/cyfitter_cfg.c **** 	CY_SET_XTND_REG8((void CYFAR *)CYREG_SC1_SW0, 0x04u);
 635              		.loc 1 323 0
 636 0236 4FF0C008 		mov	r8, #192
 637              	.LBE129:
 638              	.LBE141:
 639              	.LBB142:
 640              	.LBB143:
  86:Generated_Source\PSoC5/cyfitter_cfg.c **** }
 641              		.loc 1 86 0
 642 023a 94E80F00 		ldmia	r4, {r0, r1, r2, r3}
 643              	.LBE143:
 644              	.LBE142:
 645              	.LBB147:
 646              	.LBB130:
 323:Generated_Source\PSoC5/cyfitter_cfg.c **** 	CY_SET_XTND_REG8((void CYFAR *)CYREG_SC1_SW0, 0x04u);
 647              		.loc 1 323 0
 648 023e 86F80080 		strb	r8, [r6]
 325:Generated_Source\PSoC5/cyfitter_cfg.c **** 	CY_SET_XTND_REG8((void CYFAR *)CYREG_SC1_SW8, 0x08u);
 649              		.loc 1 325 0
 650 0242 2024     		movs	r4, #32
 324:Generated_Source\PSoC5/cyfitter_cfg.c **** 	CY_SET_XTND_REG8((void CYFAR *)CYREG_SC1_SW3, 0x20u);
ARM GAS  C:\Users\larco\AppData\Local\Temp\ccTPadZ9.s 			page 23


 651              		.loc 1 324 0
 652 0244 3D70     		strb	r5, [r7]
 326:Generated_Source\PSoC5/cyfitter_cfg.c **** 	CY_SET_XTND_REG8((void CYFAR *)CYREG_DAC2_SW0, 0x10u);
 653              		.loc 1 326 0
 654 0246 0825     		movs	r5, #8
 325:Generated_Source\PSoC5/cyfitter_cfg.c **** 	CY_SET_XTND_REG8((void CYFAR *)CYREG_SC1_SW8, 0x08u);
 655              		.loc 1 325 0
 656 0248 8CF80040 		strb	r4, [ip]
 326:Generated_Source\PSoC5/cyfitter_cfg.c **** 	CY_SET_XTND_REG8((void CYFAR *)CYREG_DAC2_SW0, 0x10u);
 657              		.loc 1 326 0
 658 024c 8EF80050 		strb	r5, [lr]
 327:Generated_Source\PSoC5/cyfitter_cfg.c **** 	CY_SET_XTND_REG8((void CYFAR *)CYREG_CMP2_SW3, 0x20u);
 659              		.loc 1 327 0
 660 0250 4FF0100E 		mov	lr, #16
 661 0254 86F873E9 		strb	lr, [r6, #2419]
 329:Generated_Source\PSoC5/cyfitter_cfg.c **** 	CY_SET_XTND_REG8((void CYFAR *)CYREG_DSM0_SW0, 0x08u);
 662              		.loc 1 329 0
 663 0258 DFF8D8E0 		ldr	lr, .L30+172
 328:Generated_Source\PSoC5/cyfitter_cfg.c **** 	CY_SET_XTND_REG8((void CYFAR *)CYREG_CMP2_SW4, 0x20u);
 664              		.loc 1 328 0
 665 025c 87F8C340 		strb	r4, [r7, #195]
 329:Generated_Source\PSoC5/cyfitter_cfg.c **** 	CY_SET_XTND_REG8((void CYFAR *)CYREG_DSM0_SW0, 0x08u);
 666              		.loc 1 329 0
 667 0260 8EF80040 		strb	r4, [lr]
 330:Generated_Source\PSoC5/cyfitter_cfg.c **** 	CY_SET_XTND_REG8((void CYFAR *)CYREG_DSM0_SW4, 0x20u);
 668              		.loc 1 330 0
 669 0264 86F8E359 		strb	r5, [r6, #2531]
 331:Generated_Source\PSoC5/cyfitter_cfg.c **** 	CY_SET_XTND_REG8((void CYFAR *)CYREG_BUS_SW0, 0x08u);
 670              		.loc 1 331 0
 671 0268 87F8F440 		strb	r4, [r7, #244]
 672              	.LBE130:
 673              	.LBE147:
 674              	.LBB148:
 675              	.LBB144:
  86:Generated_Source\PSoC5/cyfitter_cfg.c **** }
 676              		.loc 1 86 0
 677 026c 2D4C     		ldr	r4, .L30+156
 678              	.LBE144:
 679              	.LBE148:
 680              	.LBB149:
 681              	.LBB131:
 333:Generated_Source\PSoC5/cyfitter_cfg.c **** }
 682              		.loc 1 333 0
 683 026e 06F25976 		addw	r6, r6, #1881
 684 0272 4427     		movs	r7, #68
 332:Generated_Source\PSoC5/cyfitter_cfg.c **** 	CY_SET_XTND_REG8((void CYFAR *)CYREG_PUMP_CR0, 0x44u);
 685              		.loc 1 332 0
 686 0274 8EF88450 		strb	r5, [lr, #132]
 333:Generated_Source\PSoC5/cyfitter_cfg.c **** }
 687              		.loc 1 333 0
 688 0278 3770     		strb	r7, [r6]
 689              	.LVL33:
 690              	.LBE131:
 691              	.LBE149:
 692              	.LBB150:
 693              	.LBB145:
  86:Generated_Source\PSoC5/cyfitter_cfg.c **** }
ARM GAS  C:\Users\larco\AppData\Local\Temp\ccTPadZ9.s 			page 24


 694              		.loc 1 86 0
 695 027a 07C4     		stmia	r4!, {r0, r1, r2}
 696              	.LBE145:
 697              	.LBE150:
 698              	.LBB151:
 699              	.LBB132:
 332:Generated_Source\PSoC5/cyfitter_cfg.c **** 	CY_SET_XTND_REG8((void CYFAR *)CYREG_PUMP_CR0, 0x44u);
 700              		.loc 1 332 0
 701 027c 0EF1840E 		add	lr, lr, #132
 702              	.LBE132:
 703              	.LBE151:
 704              	.LBB152:
 705              	.LBB146:
  86:Generated_Source\PSoC5/cyfitter_cfg.c **** }
 706              		.loc 1 86 0
 707 0280 2380     		strh	r3, [r4]	@ movhi
 708              	.LVL34:
 709 0282 BDE8F081 		pop	{r4, r5, r6, r7, r8, pc}
 710              	.L31:
 711 0286 00BF     		.align	2
 712              	.L30:
 713 0288 00480040 		.word	1073760256
 714 028c 80400040 		.word	1073758336
 715 0290 82400040 		.word	1073758338
 716 0294 84400040 		.word	1073758340
 717 0298 86400040 		.word	1073758342
 718 029c 8E400040 		.word	1073758350
 719 02a0 90400040 		.word	1073758352
 720 02a4 00420040 		.word	1073758720
 721 02a8 08010049 		.word	1224737032
 722 02ac A1460040 		.word	1073759905
 723 02b0 1C070048 		.word	1207961372
 724 02b4 25420040 		.word	1073758757
 725 02b8 00000000 		.word	.LANCHOR0
 726 02bc 04400040 		.word	1073758212
 727 02c0 06400040 		.word	1073758214
 728 02c4 08400040 		.word	1073758216
 729 02c8 01400040 		.word	1073758209
 730 02cc 0B400040 		.word	1073758219
 731 02d0 A1430040 		.word	1073759137
 732 02d4 64060048 		.word	1207961188
 733 02d8 80040140 		.word	1073808512
 734 02dc FCFFFF47 		.word	1207959548
 735 02e0 8C000048 		.word	1207959692
 736 02e4 83580040 		.word	1073764483
 737 02e8 4C580040 		.word	1073764428
 738 02ec 03500140 		.word	1073827843
 739 02f0 13500140 		.word	1073827859
 740 02f4 A0430040 		.word	1073759136
 741 02f8 00760040 		.word	1073772032
 742 02fc 02510040 		.word	1073762562
 743 0300 E4060048 		.word	1207961316
 744 0304 C0510040 		.word	1073762752
 745 0308 12510040 		.word	1073762578
 746 030c CF010049 		.word	1224737231
 747 0310 6E580040 		.word	1073764462
 748 0314 6F580040 		.word	1073764463
ARM GAS  C:\Users\larco\AppData\Local\Temp\ccTPadZ9.s 			page 25


 749 0318 32510040 		.word	1073762610
 750 031c 0D510040 		.word	1073762573
 751 0320 105A0040 		.word	1073764880
 752 0324 B0430040 		.word	1073759152
 753 0328 A7430040 		.word	1073759143
 754 032c 135A0040 		.word	1073764883
 755 0330 185A0040 		.word	1073764888
 756 0334 D45A0040 		.word	1073765076
 757              	.LBE146:
 758              	.LBE152:
 759              		.cfi_endproc
 760              	.LFE8:
 761              		.size	cyfitter_cfg, .-cyfitter_cfg
 762              		.section	.rodata
 763              		.align	2
 764              		.set	.LANCHOR0,. + 0
 765              		.type	cfg_memset_list.5018, %object
 766              		.size	cfg_memset_list.5018, 42
 767              	cfg_memset_list.5018:
 768 0000 40510040 		.word	1073762624
 769 0004 3000     		.short	48
 770 0006 00000140 		.4byte	1073807360
 771 000a 8004     		.short	1152
 772 000c 00050140 		.word	1073808640
 773 0010 000B     		.short	2816
 774 0012 00140140 		.4byte	1073812480
 775 0016 0008     		.short	2048
 776 0018 00400140 		.word	1073823744
 777 001c 000A     		.short	2560
 778 001e 004C0140 		.4byte	1073826816
 779 0022 0002     		.short	512
 780 0024 00500140 		.word	1073827840
 781 0028 2000     		.short	32
 782              		.text
 783              	.Letext0:
 784              		.file 2 "c:\\program files (x86)\\cypress\\psoc creator\\4.4\\psoc creator\\import\\gnu\\arm\\5.4.
 785              		.file 3 "Generated_Source\\PSoC5\\cytypes.h"
 786              		.file 4 "Generated_Source\\PSoC5\\CyLib.h"