ARM GAS  C:\Users\larco\AppData\Local\Temp\cc9jLpwY.s 			page 1


   1              		.syntax unified
   2              		.cpu cortex-m3
   3              		.fpu softvfp
   4              		.eabi_attribute 20, 1
   5              		.eabi_attribute 21, 1
   6              		.eabi_attribute 23, 3
   7              		.eabi_attribute 24, 1
   8              		.eabi_attribute 25, 1
   9              		.eabi_attribute 26, 1
  10              		.eabi_attribute 30, 2
  11              		.eabi_attribute 34, 1
  12              		.eabi_attribute 18, 4
  13              		.thumb
  14              		.syntax unified
  15              		.file	"CySpc.c"
  16              		.text
  17              	.Ltext0:
  18              		.cfi_sections	.debug_frame
  19              		.section	.text.CySpcStart,"ax",%progbits
  20              		.align	2
  21              		.global	CySpcStart
  22              		.thumb
  23              		.thumb_func
  24              		.type	CySpcStart, %function
  25              	CySpcStart:
  26              	.LFB0:
  27              		.file 1 "Generated_Source\\PSoC5\\CySpc.c"
   1:Generated_Source\PSoC5/CySpc.c **** /***************************************************************************//**
   2:Generated_Source\PSoC5/CySpc.c **** * \file CySpc.c
   3:Generated_Source\PSoC5/CySpc.c **** * \version 5.70
   4:Generated_Source\PSoC5/CySpc.c **** *
   5:Generated_Source\PSoC5/CySpc.c **** * \brief Provides an API for the System Performance Component.
   6:Generated_Source\PSoC5/CySpc.c **** * The SPC functions are not meant to be called directly by the user
   7:Generated_Source\PSoC5/CySpc.c **** * application.
   8:Generated_Source\PSoC5/CySpc.c **** *
   9:Generated_Source\PSoC5/CySpc.c **** ********************************************************************************
  10:Generated_Source\PSoC5/CySpc.c **** * \copyright
  11:Generated_Source\PSoC5/CySpc.c **** * Copyright 2008-2018, Cypress Semiconductor Corporation.  All rights reserved.
  12:Generated_Source\PSoC5/CySpc.c **** * You may use this file only in accordance with the license, terms, conditions,
  13:Generated_Source\PSoC5/CySpc.c **** * disclaimers, and limitations in the end user license agreement accompanying
  14:Generated_Source\PSoC5/CySpc.c **** * the software package with which this file was provided.
  15:Generated_Source\PSoC5/CySpc.c **** *******************************************************************************/
  16:Generated_Source\PSoC5/CySpc.c **** 
  17:Generated_Source\PSoC5/CySpc.c **** #include "CySpc.h"
  18:Generated_Source\PSoC5/CySpc.c **** 
  19:Generated_Source\PSoC5/CySpc.c **** #define CY_SPC_KEY_ONE                      (0xB6u)
  20:Generated_Source\PSoC5/CySpc.c **** #define CY_SPC_KEY_TWO(x)                   ((uint8) (((uint16) 0xD3u) + ((uint16) (x))))
  21:Generated_Source\PSoC5/CySpc.c **** 
  22:Generated_Source\PSoC5/CySpc.c **** /* Command Codes */
  23:Generated_Source\PSoC5/CySpc.c **** #define CY_SPC_CMD_LD_BYTE                  (0x00u)
  24:Generated_Source\PSoC5/CySpc.c **** #define CY_SPC_CMD_LD_MULTI_BYTE            (0x01u)
  25:Generated_Source\PSoC5/CySpc.c **** #define CY_SPC_CMD_LD_ROW                   (0x02u)
  26:Generated_Source\PSoC5/CySpc.c **** #define CY_SPC_CMD_RD_BYTE                  (0x03u)
  27:Generated_Source\PSoC5/CySpc.c **** #define CY_SPC_CMD_RD_MULTI_BYTE            (0x04u)
  28:Generated_Source\PSoC5/CySpc.c **** #define CY_SPC_CMD_WR_ROW                   (0x05u)
  29:Generated_Source\PSoC5/CySpc.c **** #define CY_SPC_CMD_WR_USER_NVL              (0x06u)
  30:Generated_Source\PSoC5/CySpc.c **** #define CY_SPC_CMD_PRG_ROW                  (0x07u)
ARM GAS  C:\Users\larco\AppData\Local\Temp\cc9jLpwY.s 			page 2


  31:Generated_Source\PSoC5/CySpc.c **** #define CY_SPC_CMD_ER_SECTOR                (0x08u)
  32:Generated_Source\PSoC5/CySpc.c **** #define CY_SPC_CMD_ER_ALL                   (0x09u)
  33:Generated_Source\PSoC5/CySpc.c **** #define CY_SPC_CMD_RD_HIDDEN                (0x0Au)
  34:Generated_Source\PSoC5/CySpc.c **** #define CY_SPC_CMD_PRG_PROTECT              (0x0Bu)
  35:Generated_Source\PSoC5/CySpc.c **** #define CY_SPC_CMD_CHECKSUM                 (0x0Cu)
  36:Generated_Source\PSoC5/CySpc.c **** #define CY_SPC_CMD_DWNLD_ALGORITHM          (0x0Du)
  37:Generated_Source\PSoC5/CySpc.c **** #define CY_SPC_CMD_GET_TEMP                 (0x0Eu)
  38:Generated_Source\PSoC5/CySpc.c **** #define CY_SPC_CMD_GET_ADC                  (0x0Fu)
  39:Generated_Source\PSoC5/CySpc.c **** #define CY_SPC_CMD_RD_NVL_VOLATILE          (0x10u)
  40:Generated_Source\PSoC5/CySpc.c **** #define CY_SPC_CMD_SETUP_TS                 (0x11u)
  41:Generated_Source\PSoC5/CySpc.c **** #define CY_SPC_CMD_DISABLE_TS               (0x12u)
  42:Generated_Source\PSoC5/CySpc.c **** #define CY_SPC_CMD_ER_ROW                   (0x13u)
  43:Generated_Source\PSoC5/CySpc.c **** 
  44:Generated_Source\PSoC5/CySpc.c **** /* Enable bit in Active and Alternate Active mode templates */
  45:Generated_Source\PSoC5/CySpc.c **** #define PM_SPC_PM_EN                        (0x08u)
  46:Generated_Source\PSoC5/CySpc.c **** 
  47:Generated_Source\PSoC5/CySpc.c **** /* Gate calls to the SPC. */
  48:Generated_Source\PSoC5/CySpc.c **** uint8 SpcLockState = CY_SPC_UNLOCKED;
  49:Generated_Source\PSoC5/CySpc.c **** 
  50:Generated_Source\PSoC5/CySpc.c **** 
  51:Generated_Source\PSoC5/CySpc.c **** #if(CY_PSOC5)
  52:Generated_Source\PSoC5/CySpc.c **** 
  53:Generated_Source\PSoC5/CySpc.c ****     /***************************************************************************
  54:Generated_Source\PSoC5/CySpc.c ****     * The wait-state pipeline must be enabled prior to accessing the SPC
  55:Generated_Source\PSoC5/CySpc.c ****     * register interface regardless of CPU frequency. The CySpcLock() saves
  56:Generated_Source\PSoC5/CySpc.c ****     * current wait-state pipeline state and enables it. The CySpcUnlock()
  57:Generated_Source\PSoC5/CySpc.c ****     * function, which must be called after SPC transaction, restores original
  58:Generated_Source\PSoC5/CySpc.c ****     * state.
  59:Generated_Source\PSoC5/CySpc.c ****     ***************************************************************************/
  60:Generated_Source\PSoC5/CySpc.c ****     static uint32 spcWaitPipeBypass = 0u;
  61:Generated_Source\PSoC5/CySpc.c **** 
  62:Generated_Source\PSoC5/CySpc.c **** #endif  /* (CY_PSOC5) */
  63:Generated_Source\PSoC5/CySpc.c **** 
  64:Generated_Source\PSoC5/CySpc.c **** 
  65:Generated_Source\PSoC5/CySpc.c **** /*******************************************************************************
  66:Generated_Source\PSoC5/CySpc.c **** * Function Name: CySpcStart
  67:Generated_Source\PSoC5/CySpc.c **** ****************************************************************************//**
  68:Generated_Source\PSoC5/CySpc.c **** *  Starts the SPC.
  69:Generated_Source\PSoC5/CySpc.c **** *
  70:Generated_Source\PSoC5/CySpc.c **** *******************************************************************************/
  71:Generated_Source\PSoC5/CySpc.c **** void CySpcStart(void) 
  72:Generated_Source\PSoC5/CySpc.c **** {
  28              		.loc 1 72 0
  29              		.cfi_startproc
  30              		@ args = 0, pretend = 0, frame = 0
  31              		@ frame_needed = 0, uses_anonymous_args = 0
  32 0000 08B5     		push	{r3, lr}
  33              		.cfi_def_cfa_offset 8
  34              		.cfi_offset 3, -8
  35              		.cfi_offset 14, -4
  73:Generated_Source\PSoC5/CySpc.c ****     /* Save current global interrupt enable and disable it */
  74:Generated_Source\PSoC5/CySpc.c ****     uint8 interruptState = CyEnterCriticalSection();
  36              		.loc 1 74 0
  37 0002 FFF7FEFF 		bl	CyEnterCriticalSection
  38              	.LVL0:
  75:Generated_Source\PSoC5/CySpc.c **** 
  76:Generated_Source\PSoC5/CySpc.c ****     CY_SPC_PM_ACT_REG  |= PM_SPC_PM_EN;
ARM GAS  C:\Users\larco\AppData\Local\Temp\cc9jLpwY.s 			page 3


  39              		.loc 1 76 0
  40 0006 0749     		ldr	r1, .L3
  77:Generated_Source\PSoC5/CySpc.c ****     CY_SPC_PM_STBY_REG |= PM_SPC_PM_EN;
  41              		.loc 1 77 0
  42 0008 074A     		ldr	r2, .L3+4
  76:Generated_Source\PSoC5/CySpc.c ****     CY_SPC_PM_STBY_REG |= PM_SPC_PM_EN;
  43              		.loc 1 76 0
  44 000a 0B78     		ldrb	r3, [r1]	@ zero_extendqisi2
  45 000c 43F00803 		orr	r3, r3, #8
  46 0010 0B70     		strb	r3, [r1]
  47              		.loc 1 77 0
  48 0012 1378     		ldrb	r3, [r2]	@ zero_extendqisi2
  49 0014 43F00803 		orr	r3, r3, #8
  50 0018 1370     		strb	r3, [r2]
  78:Generated_Source\PSoC5/CySpc.c **** 
  79:Generated_Source\PSoC5/CySpc.c ****     /* Restore global interrupt enable state */
  80:Generated_Source\PSoC5/CySpc.c ****     CyExitCriticalSection(interruptState);
  81:Generated_Source\PSoC5/CySpc.c **** }
  51              		.loc 1 81 0
  52 001a BDE80840 		pop	{r3, lr}
  53              		.cfi_restore 14
  54              		.cfi_restore 3
  55              		.cfi_def_cfa_offset 0
  80:Generated_Source\PSoC5/CySpc.c **** }
  56              		.loc 1 80 0
  57 001e FFF7FEBF 		b	CyExitCriticalSection
  58              	.LVL1:
  59              	.L4:
  60 0022 00BF     		.align	2
  61              	.L3:
  62 0024 A0430040 		.word	1073759136
  63 0028 B0430040 		.word	1073759152
  64              		.cfi_endproc
  65              	.LFE0:
  66              		.size	CySpcStart, .-CySpcStart
  67              		.section	.text.CySpcStop,"ax",%progbits
  68              		.align	2
  69              		.global	CySpcStop
  70              		.thumb
  71              		.thumb_func
  72              		.type	CySpcStop, %function
  73              	CySpcStop:
  74              	.LFB1:
  82:Generated_Source\PSoC5/CySpc.c **** 
  83:Generated_Source\PSoC5/CySpc.c **** 
  84:Generated_Source\PSoC5/CySpc.c **** /*******************************************************************************
  85:Generated_Source\PSoC5/CySpc.c **** * Function Name: CySpcStop
  86:Generated_Source\PSoC5/CySpc.c **** ****************************************************************************//**
  87:Generated_Source\PSoC5/CySpc.c **** *  Stops the SPC.
  88:Generated_Source\PSoC5/CySpc.c **** *
  89:Generated_Source\PSoC5/CySpc.c **** *******************************************************************************/
  90:Generated_Source\PSoC5/CySpc.c **** void CySpcStop(void) 
  91:Generated_Source\PSoC5/CySpc.c **** {
  75              		.loc 1 91 0
  76              		.cfi_startproc
  77              		@ args = 0, pretend = 0, frame = 0
  78              		@ frame_needed = 0, uses_anonymous_args = 0
ARM GAS  C:\Users\larco\AppData\Local\Temp\cc9jLpwY.s 			page 4


  79 0000 08B5     		push	{r3, lr}
  80              		.cfi_def_cfa_offset 8
  81              		.cfi_offset 3, -8
  82              		.cfi_offset 14, -4
  92:Generated_Source\PSoC5/CySpc.c ****     /* Save current global interrupt enable and disable it */
  93:Generated_Source\PSoC5/CySpc.c ****     uint8 interruptState = CyEnterCriticalSection();
  83              		.loc 1 93 0
  84 0002 FFF7FEFF 		bl	CyEnterCriticalSection
  85              	.LVL2:
  94:Generated_Source\PSoC5/CySpc.c **** 
  95:Generated_Source\PSoC5/CySpc.c ****     CY_SPC_PM_ACT_REG  &= ((uint8)(~PM_SPC_PM_EN));
  86              		.loc 1 95 0
  87 0006 0749     		ldr	r1, .L7
  96:Generated_Source\PSoC5/CySpc.c ****     CY_SPC_PM_STBY_REG &= ((uint8)(~PM_SPC_PM_EN));
  88              		.loc 1 96 0
  89 0008 074A     		ldr	r2, .L7+4
  95:Generated_Source\PSoC5/CySpc.c ****     CY_SPC_PM_STBY_REG &= ((uint8)(~PM_SPC_PM_EN));
  90              		.loc 1 95 0
  91 000a 0B78     		ldrb	r3, [r1]	@ zero_extendqisi2
  92 000c 03F0F703 		and	r3, r3, #247
  93 0010 0B70     		strb	r3, [r1]
  94              		.loc 1 96 0
  95 0012 1378     		ldrb	r3, [r2]	@ zero_extendqisi2
  96 0014 03F0F703 		and	r3, r3, #247
  97 0018 1370     		strb	r3, [r2]
  97:Generated_Source\PSoC5/CySpc.c **** 
  98:Generated_Source\PSoC5/CySpc.c ****     /* Restore global interrupt enable state */
  99:Generated_Source\PSoC5/CySpc.c ****     CyExitCriticalSection(interruptState);
 100:Generated_Source\PSoC5/CySpc.c **** }
  98              		.loc 1 100 0
  99 001a BDE80840 		pop	{r3, lr}
 100              		.cfi_restore 14
 101              		.cfi_restore 3
 102              		.cfi_def_cfa_offset 0
  99:Generated_Source\PSoC5/CySpc.c **** }
 103              		.loc 1 99 0
 104 001e FFF7FEBF 		b	CyExitCriticalSection
 105              	.LVL3:
 106              	.L8:
 107 0022 00BF     		.align	2
 108              	.L7:
 109 0024 A0430040 		.word	1073759136
 110 0028 B0430040 		.word	1073759152
 111              		.cfi_endproc
 112              	.LFE1:
 113              		.size	CySpcStop, .-CySpcStop
 114              		.section	.text.CySpcReadData,"ax",%progbits
 115              		.align	2
 116              		.global	CySpcReadData
 117              		.thumb
 118              		.thumb_func
 119              		.type	CySpcReadData, %function
 120              	CySpcReadData:
 121              	.LFB2:
 101:Generated_Source\PSoC5/CySpc.c **** 
 102:Generated_Source\PSoC5/CySpc.c **** 
 103:Generated_Source\PSoC5/CySpc.c **** /*******************************************************************************
ARM GAS  C:\Users\larco\AppData\Local\Temp\cc9jLpwY.s 			page 5


 104:Generated_Source\PSoC5/CySpc.c **** * Function Name: CySpcReadData
 105:Generated_Source\PSoC5/CySpc.c **** ****************************************************************************//**
 106:Generated_Source\PSoC5/CySpc.c **** *  Reads data from the SPC.
 107:Generated_Source\PSoC5/CySpc.c **** *
 108:Generated_Source\PSoC5/CySpc.c **** *  \param uint8 buffer:
 109:Generated_Source\PSoC5/CySpc.c **** *   Address to store data read.
 110:Generated_Source\PSoC5/CySpc.c **** *
 111:Generated_Source\PSoC5/CySpc.c **** *  \param uint8 size:
 112:Generated_Source\PSoC5/CySpc.c **** *   Number of bytes to read from the SPC.
 113:Generated_Source\PSoC5/CySpc.c **** *
 114:Generated_Source\PSoC5/CySpc.c **** * \return
 115:Generated_Source\PSoC5/CySpc.c **** *  uint8:
 116:Generated_Source\PSoC5/CySpc.c **** *   The number of bytes read from the SPC.
 117:Generated_Source\PSoC5/CySpc.c **** *
 118:Generated_Source\PSoC5/CySpc.c **** *******************************************************************************/
 119:Generated_Source\PSoC5/CySpc.c **** uint8 CySpcReadData(uint8 buffer[], uint8 size) 
 120:Generated_Source\PSoC5/CySpc.c **** {
 122              		.loc 1 120 0
 123              		.cfi_startproc
 124              		@ args = 0, pretend = 0, frame = 0
 125              		@ frame_needed = 0, uses_anonymous_args = 0
 126              	.LVL4:
 127 0000 2DE9F041 		push	{r4, r5, r6, r7, r8, lr}
 128              		.cfi_def_cfa_offset 24
 129              		.cfi_offset 4, -24
 130              		.cfi_offset 5, -20
 131              		.cfi_offset 6, -16
 132              		.cfi_offset 7, -12
 133              		.cfi_offset 8, -8
 134              		.cfi_offset 14, -4
 121:Generated_Source\PSoC5/CySpc.c ****     uint8 i;
 122:Generated_Source\PSoC5/CySpc.c **** 
 123:Generated_Source\PSoC5/CySpc.c ****     for(i = 0u; i < size; i++)
 135              		.loc 1 123 0
 136 0004 0F46     		mov	r7, r1
 137 0006 99B1     		cbz	r1, .L10
 138 0008 4E1E     		subs	r6, r1, #1
 139 000a F6B2     		uxtb	r6, r6
 140 000c 0644     		add	r6, r6, r0
 141 000e 451E     		subs	r5, r0, #1
 124:Generated_Source\PSoC5/CySpc.c ****     {
 125:Generated_Source\PSoC5/CySpc.c ****         while(!CY_SPC_DATA_READY)
 142              		.loc 1 125 0
 143 0010 094C     		ldr	r4, .L24
 126:Generated_Source\PSoC5/CySpc.c ****         {
 127:Generated_Source\PSoC5/CySpc.c ****             CyDelayUs(1u);
 128:Generated_Source\PSoC5/CySpc.c ****         }
 129:Generated_Source\PSoC5/CySpc.c ****         buffer[i] = CY_SPC_CPU_DATA_REG;
 144              		.loc 1 129 0
 145 0012 DFF82880 		ldr	r8, .L24+4
 146 0016 02E0     		b	.L22
 147              	.LVL5:
 148              	.L12:
 127:Generated_Source\PSoC5/CySpc.c ****         }
 149              		.loc 1 127 0
 150 0018 0120     		movs	r0, #1
 151 001a FFF7FEFF 		bl	CyDelayUs
ARM GAS  C:\Users\larco\AppData\Local\Temp\cc9jLpwY.s 			page 6


 152              	.LVL6:
 153              	.L22:
 125:Generated_Source\PSoC5/CySpc.c ****         {
 154              		.loc 1 125 0
 155 001e 2378     		ldrb	r3, [r4]	@ zero_extendqisi2
 156 0020 DB07     		lsls	r3, r3, #31
 157 0022 F9D5     		bpl	.L12
 158              		.loc 1 129 0
 159 0024 98F80030 		ldrb	r3, [r8]	@ zero_extendqisi2
 160 0028 05F8013F 		strb	r3, [r5, #1]!
 161              	.LVL7:
 123:Generated_Source\PSoC5/CySpc.c ****     {
 162              		.loc 1 123 0
 163 002c B542     		cmp	r5, r6
 164 002e F6D1     		bne	.L22
 165              	.LVL8:
 166              	.L10:
 130:Generated_Source\PSoC5/CySpc.c ****     }
 131:Generated_Source\PSoC5/CySpc.c **** 
 132:Generated_Source\PSoC5/CySpc.c ****     return(i);
 133:Generated_Source\PSoC5/CySpc.c **** }
 167              		.loc 1 133 0
 168 0030 3846     		mov	r0, r7
 169 0032 BDE8F081 		pop	{r4, r5, r6, r7, r8, pc}
 170              	.L25:
 171 0036 00BF     		.align	2
 172              	.L24:
 173 0038 22470040 		.word	1073760034
 174 003c 20470040 		.word	1073760032
 175              		.cfi_endproc
 176              	.LFE2:
 177              		.size	CySpcReadData, .-CySpcReadData
 178              		.section	.text.CySpcLoadMultiByte,"ax",%progbits
 179              		.align	2
 180              		.global	CySpcLoadMultiByte
 181              		.thumb
 182              		.thumb_func
 183              		.type	CySpcLoadMultiByte, %function
 184              	CySpcLoadMultiByte:
 185              	.LFB3:
 134:Generated_Source\PSoC5/CySpc.c **** 
 135:Generated_Source\PSoC5/CySpc.c **** 
 136:Generated_Source\PSoC5/CySpc.c **** /*******************************************************************************
 137:Generated_Source\PSoC5/CySpc.c **** * Function Name: CySpcLoadMultiByte
 138:Generated_Source\PSoC5/CySpc.c **** ****************************************************************************//**
 139:Generated_Source\PSoC5/CySpc.c **** *  Loads 1 to 32 bytes of data into the row latch of a Flash/EEPROM array.
 140:Generated_Source\PSoC5/CySpc.c **** *
 141:Generated_Source\PSoC5/CySpc.c **** *  \param uint8 array:
 142:Generated_Source\PSoC5/CySpc.c **** *   Id of the array.
 143:Generated_Source\PSoC5/CySpc.c **** *
 144:Generated_Source\PSoC5/CySpc.c **** *  \param uint16 address:
 145:Generated_Source\PSoC5/CySpc.c **** *   Flash/eeprom addrress
 146:Generated_Source\PSoC5/CySpc.c **** *
 147:Generated_Source\PSoC5/CySpc.c **** *  \param uint8* buffer:
 148:Generated_Source\PSoC5/CySpc.c **** *   Data to load to the row latch
 149:Generated_Source\PSoC5/CySpc.c **** *
 150:Generated_Source\PSoC5/CySpc.c **** *  \param uint16 number:
ARM GAS  C:\Users\larco\AppData\Local\Temp\cc9jLpwY.s 			page 7


 151:Generated_Source\PSoC5/CySpc.c **** *   Number bytes to load.
 152:Generated_Source\PSoC5/CySpc.c **** *
 153:Generated_Source\PSoC5/CySpc.c **** * \return
 154:Generated_Source\PSoC5/CySpc.c **** *  CYRET_STARTED
 155:Generated_Source\PSoC5/CySpc.c **** *  CYRET_CANCELED
 156:Generated_Source\PSoC5/CySpc.c **** *  CYRET_LOCKED
 157:Generated_Source\PSoC5/CySpc.c **** *  CYRET_BAD_PARAM
 158:Generated_Source\PSoC5/CySpc.c **** *
 159:Generated_Source\PSoC5/CySpc.c **** *******************************************************************************/
 160:Generated_Source\PSoC5/CySpc.c **** cystatus CySpcLoadMultiByte(uint8 array, uint16 address, const uint8 buffer[], uint8 size)\
 161:Generated_Source\PSoC5/CySpc.c **** 
 162:Generated_Source\PSoC5/CySpc.c **** {
 186              		.loc 1 162 0
 187              		.cfi_startproc
 188              		@ args = 0, pretend = 0, frame = 0
 189              		@ frame_needed = 0, uses_anonymous_args = 0
 190              		@ link register save eliminated.
 191              	.LVL9:
 163:Generated_Source\PSoC5/CySpc.c ****     cystatus status = CYRET_STARTED;
 164:Generated_Source\PSoC5/CySpc.c ****     uint8 i;
 165:Generated_Source\PSoC5/CySpc.c **** 
 166:Generated_Source\PSoC5/CySpc.c ****     /***************************************************************************
 167:Generated_Source\PSoC5/CySpc.c ****     * Check if number is correct for array. Number must be less than
 168:Generated_Source\PSoC5/CySpc.c ****     * 32 for Flash or less than 16 for EEPROM.
 169:Generated_Source\PSoC5/CySpc.c ****     ***************************************************************************/
 170:Generated_Source\PSoC5/CySpc.c ****     if(((array < CY_SPC_LAST_FLASH_ARRAYID) && (size < 32u)) ||
 192              		.loc 1 170 0
 193 0000 3E28     		cmp	r0, #62
 162:Generated_Source\PSoC5/CySpc.c ****     cystatus status = CYRET_STARTED;
 194              		.loc 1 162 0
 195 0002 F0B4     		push	{r4, r5, r6, r7}
 196              		.cfi_def_cfa_offset 16
 197              		.cfi_offset 4, -16
 198              		.cfi_offset 5, -12
 199              		.cfi_offset 6, -8
 200              		.cfi_offset 7, -4
 201              		.loc 1 170 0
 202 0004 08D8     		bhi	.L27
 203              		.loc 1 170 0 is_stmt 0 discriminator 1
 204 0006 1F2B     		cmp	r3, #31
 205 0008 0AD8     		bhi	.L34
 206              	.L28:
 171:Generated_Source\PSoC5/CySpc.c ****        ((array > CY_SPC_LAST_FLASH_ARRAYID) && (size < 16u)))
 172:Generated_Source\PSoC5/CySpc.c ****     {
 173:Generated_Source\PSoC5/CySpc.c ****         if(CY_SPC_IDLE)
 207              		.loc 1 173 0 is_stmt 1
 208 000a 174D     		ldr	r5, .L41
 209 000c 2C78     		ldrb	r4, [r5]	@ zero_extendqisi2
 210 000e A607     		lsls	r6, r4, #30
 211 0010 09D4     		bmi	.L39
 174:Generated_Source\PSoC5/CySpc.c ****         {
 175:Generated_Source\PSoC5/CySpc.c ****             CY_SPC_CPU_DATA_REG = CY_SPC_KEY_ONE;
 176:Generated_Source\PSoC5/CySpc.c ****             CY_SPC_CPU_DATA_REG = CY_SPC_KEY_TWO(CY_SPC_CMD_LD_MULTI_BYTE);
 177:Generated_Source\PSoC5/CySpc.c ****             CY_SPC_CPU_DATA_REG = CY_SPC_CMD_LD_MULTI_BYTE;
 178:Generated_Source\PSoC5/CySpc.c **** 
 179:Generated_Source\PSoC5/CySpc.c ****             if(CY_SPC_BUSY)
 180:Generated_Source\PSoC5/CySpc.c ****             {
ARM GAS  C:\Users\larco\AppData\Local\Temp\cc9jLpwY.s 			page 8


 181:Generated_Source\PSoC5/CySpc.c ****                 CY_SPC_CPU_DATA_REG = array;
 182:Generated_Source\PSoC5/CySpc.c ****                 CY_SPC_CPU_DATA_REG = 1u & HI8(address);
 183:Generated_Source\PSoC5/CySpc.c ****                 CY_SPC_CPU_DATA_REG = LO8(address);
 184:Generated_Source\PSoC5/CySpc.c ****                 CY_SPC_CPU_DATA_REG = ((uint8)(size - 1u));
 185:Generated_Source\PSoC5/CySpc.c **** 
 186:Generated_Source\PSoC5/CySpc.c ****                 for(i = 0u; i < size; i++)
 187:Generated_Source\PSoC5/CySpc.c ****                 {
 188:Generated_Source\PSoC5/CySpc.c ****                     CY_SPC_CPU_DATA_REG = buffer[i];
 189:Generated_Source\PSoC5/CySpc.c ****                 }
 190:Generated_Source\PSoC5/CySpc.c ****             }
 191:Generated_Source\PSoC5/CySpc.c ****             else
 192:Generated_Source\PSoC5/CySpc.c ****             {
 193:Generated_Source\PSoC5/CySpc.c ****                 status = CYRET_CANCELED;
 194:Generated_Source\PSoC5/CySpc.c ****             }
 195:Generated_Source\PSoC5/CySpc.c ****         }
 196:Generated_Source\PSoC5/CySpc.c ****         else
 197:Generated_Source\PSoC5/CySpc.c ****         {
 198:Generated_Source\PSoC5/CySpc.c ****             status = CYRET_LOCKED;
 212              		.loc 1 198 0
 213 0012 0420     		movs	r0, #4
 214              	.LVL10:
 215              	.L29:
 199:Generated_Source\PSoC5/CySpc.c ****         }
 200:Generated_Source\PSoC5/CySpc.c ****     }
 201:Generated_Source\PSoC5/CySpc.c ****     else
 202:Generated_Source\PSoC5/CySpc.c ****     {
 203:Generated_Source\PSoC5/CySpc.c ****         status = CYRET_BAD_PARAM;
 204:Generated_Source\PSoC5/CySpc.c ****     }
 205:Generated_Source\PSoC5/CySpc.c **** 
 206:Generated_Source\PSoC5/CySpc.c ****     return(status);
 207:Generated_Source\PSoC5/CySpc.c **** }
 216              		.loc 1 207 0
 217 0014 F0BC     		pop	{r4, r5, r6, r7}
 218              		.cfi_remember_state
 219              		.cfi_restore 7
 220              		.cfi_restore 6
 221              		.cfi_restore 5
 222              		.cfi_restore 4
 223              		.cfi_def_cfa_offset 0
 224 0016 7047     		bx	lr
 225              	.LVL11:
 226              	.L27:
 227              		.cfi_restore_state
 170:Generated_Source\PSoC5/CySpc.c ****        ((array > CY_SPC_LAST_FLASH_ARRAYID) && (size < 16u)))
 228              		.loc 1 170 0 discriminator 3
 229 0018 3F28     		cmp	r0, #63
 230 001a 01D0     		beq	.L34
 171:Generated_Source\PSoC5/CySpc.c ****     {
 231              		.loc 1 171 0
 232 001c 0F2B     		cmp	r3, #15
 233 001e F4D9     		bls	.L28
 234              	.L34:
 235              		.loc 1 207 0
 236 0020 F0BC     		pop	{r4, r5, r6, r7}
 237              		.cfi_remember_state
 238              		.cfi_restore 4
 239              		.cfi_restore 5
ARM GAS  C:\Users\larco\AppData\Local\Temp\cc9jLpwY.s 			page 9


 240              		.cfi_restore 6
 241              		.cfi_restore 7
 242              		.cfi_def_cfa_offset 0
 203:Generated_Source\PSoC5/CySpc.c ****     }
 243              		.loc 1 203 0
 244 0022 0120     		movs	r0, #1
 245              	.LVL12:
 246              		.loc 1 207 0
 247 0024 7047     		bx	lr
 248              	.LVL13:
 249              	.L39:
 250              		.cfi_restore_state
 175:Generated_Source\PSoC5/CySpc.c ****             CY_SPC_CPU_DATA_REG = CY_SPC_KEY_TWO(CY_SPC_CMD_LD_MULTI_BYTE);
 251              		.loc 1 175 0
 252 0026 114C     		ldr	r4, .L41+4
 253 0028 B626     		movs	r6, #182
 254 002a 2670     		strb	r6, [r4]
 176:Generated_Source\PSoC5/CySpc.c ****             CY_SPC_CPU_DATA_REG = CY_SPC_CMD_LD_MULTI_BYTE;
 255              		.loc 1 176 0
 256 002c D427     		movs	r7, #212
 177:Generated_Source\PSoC5/CySpc.c **** 
 257              		.loc 1 177 0
 258 002e 0126     		movs	r6, #1
 176:Generated_Source\PSoC5/CySpc.c ****             CY_SPC_CPU_DATA_REG = CY_SPC_CMD_LD_MULTI_BYTE;
 259              		.loc 1 176 0
 260 0030 2770     		strb	r7, [r4]
 177:Generated_Source\PSoC5/CySpc.c **** 
 261              		.loc 1 177 0
 262 0032 2670     		strb	r6, [r4]
 179:Generated_Source\PSoC5/CySpc.c ****             {
 263              		.loc 1 179 0
 264 0034 2D78     		ldrb	r5, [r5]	@ zero_extendqisi2
 265 0036 AD07     		lsls	r5, r5, #30
 266 0038 02D5     		bpl	.L40
 267              		.loc 1 207 0
 268 003a F0BC     		pop	{r4, r5, r6, r7}
 269              		.cfi_remember_state
 270              		.cfi_restore 4
 271              		.cfi_restore 5
 272              		.cfi_restore 6
 273              		.cfi_restore 7
 274              		.cfi_def_cfa_offset 0
 193:Generated_Source\PSoC5/CySpc.c ****             }
 275              		.loc 1 193 0
 276 003c 0920     		movs	r0, #9
 277              	.LVL14:
 278              		.loc 1 207 0
 279 003e 7047     		bx	lr
 280              	.LVL15:
 281              	.L40:
 282              		.cfi_restore_state
 184:Generated_Source\PSoC5/CySpc.c **** 
 283              		.loc 1 184 0
 284 0040 5D1E     		subs	r5, r3, #1
 182:Generated_Source\PSoC5/CySpc.c ****                 CY_SPC_CPU_DATA_REG = LO8(address);
 285              		.loc 1 182 0
 286 0042 C1F30026 		ubfx	r6, r1, #8, #1
ARM GAS  C:\Users\larco\AppData\Local\Temp\cc9jLpwY.s 			page 10


 184:Generated_Source\PSoC5/CySpc.c **** 
 287              		.loc 1 184 0
 288 0046 EDB2     		uxtb	r5, r5
 183:Generated_Source\PSoC5/CySpc.c ****                 CY_SPC_CPU_DATA_REG = ((uint8)(size - 1u));
 289              		.loc 1 183 0
 290 0048 C9B2     		uxtb	r1, r1
 291              	.LVL16:
 181:Generated_Source\PSoC5/CySpc.c ****                 CY_SPC_CPU_DATA_REG = 1u & HI8(address);
 292              		.loc 1 181 0
 293 004a 2070     		strb	r0, [r4]
 182:Generated_Source\PSoC5/CySpc.c ****                 CY_SPC_CPU_DATA_REG = LO8(address);
 294              		.loc 1 182 0
 295 004c 2670     		strb	r6, [r4]
 183:Generated_Source\PSoC5/CySpc.c ****                 CY_SPC_CPU_DATA_REG = ((uint8)(size - 1u));
 296              		.loc 1 183 0
 297 004e 2170     		strb	r1, [r4]
 184:Generated_Source\PSoC5/CySpc.c **** 
 298              		.loc 1 184 0
 299 0050 2570     		strb	r5, [r4]
 300              	.LVL17:
 186:Generated_Source\PSoC5/CySpc.c ****                 {
 301              		.loc 1 186 0
 302 0052 33B1     		cbz	r3, .L32
 303 0054 5119     		adds	r1, r2, r5
 304 0056 013A     		subs	r2, r2, #1
 305              	.LVL18:
 306              	.L31:
 188:Generated_Source\PSoC5/CySpc.c ****                 }
 307              		.loc 1 188 0 discriminator 3
 308 0058 12F8013F 		ldrb	r3, [r2, #1]!	@ zero_extendqisi2
 309              	.LVL19:
 186:Generated_Source\PSoC5/CySpc.c ****                 {
 310              		.loc 1 186 0 discriminator 3
 311 005c 8A42     		cmp	r2, r1
 188:Generated_Source\PSoC5/CySpc.c ****                 }
 312              		.loc 1 188 0 discriminator 3
 313 005e 2370     		strb	r3, [r4]
 314              	.LVL20:
 186:Generated_Source\PSoC5/CySpc.c ****                 {
 315              		.loc 1 186 0 discriminator 3
 316 0060 FAD1     		bne	.L31
 317              	.LVL21:
 318              	.L32:
 163:Generated_Source\PSoC5/CySpc.c ****     uint8 i;
 319              		.loc 1 163 0
 320 0062 0720     		movs	r0, #7
 321              	.LVL22:
 322 0064 D6E7     		b	.L29
 323              	.L42:
 324 0066 00BF     		.align	2
 325              	.L41:
 326 0068 22470040 		.word	1073760034
 327 006c 20470040 		.word	1073760032
 328              		.cfi_endproc
 329              	.LFE3:
 330              		.size	CySpcLoadMultiByte, .-CySpcLoadMultiByte
 331              		.section	.text.CySpcLoadRow,"ax",%progbits
ARM GAS  C:\Users\larco\AppData\Local\Temp\cc9jLpwY.s 			page 11


 332              		.align	2
 333              		.global	CySpcLoadRow
 334              		.thumb
 335              		.thumb_func
 336              		.type	CySpcLoadRow, %function
 337              	CySpcLoadRow:
 338              	.LFB4:
 208:Generated_Source\PSoC5/CySpc.c **** 
 209:Generated_Source\PSoC5/CySpc.c **** 
 210:Generated_Source\PSoC5/CySpc.c **** /*******************************************************************************
 211:Generated_Source\PSoC5/CySpc.c **** * Function Name: CySpcLoadRow
 212:Generated_Source\PSoC5/CySpc.c **** ****************************************************************************//**
 213:Generated_Source\PSoC5/CySpc.c **** *  Loads a row of data into the row latch of a Flash/EEPROM array.
 214:Generated_Source\PSoC5/CySpc.c **** *
 215:Generated_Source\PSoC5/CySpc.c **** *  The buffer pointer should point to the data that should be written to the
 216:Generated_Source\PSoC5/CySpc.c **** *  flash row directly (no data in ECC/flash will be preserved). It is Flash API
 217:Generated_Source\PSoC5/CySpc.c **** *  responsibility to prepare data: the preserved data are copied from flash into
 218:Generated_Source\PSoC5/CySpc.c **** *  array with the modified data.
 219:Generated_Source\PSoC5/CySpc.c **** *
 220:Generated_Source\PSoC5/CySpc.c **** *  \param uint8 array:
 221:Generated_Source\PSoC5/CySpc.c **** *   Id of the array.
 222:Generated_Source\PSoC5/CySpc.c **** *
 223:Generated_Source\PSoC5/CySpc.c **** *  \param uint8* buffer:
 224:Generated_Source\PSoC5/CySpc.c **** *   Data to be loaded to the row latch
 225:Generated_Source\PSoC5/CySpc.c **** *
 226:Generated_Source\PSoC5/CySpc.c **** *  \param uint8 size:
 227:Generated_Source\PSoC5/CySpc.c **** *   The number of data bytes that the SPC expects to be written. Depends on the
 228:Generated_Source\PSoC5/CySpc.c **** *   type of the array and, if the array is Flash, whether ECC is being enabled
 229:Generated_Source\PSoC5/CySpc.c **** *   or not. There are following values: flash row latch size with ECC enabled,
 230:Generated_Source\PSoC5/CySpc.c **** *   flash row latch size with ECC disabled and EEPROM row latch size.
 231:Generated_Source\PSoC5/CySpc.c **** *
 232:Generated_Source\PSoC5/CySpc.c **** * \return
 233:Generated_Source\PSoC5/CySpc.c **** *  CYRET_STARTED
 234:Generated_Source\PSoC5/CySpc.c **** *  CYRET_CANCELED
 235:Generated_Source\PSoC5/CySpc.c **** *  CYRET_LOCKED
 236:Generated_Source\PSoC5/CySpc.c **** *
 237:Generated_Source\PSoC5/CySpc.c **** *******************************************************************************/
 238:Generated_Source\PSoC5/CySpc.c **** cystatus CySpcLoadRow(uint8 array, const uint8 buffer[], uint16 size)
 239:Generated_Source\PSoC5/CySpc.c **** {
 339              		.loc 1 239 0
 340              		.cfi_startproc
 341              		@ args = 0, pretend = 0, frame = 0
 342              		@ frame_needed = 0, uses_anonymous_args = 0
 343              		@ link register save eliminated.
 344              	.LVL23:
 345 0000 F0B4     		push	{r4, r5, r6, r7}
 346              		.cfi_def_cfa_offset 16
 347              		.cfi_offset 4, -16
 348              		.cfi_offset 5, -12
 349              		.cfi_offset 6, -8
 350              		.cfi_offset 7, -4
 240:Generated_Source\PSoC5/CySpc.c ****     cystatus status = CYRET_STARTED;
 241:Generated_Source\PSoC5/CySpc.c ****     uint16 i;
 242:Generated_Source\PSoC5/CySpc.c **** 
 243:Generated_Source\PSoC5/CySpc.c ****     /* Make sure the SPC is ready to accept command */
 244:Generated_Source\PSoC5/CySpc.c ****     if(CY_SPC_IDLE)
 351              		.loc 1 244 0
ARM GAS  C:\Users\larco\AppData\Local\Temp\cc9jLpwY.s 			page 12


 352 0002 114C     		ldr	r4, .L52
 353              	.LVL24:
 354 0004 2378     		ldrb	r3, [r4]	@ zero_extendqisi2
 355 0006 9D07     		lsls	r5, r3, #30
 356 0008 1BD5     		bpl	.L48
 245:Generated_Source\PSoC5/CySpc.c ****     {
 246:Generated_Source\PSoC5/CySpc.c ****         CY_SPC_CPU_DATA_REG = CY_SPC_KEY_ONE;
 357              		.loc 1 246 0
 358 000a 104B     		ldr	r3, .L52+4
 359 000c B627     		movs	r7, #182
 247:Generated_Source\PSoC5/CySpc.c ****         CY_SPC_CPU_DATA_REG = CY_SPC_KEY_TWO(CY_SPC_CMD_LD_ROW);
 360              		.loc 1 247 0
 361 000e D526     		movs	r6, #213
 248:Generated_Source\PSoC5/CySpc.c ****         CY_SPC_CPU_DATA_REG = CY_SPC_CMD_LD_ROW;
 362              		.loc 1 248 0
 363 0010 0225     		movs	r5, #2
 246:Generated_Source\PSoC5/CySpc.c ****         CY_SPC_CPU_DATA_REG = CY_SPC_KEY_TWO(CY_SPC_CMD_LD_ROW);
 364              		.loc 1 246 0
 365 0012 1F70     		strb	r7, [r3]
 247:Generated_Source\PSoC5/CySpc.c ****         CY_SPC_CPU_DATA_REG = CY_SPC_KEY_TWO(CY_SPC_CMD_LD_ROW);
 366              		.loc 1 247 0
 367 0014 1E70     		strb	r6, [r3]
 368              		.loc 1 248 0
 369 0016 1D70     		strb	r5, [r3]
 249:Generated_Source\PSoC5/CySpc.c **** 
 250:Generated_Source\PSoC5/CySpc.c ****         /* Make sure the command was accepted */
 251:Generated_Source\PSoC5/CySpc.c ****         if(CY_SPC_BUSY)
 370              		.loc 1 251 0
 371 0018 2478     		ldrb	r4, [r4]	@ zero_extendqisi2
 372 001a A407     		lsls	r4, r4, #30
 373 001c 0ED4     		bmi	.L49
 252:Generated_Source\PSoC5/CySpc.c ****         {
 253:Generated_Source\PSoC5/CySpc.c ****             CY_SPC_CPU_DATA_REG = array;
 374              		.loc 1 253 0
 375 001e 1870     		strb	r0, [r3]
 376              	.LVL25:
 254:Generated_Source\PSoC5/CySpc.c **** 
 255:Generated_Source\PSoC5/CySpc.c ****             for(i = 0u; i < size; i++)
 377              		.loc 1 255 0
 378 0020 4AB1     		cbz	r2, .L47
 256:Generated_Source\PSoC5/CySpc.c ****             {
 257:Generated_Source\PSoC5/CySpc.c ****                 CY_SPC_CPU_DATA_REG = buffer[i];
 379              		.loc 1 257 0
 380 0022 1846     		mov	r0, r3
 381              	.LVL26:
 382 0024 013A     		subs	r2, r2, #1
 383              	.LVL27:
 384 0026 92B2     		uxth	r2, r2
 385 0028 0A44     		add	r2, r2, r1
 386 002a 0139     		subs	r1, r1, #1
 387              	.LVL28:
 388              	.L46:
 389              		.loc 1 257 0 is_stmt 0 discriminator 3
 390 002c 11F8013F 		ldrb	r3, [r1, #1]!	@ zero_extendqisi2
 391              	.LVL29:
 255:Generated_Source\PSoC5/CySpc.c ****             {
 392              		.loc 1 255 0 is_stmt 1 discriminator 3
ARM GAS  C:\Users\larco\AppData\Local\Temp\cc9jLpwY.s 			page 13


 393 0030 9142     		cmp	r1, r2
 394              		.loc 1 257 0 discriminator 3
 395 0032 0370     		strb	r3, [r0]
 396              	.LVL30:
 255:Generated_Source\PSoC5/CySpc.c ****             {
 397              		.loc 1 255 0 discriminator 3
 398 0034 FAD1     		bne	.L46
 399              	.LVL31:
 400              	.L47:
 240:Generated_Source\PSoC5/CySpc.c ****     uint16 i;
 401              		.loc 1 240 0
 402 0036 0720     		movs	r0, #7
 403              	.LVL32:
 258:Generated_Source\PSoC5/CySpc.c ****             }
 259:Generated_Source\PSoC5/CySpc.c ****         }
 260:Generated_Source\PSoC5/CySpc.c ****         else
 261:Generated_Source\PSoC5/CySpc.c ****         {
 262:Generated_Source\PSoC5/CySpc.c ****             status = CYRET_CANCELED;
 263:Generated_Source\PSoC5/CySpc.c ****         }
 264:Generated_Source\PSoC5/CySpc.c ****     }
 265:Generated_Source\PSoC5/CySpc.c ****     else
 266:Generated_Source\PSoC5/CySpc.c ****     {
 267:Generated_Source\PSoC5/CySpc.c ****         status = CYRET_LOCKED;
 268:Generated_Source\PSoC5/CySpc.c ****     }
 269:Generated_Source\PSoC5/CySpc.c **** 
 270:Generated_Source\PSoC5/CySpc.c ****     return(status);
 271:Generated_Source\PSoC5/CySpc.c **** }
 404              		.loc 1 271 0
 405 0038 F0BC     		pop	{r4, r5, r6, r7}
 406              		.cfi_remember_state
 407              		.cfi_restore 7
 408              		.cfi_restore 6
 409              		.cfi_restore 5
 410              		.cfi_restore 4
 411              		.cfi_def_cfa_offset 0
 412 003a 7047     		bx	lr
 413              	.LVL33:
 414              	.L49:
 415              		.cfi_restore_state
 262:Generated_Source\PSoC5/CySpc.c ****         }
 416              		.loc 1 262 0
 417 003c 0920     		movs	r0, #9
 418              	.LVL34:
 419              		.loc 1 271 0
 420 003e F0BC     		pop	{r4, r5, r6, r7}
 421              		.cfi_remember_state
 422              		.cfi_restore 4
 423              		.cfi_restore 5
 424              		.cfi_restore 6
 425              		.cfi_restore 7
 426              		.cfi_def_cfa_offset 0
 427 0040 7047     		bx	lr
 428              	.LVL35:
 429              	.L48:
 430              		.cfi_restore_state
 267:Generated_Source\PSoC5/CySpc.c ****     }
 431              		.loc 1 267 0
ARM GAS  C:\Users\larco\AppData\Local\Temp\cc9jLpwY.s 			page 14


 432 0042 0420     		movs	r0, #4
 433              	.LVL36:
 434              		.loc 1 271 0
 435 0044 F0BC     		pop	{r4, r5, r6, r7}
 436              		.cfi_restore 4
 437              		.cfi_restore 5
 438              		.cfi_restore 6
 439              		.cfi_restore 7
 440              		.cfi_def_cfa_offset 0
 441 0046 7047     		bx	lr
 442              	.L53:
 443              		.align	2
 444              	.L52:
 445 0048 22470040 		.word	1073760034
 446 004c 20470040 		.word	1073760032
 447              		.cfi_endproc
 448              	.LFE4:
 449              		.size	CySpcLoadRow, .-CySpcLoadRow
 450              		.section	.text.CySpcLoadRowFull,"ax",%progbits
 451              		.align	2
 452              		.global	CySpcLoadRowFull
 453              		.thumb
 454              		.thumb_func
 455              		.type	CySpcLoadRowFull, %function
 456              	CySpcLoadRowFull:
 457              	.LFB5:
 272:Generated_Source\PSoC5/CySpc.c **** 
 273:Generated_Source\PSoC5/CySpc.c **** 
 274:Generated_Source\PSoC5/CySpc.c **** /*******************************************************************************
 275:Generated_Source\PSoC5/CySpc.c **** * Function Name: CySpcLoadRowFull
 276:Generated_Source\PSoC5/CySpc.c **** ****************************************************************************//**
 277:Generated_Source\PSoC5/CySpc.c **** *  Loads a row of data into the row latch of a Flash/EEPROM array.
 278:Generated_Source\PSoC5/CySpc.c **** *
 279:Generated_Source\PSoC5/CySpc.c **** *  The only data that are going to be changed should be passed. The function
 280:Generated_Source\PSoC5/CySpc.c **** *  will handle unmodified data preservation based on DWR settings and input
 281:Generated_Source\PSoC5/CySpc.c **** *  parameters.
 282:Generated_Source\PSoC5/CySpc.c **** *
 283:Generated_Source\PSoC5/CySpc.c **** *  \param uint8 array:
 284:Generated_Source\PSoC5/CySpc.c **** *   Id of the array.
 285:Generated_Source\PSoC5/CySpc.c **** *
 286:Generated_Source\PSoC5/CySpc.c **** *  \param uint16 row:
 287:Generated_Source\PSoC5/CySpc.c **** *   Flash row number to be loaded.
 288:Generated_Source\PSoC5/CySpc.c **** *
 289:Generated_Source\PSoC5/CySpc.c **** *  \param uint8* buffer:
 290:Generated_Source\PSoC5/CySpc.c **** *   Data to be loaded to the row latch
 291:Generated_Source\PSoC5/CySpc.c **** *
 292:Generated_Source\PSoC5/CySpc.c **** *  \param uint8 size:
 293:Generated_Source\PSoC5/CySpc.c **** *   The number of data bytes that the SPC expects to be written. Depends on the
 294:Generated_Source\PSoC5/CySpc.c **** *   type of the array and, if the array is Flash, whether ECC is being enabled
 295:Generated_Source\PSoC5/CySpc.c **** *   or not. There are following values: flash row latch size with ECC enabled,
 296:Generated_Source\PSoC5/CySpc.c **** *   flash row latch size with ECC disabled and EEPROM row latch size.
 297:Generated_Source\PSoC5/CySpc.c **** *
 298:Generated_Source\PSoC5/CySpc.c **** * \return
 299:Generated_Source\PSoC5/CySpc.c **** *  CYRET_STARTED
 300:Generated_Source\PSoC5/CySpc.c **** *  CYRET_CANCELED
 301:Generated_Source\PSoC5/CySpc.c **** *  CYRET_LOCKED
 302:Generated_Source\PSoC5/CySpc.c **** *
ARM GAS  C:\Users\larco\AppData\Local\Temp\cc9jLpwY.s 			page 15


 303:Generated_Source\PSoC5/CySpc.c **** *******************************************************************************/
 304:Generated_Source\PSoC5/CySpc.c **** cystatus CySpcLoadRowFull(uint8 array, uint16 row, const uint8 buffer[], uint16 size)\
 305:Generated_Source\PSoC5/CySpc.c **** 
 306:Generated_Source\PSoC5/CySpc.c **** {
 458              		.loc 1 306 0
 459              		.cfi_startproc
 460              		@ args = 0, pretend = 0, frame = 0
 461              		@ frame_needed = 0, uses_anonymous_args = 0
 462              		@ link register save eliminated.
 463              	.LVL37:
 464 0000 F0B4     		push	{r4, r5, r6, r7}
 465              		.cfi_def_cfa_offset 16
 466              		.cfi_offset 4, -16
 467              		.cfi_offset 5, -12
 468              		.cfi_offset 6, -8
 469              		.cfi_offset 7, -4
 307:Generated_Source\PSoC5/CySpc.c ****     cystatus status = CYRET_STARTED;
 308:Generated_Source\PSoC5/CySpc.c ****     uint16 i;
 309:Generated_Source\PSoC5/CySpc.c **** 
 310:Generated_Source\PSoC5/CySpc.c ****     #if (CYDEV_ECC_ENABLE == 0)
 311:Generated_Source\PSoC5/CySpc.c ****         uint32 offset;
 312:Generated_Source\PSoC5/CySpc.c ****     #endif /* (CYDEV_ECC_ENABLE == 0) */
 313:Generated_Source\PSoC5/CySpc.c **** 
 314:Generated_Source\PSoC5/CySpc.c ****     /* Make sure the SPC is ready to accept command */
 315:Generated_Source\PSoC5/CySpc.c ****     if(CY_SPC_IDLE)
 470              		.loc 1 315 0
 471 0002 1B4C     		ldr	r4, .L66
 472 0004 2578     		ldrb	r5, [r4]	@ zero_extendqisi2
 473              	.LVL38:
 474 0006 AD07     		lsls	r5, r5, #30
 475 0008 1DD5     		bpl	.L60
 316:Generated_Source\PSoC5/CySpc.c ****     {
 317:Generated_Source\PSoC5/CySpc.c ****         CY_SPC_CPU_DATA_REG = CY_SPC_KEY_ONE;
 476              		.loc 1 317 0
 477 000a 1A4D     		ldr	r5, .L66+4
 478 000c B626     		movs	r6, #182
 479 000e 2E70     		strb	r6, [r5]
 318:Generated_Source\PSoC5/CySpc.c ****         CY_SPC_CPU_DATA_REG = CY_SPC_KEY_TWO(CY_SPC_CMD_LD_ROW);
 480              		.loc 1 318 0
 481 0010 D527     		movs	r7, #213
 319:Generated_Source\PSoC5/CySpc.c ****         CY_SPC_CPU_DATA_REG = CY_SPC_CMD_LD_ROW;
 482              		.loc 1 319 0
 483 0012 0226     		movs	r6, #2
 318:Generated_Source\PSoC5/CySpc.c ****         CY_SPC_CPU_DATA_REG = CY_SPC_KEY_TWO(CY_SPC_CMD_LD_ROW);
 484              		.loc 1 318 0
 485 0014 2F70     		strb	r7, [r5]
 486              		.loc 1 319 0
 487 0016 2E70     		strb	r6, [r5]
 320:Generated_Source\PSoC5/CySpc.c **** 
 321:Generated_Source\PSoC5/CySpc.c ****         /* Make sure the command was accepted */
 322:Generated_Source\PSoC5/CySpc.c ****         if(CY_SPC_BUSY)
 488              		.loc 1 322 0
 489 0018 2478     		ldrb	r4, [r4]	@ zero_extendqisi2
 490 001a A407     		lsls	r4, r4, #30
 491 001c 10D4     		bmi	.L61
 323:Generated_Source\PSoC5/CySpc.c ****         {
 324:Generated_Source\PSoC5/CySpc.c ****             CY_SPC_CPU_DATA_REG = array;
ARM GAS  C:\Users\larco\AppData\Local\Temp\cc9jLpwY.s 			page 16


 492              		.loc 1 324 0
 493 001e 2870     		strb	r0, [r5]
 494              	.LVL39:
 325:Generated_Source\PSoC5/CySpc.c **** 
 326:Generated_Source\PSoC5/CySpc.c ****             /*******************************************************************
 327:Generated_Source\PSoC5/CySpc.c ****             * If "Enable Error Correcting Code (ECC)" and "Store Configuration
 328:Generated_Source\PSoC5/CySpc.c ****             * Data in ECC" DWR options are disabled, ECC section is available
 329:Generated_Source\PSoC5/CySpc.c ****             * for user data.
 330:Generated_Source\PSoC5/CySpc.c ****             *******************************************************************/
 331:Generated_Source\PSoC5/CySpc.c ****             #if ((CYDEV_ECC_ENABLE == 0u) && (CYDEV_CONFIGURATION_ECC == 0u))
 332:Generated_Source\PSoC5/CySpc.c **** 
 333:Generated_Source\PSoC5/CySpc.c ****                 /*******************************************************************
 334:Generated_Source\PSoC5/CySpc.c ****                 * If size parameter equals size of the ECC row and selected array
 335:Generated_Source\PSoC5/CySpc.c ****                 * identification corresponds to the flash array (but not to EEPROM
 336:Generated_Source\PSoC5/CySpc.c ****                 * array) then data are going to be written to the ECC section.
 337:Generated_Source\PSoC5/CySpc.c ****                 * In this case flash data must be preserved. The flash data copied
 338:Generated_Source\PSoC5/CySpc.c ****                 * from flash data section to the SPC data register.
 339:Generated_Source\PSoC5/CySpc.c ****                 *******************************************************************/
 340:Generated_Source\PSoC5/CySpc.c ****                 if ((size == CYDEV_ECC_ROW_SIZE) && (array <= CY_SPC_LAST_FLASH_ARRAYID))
 341:Generated_Source\PSoC5/CySpc.c ****                 {
 342:Generated_Source\PSoC5/CySpc.c ****                     offset = CYDEV_FLS_BASE +
 343:Generated_Source\PSoC5/CySpc.c ****                              ((uint32) array * CYDEV_FLS_SECTOR_SIZE) +
 344:Generated_Source\PSoC5/CySpc.c ****                              ((uint32)   row * CYDEV_FLS_ROW_SIZE   );
 345:Generated_Source\PSoC5/CySpc.c **** 
 346:Generated_Source\PSoC5/CySpc.c ****                     for (i = 0u; i < CYDEV_FLS_ROW_SIZE; i++)
 347:Generated_Source\PSoC5/CySpc.c ****                     {
 348:Generated_Source\PSoC5/CySpc.c ****                         CY_SPC_CPU_DATA_REG = CY_GET_XTND_REG8((void CYFAR *)(offset + i));
 349:Generated_Source\PSoC5/CySpc.c ****                     }
 350:Generated_Source\PSoC5/CySpc.c ****                 }
 351:Generated_Source\PSoC5/CySpc.c **** 
 352:Generated_Source\PSoC5/CySpc.c ****             #endif /* ((CYDEV_ECC_ENABLE == 0u) && (CYDEV_CONFIGURATION_ECC == 0u)) */
 353:Generated_Source\PSoC5/CySpc.c **** 
 354:Generated_Source\PSoC5/CySpc.c **** 
 355:Generated_Source\PSoC5/CySpc.c ****             for(i = 0u; i < size; i++)
 495              		.loc 1 355 0
 496 0020 5BB1     		cbz	r3, .L58
 497 0022 5E1E     		subs	r6, r3, #1
 498 0024 B6B2     		uxth	r6, r6
 499 0026 1644     		add	r6, r6, r2
 500 0028 013A     		subs	r2, r2, #1
 501              	.LVL40:
 502              	.L57:
 356:Generated_Source\PSoC5/CySpc.c ****             {
 357:Generated_Source\PSoC5/CySpc.c ****                 CY_SPC_CPU_DATA_REG = buffer[i];
 503              		.loc 1 357 0 discriminator 3
 504 002a 12F8014F 		ldrb	r4, [r2, #1]!	@ zero_extendqisi2
 505              	.LVL41:
 355:Generated_Source\PSoC5/CySpc.c ****             {
 506              		.loc 1 355 0 discriminator 3
 507 002e B242     		cmp	r2, r6
 508              		.loc 1 357 0 discriminator 3
 509 0030 2C70     		strb	r4, [r5]
 510              	.LVL42:
 355:Generated_Source\PSoC5/CySpc.c ****             {
 511              		.loc 1 355 0 discriminator 3
 512 0032 FAD1     		bne	.L57
 358:Generated_Source\PSoC5/CySpc.c ****             }
ARM GAS  C:\Users\larco\AppData\Local\Temp\cc9jLpwY.s 			page 17


 359:Generated_Source\PSoC5/CySpc.c **** 
 360:Generated_Source\PSoC5/CySpc.c **** 
 361:Generated_Source\PSoC5/CySpc.c ****             /*******************************************************************
 362:Generated_Source\PSoC5/CySpc.c ****             * If "Enable Error Correcting Code (ECC)" DWR option is disabled,
 363:Generated_Source\PSoC5/CySpc.c ****             * ECC section can be used for storing device configuration data
 364:Generated_Source\PSoC5/CySpc.c ****             * ("Store Configuration Data in ECC" DWR option is enabled) or for
 365:Generated_Source\PSoC5/CySpc.c ****             * storing user data in the ECC section ("Store Configuration Data in
 366:Generated_Source\PSoC5/CySpc.c ****             * ECC" DWR option is enabled). In both cases, the data in the ECC
 367:Generated_Source\PSoC5/CySpc.c ****             * section must be preserved if flash data is written.
 368:Generated_Source\PSoC5/CySpc.c ****             *******************************************************************/
 369:Generated_Source\PSoC5/CySpc.c ****             #if (CYDEV_ECC_ENABLE == 0)
 370:Generated_Source\PSoC5/CySpc.c **** 
 371:Generated_Source\PSoC5/CySpc.c **** 
 372:Generated_Source\PSoC5/CySpc.c ****                 /*******************************************************************
 373:Generated_Source\PSoC5/CySpc.c ****                 * If size parameter equals size of the flash row and selected array
 374:Generated_Source\PSoC5/CySpc.c ****                 * identification corresponds to the flash array (but not to EEPROM
 375:Generated_Source\PSoC5/CySpc.c ****                 * array) then data are going to be written to the flash data
 376:Generated_Source\PSoC5/CySpc.c ****                 * section. In this case, ECC section data must be preserved.
 377:Generated_Source\PSoC5/CySpc.c ****                 * The ECC section data copied from ECC section to the SPC data
 378:Generated_Source\PSoC5/CySpc.c ****                 * register.
 379:Generated_Source\PSoC5/CySpc.c ****                 *******************************************************************/
 380:Generated_Source\PSoC5/CySpc.c ****                 if ((size == CYDEV_FLS_ROW_SIZE) && (array <= CY_SPC_LAST_FLASH_ARRAYID))
 513              		.loc 1 380 0
 514 0034 B3F5807F 		cmp	r3, #256
 515 0038 08D0     		beq	.L65
 516              	.LVL43:
 517              	.L58:
 381:Generated_Source\PSoC5/CySpc.c ****                 {
 382:Generated_Source\PSoC5/CySpc.c ****                     offset = CYDEV_ECC_BASE +
 383:Generated_Source\PSoC5/CySpc.c ****                             ((uint32) array * CYDEV_ECC_SECTOR_SIZE) +
 384:Generated_Source\PSoC5/CySpc.c ****                             ((uint32) row   * CYDEV_ECC_ROW_SIZE   );
 385:Generated_Source\PSoC5/CySpc.c **** 
 386:Generated_Source\PSoC5/CySpc.c ****                     for (i = 0u; i < CYDEV_ECC_ROW_SIZE; i++)
 387:Generated_Source\PSoC5/CySpc.c ****                     {
 388:Generated_Source\PSoC5/CySpc.c ****                         CY_SPC_CPU_DATA_REG = CY_GET_XTND_REG8((void CYFAR *)(offset + i));
 389:Generated_Source\PSoC5/CySpc.c ****                     }
 390:Generated_Source\PSoC5/CySpc.c ****                 }
 391:Generated_Source\PSoC5/CySpc.c **** 
 392:Generated_Source\PSoC5/CySpc.c ****             #else
 393:Generated_Source\PSoC5/CySpc.c **** 
 394:Generated_Source\PSoC5/CySpc.c ****                 if(0u != row)
 395:Generated_Source\PSoC5/CySpc.c ****                 {
 396:Generated_Source\PSoC5/CySpc.c ****                     /* To remove unreferenced local variable warning */
 397:Generated_Source\PSoC5/CySpc.c ****                 }
 398:Generated_Source\PSoC5/CySpc.c **** 
 399:Generated_Source\PSoC5/CySpc.c ****             #endif /* (CYDEV_ECC_ENABLE == 0) */
 400:Generated_Source\PSoC5/CySpc.c ****         }
 401:Generated_Source\PSoC5/CySpc.c ****         else
 402:Generated_Source\PSoC5/CySpc.c ****         {
 403:Generated_Source\PSoC5/CySpc.c ****             status = CYRET_CANCELED;
 404:Generated_Source\PSoC5/CySpc.c ****         }
 405:Generated_Source\PSoC5/CySpc.c ****     }
 406:Generated_Source\PSoC5/CySpc.c ****     else
 407:Generated_Source\PSoC5/CySpc.c ****     {
 408:Generated_Source\PSoC5/CySpc.c ****         status = CYRET_LOCKED;
 409:Generated_Source\PSoC5/CySpc.c ****     }
 410:Generated_Source\PSoC5/CySpc.c **** 
ARM GAS  C:\Users\larco\AppData\Local\Temp\cc9jLpwY.s 			page 18


 411:Generated_Source\PSoC5/CySpc.c ****     return(status);
 412:Generated_Source\PSoC5/CySpc.c **** }
 518              		.loc 1 412 0
 519 003a F0BC     		pop	{r4, r5, r6, r7}
 520              		.cfi_remember_state
 521              		.cfi_restore 4
 522              		.cfi_restore 5
 523              		.cfi_restore 6
 524              		.cfi_restore 7
 525              		.cfi_def_cfa_offset 0
 307:Generated_Source\PSoC5/CySpc.c ****     uint16 i;
 526              		.loc 1 307 0
 527 003c 0720     		movs	r0, #7
 528              	.LVL44:
 529              		.loc 1 412 0
 530 003e 7047     		bx	lr
 531              	.LVL45:
 532              	.L61:
 533              		.cfi_restore_state
 403:Generated_Source\PSoC5/CySpc.c ****         }
 534              		.loc 1 403 0
 535 0040 0920     		movs	r0, #9
 536              	.LVL46:
 537              		.loc 1 412 0
 538 0042 F0BC     		pop	{r4, r5, r6, r7}
 539              		.cfi_remember_state
 540              		.cfi_restore 7
 541              		.cfi_restore 6
 542              		.cfi_restore 5
 543              		.cfi_restore 4
 544              		.cfi_def_cfa_offset 0
 545 0044 7047     		bx	lr
 546              	.LVL47:
 547              	.L60:
 548              		.cfi_restore_state
 408:Generated_Source\PSoC5/CySpc.c ****     }
 549              		.loc 1 408 0
 550 0046 0420     		movs	r0, #4
 551              	.LVL48:
 552              		.loc 1 412 0
 553 0048 F0BC     		pop	{r4, r5, r6, r7}
 554              		.cfi_remember_state
 555              		.cfi_restore 4
 556              		.cfi_restore 5
 557              		.cfi_restore 6
 558              		.cfi_restore 7
 559              		.cfi_def_cfa_offset 0
 560 004a 7047     		bx	lr
 561              	.LVL49:
 562              	.L65:
 563              		.cfi_restore_state
 380:Generated_Source\PSoC5/CySpc.c ****                 {
 564              		.loc 1 380 0 discriminator 1
 565 004c 3F28     		cmp	r0, #63
 566 004e F4D8     		bhi	.L58
 382:Generated_Source\PSoC5/CySpc.c ****                             ((uint32) array * CYDEV_ECC_SECTOR_SIZE) +
 567              		.loc 1 382 0
ARM GAS  C:\Users\larco\AppData\Local\Temp\cc9jLpwY.s 			page 19


 568 0050 00F51030 		add	r0, r0, #147456
 569              	.LVL50:
 570 0054 01EB0021 		add	r1, r1, r0, lsl #8
 571              	.LVL51:
 572 0058 4901     		lsls	r1, r1, #5
 573              	.LVL52:
 388:Generated_Source\PSoC5/CySpc.c ****                     }
 574              		.loc 1 388 0
 575 005a 0648     		ldr	r0, .L66+4
 382:Generated_Source\PSoC5/CySpc.c ****                             ((uint32) array * CYDEV_ECC_SECTOR_SIZE) +
 576              		.loc 1 382 0
 577 005c 0A46     		mov	r2, r1
 578 005e 2031     		adds	r1, r1, #32
 579              	.LVL53:
 580              	.L59:
 388:Generated_Source\PSoC5/CySpc.c ****                     }
 581              		.loc 1 388 0 discriminator 3
 582 0060 12F8013B 		ldrb	r3, [r2], #1	@ zero_extendqisi2
 583              	.LVL54:
 584 0064 DBB2     		uxtb	r3, r3
 386:Generated_Source\PSoC5/CySpc.c ****                     {
 585              		.loc 1 386 0 discriminator 3
 586 0066 9142     		cmp	r1, r2
 388:Generated_Source\PSoC5/CySpc.c ****                     }
 587              		.loc 1 388 0 discriminator 3
 588 0068 0370     		strb	r3, [r0]
 589              	.LVL55:
 386:Generated_Source\PSoC5/CySpc.c ****                     {
 590              		.loc 1 386 0 discriminator 3
 591 006a F9D1     		bne	.L59
 592 006c E5E7     		b	.L58
 593              	.L67:
 594 006e 00BF     		.align	2
 595              	.L66:
 596 0070 22470040 		.word	1073760034
 597 0074 20470040 		.word	1073760032
 598              		.cfi_endproc
 599              	.LFE5:
 600              		.size	CySpcLoadRowFull, .-CySpcLoadRowFull
 601              		.section	.text.CySpcWriteRow,"ax",%progbits
 602              		.align	2
 603              		.global	CySpcWriteRow
 604              		.thumb
 605              		.thumb_func
 606              		.type	CySpcWriteRow, %function
 607              	CySpcWriteRow:
 608              	.LFB6:
 413:Generated_Source\PSoC5/CySpc.c **** 
 414:Generated_Source\PSoC5/CySpc.c **** 
 415:Generated_Source\PSoC5/CySpc.c **** /*******************************************************************************
 416:Generated_Source\PSoC5/CySpc.c **** * Function Name: CySpcWriteRow
 417:Generated_Source\PSoC5/CySpc.c **** ****************************************************************************//**
 418:Generated_Source\PSoC5/CySpc.c **** *  Erases then programs a row in Flash/EEPROM with data in row latch.
 419:Generated_Source\PSoC5/CySpc.c **** *
 420:Generated_Source\PSoC5/CySpc.c **** *  \param uint8 array:
 421:Generated_Source\PSoC5/CySpc.c **** *   Id of the array.
 422:Generated_Source\PSoC5/CySpc.c **** *
ARM GAS  C:\Users\larco\AppData\Local\Temp\cc9jLpwY.s 			page 20


 423:Generated_Source\PSoC5/CySpc.c **** *  \param uint16 address:
 424:Generated_Source\PSoC5/CySpc.c **** *   flash/eeprom addrress
 425:Generated_Source\PSoC5/CySpc.c **** *
 426:Generated_Source\PSoC5/CySpc.c **** *  \param uint8 tempPolarity:
 427:Generated_Source\PSoC5/CySpc.c **** *   temperature polarity.
 428:Generated_Source\PSoC5/CySpc.c **** *   \param 1: the Temp Magnitude is interpreted as a positive value
 429:Generated_Source\PSoC5/CySpc.c **** *   \param 0: the Temp Magnitude is interpreted as a negative value
 430:Generated_Source\PSoC5/CySpc.c **** *
 431:Generated_Source\PSoC5/CySpc.c **** *  \param uint8 tempMagnitude:
 432:Generated_Source\PSoC5/CySpc.c **** *   temperature magnitude.
 433:Generated_Source\PSoC5/CySpc.c **** *
 434:Generated_Source\PSoC5/CySpc.c **** * \return
 435:Generated_Source\PSoC5/CySpc.c **** *  CYRET_STARTED
 436:Generated_Source\PSoC5/CySpc.c **** *  CYRET_CANCELED
 437:Generated_Source\PSoC5/CySpc.c **** *  CYRET_LOCKED
 438:Generated_Source\PSoC5/CySpc.c **** *
 439:Generated_Source\PSoC5/CySpc.c **** *******************************************************************************/
 440:Generated_Source\PSoC5/CySpc.c **** cystatus CySpcWriteRow(uint8 array, uint16 address, uint8 tempPolarity, uint8 tempMagnitude)\
 441:Generated_Source\PSoC5/CySpc.c **** 
 442:Generated_Source\PSoC5/CySpc.c **** {
 609              		.loc 1 442 0
 610              		.cfi_startproc
 611              		@ args = 0, pretend = 0, frame = 0
 612              		@ frame_needed = 0, uses_anonymous_args = 0
 613              		@ link register save eliminated.
 614              	.LVL56:
 615 0000 F0B4     		push	{r4, r5, r6, r7}
 616              		.cfi_def_cfa_offset 16
 617              		.cfi_offset 4, -16
 618              		.cfi_offset 5, -12
 619              		.cfi_offset 6, -8
 620              		.cfi_offset 7, -4
 443:Generated_Source\PSoC5/CySpc.c ****     cystatus status = CYRET_STARTED;
 444:Generated_Source\PSoC5/CySpc.c **** 
 445:Generated_Source\PSoC5/CySpc.c ****     /* Make sure the SPC is ready to accept command */
 446:Generated_Source\PSoC5/CySpc.c ****     if(CY_SPC_IDLE)
 621              		.loc 1 446 0
 622 0002 0F4D     		ldr	r5, .L73
 623 0004 2C78     		ldrb	r4, [r5]	@ zero_extendqisi2
 624 0006 A607     		lsls	r6, r4, #30
 625 0008 16D5     		bpl	.L70
 447:Generated_Source\PSoC5/CySpc.c ****     {
 448:Generated_Source\PSoC5/CySpc.c ****         CY_SPC_CPU_DATA_REG = CY_SPC_KEY_ONE;
 626              		.loc 1 448 0
 627 000a 0E4C     		ldr	r4, .L73+4
 628 000c B626     		movs	r6, #182
 629 000e 2670     		strb	r6, [r4]
 449:Generated_Source\PSoC5/CySpc.c ****         CY_SPC_CPU_DATA_REG = CY_SPC_KEY_TWO(CY_SPC_CMD_WR_ROW);
 630              		.loc 1 449 0
 631 0010 D827     		movs	r7, #216
 450:Generated_Source\PSoC5/CySpc.c ****         CY_SPC_CPU_DATA_REG = CY_SPC_CMD_WR_ROW;
 632              		.loc 1 450 0
 633 0012 0526     		movs	r6, #5
 449:Generated_Source\PSoC5/CySpc.c ****         CY_SPC_CPU_DATA_REG = CY_SPC_KEY_TWO(CY_SPC_CMD_WR_ROW);
 634              		.loc 1 449 0
 635 0014 2770     		strb	r7, [r4]
 636              		.loc 1 450 0
ARM GAS  C:\Users\larco\AppData\Local\Temp\cc9jLpwY.s 			page 21


 637 0016 2670     		strb	r6, [r4]
 451:Generated_Source\PSoC5/CySpc.c **** 
 452:Generated_Source\PSoC5/CySpc.c ****         /* Make sure the command was accepted */
 453:Generated_Source\PSoC5/CySpc.c ****         if(CY_SPC_BUSY)
 638              		.loc 1 453 0
 639 0018 2D78     		ldrb	r5, [r5]	@ zero_extendqisi2
 640 001a AD07     		lsls	r5, r5, #30
 641 001c 09D4     		bmi	.L71
 454:Generated_Source\PSoC5/CySpc.c ****         {
 455:Generated_Source\PSoC5/CySpc.c ****             CY_SPC_CPU_DATA_REG = array;
 456:Generated_Source\PSoC5/CySpc.c ****             CY_SPC_CPU_DATA_REG = HI8(address);
 642              		.loc 1 456 0
 643 001e 0D0A     		lsrs	r5, r1, #8
 457:Generated_Source\PSoC5/CySpc.c ****             CY_SPC_CPU_DATA_REG = LO8(address);
 644              		.loc 1 457 0
 645 0020 C9B2     		uxtb	r1, r1
 646              	.LVL57:
 455:Generated_Source\PSoC5/CySpc.c ****             CY_SPC_CPU_DATA_REG = HI8(address);
 647              		.loc 1 455 0
 648 0022 2070     		strb	r0, [r4]
 456:Generated_Source\PSoC5/CySpc.c ****             CY_SPC_CPU_DATA_REG = LO8(address);
 649              		.loc 1 456 0
 650 0024 2570     		strb	r5, [r4]
 651              		.loc 1 457 0
 652 0026 2170     		strb	r1, [r4]
 458:Generated_Source\PSoC5/CySpc.c ****             CY_SPC_CPU_DATA_REG = tempPolarity;
 653              		.loc 1 458 0
 654 0028 2270     		strb	r2, [r4]
 459:Generated_Source\PSoC5/CySpc.c ****             CY_SPC_CPU_DATA_REG = tempMagnitude;
 655              		.loc 1 459 0
 656 002a 2370     		strb	r3, [r4]
 443:Generated_Source\PSoC5/CySpc.c **** 
 657              		.loc 1 443 0
 658 002c 0720     		movs	r0, #7
 659              	.LVL58:
 460:Generated_Source\PSoC5/CySpc.c ****         }
 461:Generated_Source\PSoC5/CySpc.c ****         else
 462:Generated_Source\PSoC5/CySpc.c ****         {
 463:Generated_Source\PSoC5/CySpc.c ****             status = CYRET_CANCELED;
 464:Generated_Source\PSoC5/CySpc.c ****         }
 465:Generated_Source\PSoC5/CySpc.c ****     }
 466:Generated_Source\PSoC5/CySpc.c ****     else
 467:Generated_Source\PSoC5/CySpc.c ****     {
 468:Generated_Source\PSoC5/CySpc.c ****         status = CYRET_LOCKED;
 469:Generated_Source\PSoC5/CySpc.c ****     }
 470:Generated_Source\PSoC5/CySpc.c **** 
 471:Generated_Source\PSoC5/CySpc.c ****     return(status);
 472:Generated_Source\PSoC5/CySpc.c **** }
 660              		.loc 1 472 0
 661 002e F0BC     		pop	{r4, r5, r6, r7}
 662              		.cfi_remember_state
 663              		.cfi_restore 7
 664              		.cfi_restore 6
 665              		.cfi_restore 5
 666              		.cfi_restore 4
 667              		.cfi_def_cfa_offset 0
 668 0030 7047     		bx	lr
ARM GAS  C:\Users\larco\AppData\Local\Temp\cc9jLpwY.s 			page 22


 669              	.LVL59:
 670              	.L71:
 671              		.cfi_restore_state
 463:Generated_Source\PSoC5/CySpc.c ****         }
 672              		.loc 1 463 0
 673 0032 0920     		movs	r0, #9
 674              	.LVL60:
 675              		.loc 1 472 0
 676 0034 F0BC     		pop	{r4, r5, r6, r7}
 677              		.cfi_remember_state
 678              		.cfi_restore 4
 679              		.cfi_restore 5
 680              		.cfi_restore 6
 681              		.cfi_restore 7
 682              		.cfi_def_cfa_offset 0
 683 0036 7047     		bx	lr
 684              	.LVL61:
 685              	.L70:
 686              		.cfi_restore_state
 468:Generated_Source\PSoC5/CySpc.c ****     }
 687              		.loc 1 468 0
 688 0038 0420     		movs	r0, #4
 689              	.LVL62:
 690              		.loc 1 472 0
 691 003a F0BC     		pop	{r4, r5, r6, r7}
 692              		.cfi_restore 4
 693              		.cfi_restore 5
 694              		.cfi_restore 6
 695              		.cfi_restore 7
 696              		.cfi_def_cfa_offset 0
 697 003c 7047     		bx	lr
 698              	.L74:
 699 003e 00BF     		.align	2
 700              	.L73:
 701 0040 22470040 		.word	1073760034
 702 0044 20470040 		.word	1073760032
 703              		.cfi_endproc
 704              	.LFE6:
 705              		.size	CySpcWriteRow, .-CySpcWriteRow
 706              		.section	.text.CySpcEraseSector,"ax",%progbits
 707              		.align	2
 708              		.global	CySpcEraseSector
 709              		.thumb
 710              		.thumb_func
 711              		.type	CySpcEraseSector, %function
 712              	CySpcEraseSector:
 713              	.LFB7:
 473:Generated_Source\PSoC5/CySpc.c **** 
 474:Generated_Source\PSoC5/CySpc.c **** 
 475:Generated_Source\PSoC5/CySpc.c **** /*******************************************************************************
 476:Generated_Source\PSoC5/CySpc.c **** * Function Name: CySpcEraseSector
 477:Generated_Source\PSoC5/CySpc.c **** ****************************************************************************//**
 478:Generated_Source\PSoC5/CySpc.c **** *  Erases all data in the addressed sector (block of 64 rows).
 479:Generated_Source\PSoC5/CySpc.c **** *
 480:Generated_Source\PSoC5/CySpc.c **** *  \param uint8 array:
 481:Generated_Source\PSoC5/CySpc.c **** *   Id of the array.
 482:Generated_Source\PSoC5/CySpc.c **** *
ARM GAS  C:\Users\larco\AppData\Local\Temp\cc9jLpwY.s 			page 23


 483:Generated_Source\PSoC5/CySpc.c **** *  \param uint8 sectorNumber:
 484:Generated_Source\PSoC5/CySpc.c **** *   Zero based sector number within Flash/EEPROM array
 485:Generated_Source\PSoC5/CySpc.c **** *
 486:Generated_Source\PSoC5/CySpc.c **** * \return
 487:Generated_Source\PSoC5/CySpc.c **** *  CYRET_STARTED
 488:Generated_Source\PSoC5/CySpc.c **** *  CYRET_CANCELED
 489:Generated_Source\PSoC5/CySpc.c **** *  CYRET_LOCKED
 490:Generated_Source\PSoC5/CySpc.c **** *
 491:Generated_Source\PSoC5/CySpc.c **** *******************************************************************************/
 492:Generated_Source\PSoC5/CySpc.c **** cystatus CySpcEraseSector(uint8 array, uint8 sectorNumber)
 493:Generated_Source\PSoC5/CySpc.c **** {
 714              		.loc 1 493 0
 715              		.cfi_startproc
 716              		@ args = 0, pretend = 0, frame = 0
 717              		@ frame_needed = 0, uses_anonymous_args = 0
 718              		@ link register save eliminated.
 719              	.LVL63:
 494:Generated_Source\PSoC5/CySpc.c ****     cystatus status = CYRET_STARTED;
 495:Generated_Source\PSoC5/CySpc.c **** 
 496:Generated_Source\PSoC5/CySpc.c ****     /* Make sure the SPC is ready to accept command */
 497:Generated_Source\PSoC5/CySpc.c ****     if(CY_SPC_IDLE)
 720              		.loc 1 497 0
 721 0000 0C4A     		ldr	r2, .L80
 722 0002 1378     		ldrb	r3, [r2]	@ zero_extendqisi2
 723 0004 9B07     		lsls	r3, r3, #30
 724 0006 12D5     		bpl	.L77
 493:Generated_Source\PSoC5/CySpc.c ****     cystatus status = CYRET_STARTED;
 725              		.loc 1 493 0
 726 0008 70B4     		push	{r4, r5, r6}
 727              		.cfi_def_cfa_offset 12
 728              		.cfi_offset 4, -12
 729              		.cfi_offset 5, -8
 730              		.cfi_offset 6, -4
 498:Generated_Source\PSoC5/CySpc.c ****     {
 499:Generated_Source\PSoC5/CySpc.c ****         CY_SPC_CPU_DATA_REG = CY_SPC_KEY_ONE;
 731              		.loc 1 499 0
 732 000a 0B4B     		ldr	r3, .L80+4
 733 000c B626     		movs	r6, #182
 500:Generated_Source\PSoC5/CySpc.c ****         CY_SPC_CPU_DATA_REG = CY_SPC_KEY_TWO(CY_SPC_CMD_ER_SECTOR);
 734              		.loc 1 500 0
 735 000e DB25     		movs	r5, #219
 501:Generated_Source\PSoC5/CySpc.c ****         CY_SPC_CPU_DATA_REG = CY_SPC_CMD_ER_SECTOR;
 736              		.loc 1 501 0
 737 0010 0824     		movs	r4, #8
 499:Generated_Source\PSoC5/CySpc.c ****         CY_SPC_CPU_DATA_REG = CY_SPC_KEY_TWO(CY_SPC_CMD_ER_SECTOR);
 738              		.loc 1 499 0
 739 0012 1E70     		strb	r6, [r3]
 500:Generated_Source\PSoC5/CySpc.c ****         CY_SPC_CPU_DATA_REG = CY_SPC_KEY_TWO(CY_SPC_CMD_ER_SECTOR);
 740              		.loc 1 500 0
 741 0014 1D70     		strb	r5, [r3]
 742              		.loc 1 501 0
 743 0016 1C70     		strb	r4, [r3]
 502:Generated_Source\PSoC5/CySpc.c **** 
 503:Generated_Source\PSoC5/CySpc.c ****         /* Make sure the command was accepted */
 504:Generated_Source\PSoC5/CySpc.c ****         if(CY_SPC_BUSY)
 744              		.loc 1 504 0
 745 0018 1278     		ldrb	r2, [r2]	@ zero_extendqisi2
ARM GAS  C:\Users\larco\AppData\Local\Temp\cc9jLpwY.s 			page 24


 746 001a 9207     		lsls	r2, r2, #30
 747 001c 04D4     		bmi	.L78
 505:Generated_Source\PSoC5/CySpc.c ****         {
 506:Generated_Source\PSoC5/CySpc.c ****             CY_SPC_CPU_DATA_REG = array;
 748              		.loc 1 506 0
 749 001e 1870     		strb	r0, [r3]
 507:Generated_Source\PSoC5/CySpc.c ****             CY_SPC_CPU_DATA_REG = sectorNumber;
 750              		.loc 1 507 0
 751 0020 1970     		strb	r1, [r3]
 494:Generated_Source\PSoC5/CySpc.c **** 
 752              		.loc 1 494 0
 753 0022 0720     		movs	r0, #7
 754              	.LVL64:
 508:Generated_Source\PSoC5/CySpc.c ****         }
 509:Generated_Source\PSoC5/CySpc.c ****         else
 510:Generated_Source\PSoC5/CySpc.c ****         {
 511:Generated_Source\PSoC5/CySpc.c ****             status = CYRET_CANCELED;
 512:Generated_Source\PSoC5/CySpc.c ****         }
 513:Generated_Source\PSoC5/CySpc.c ****     }
 514:Generated_Source\PSoC5/CySpc.c ****     else
 515:Generated_Source\PSoC5/CySpc.c ****     {
 516:Generated_Source\PSoC5/CySpc.c ****         status = CYRET_LOCKED;
 517:Generated_Source\PSoC5/CySpc.c ****     }
 518:Generated_Source\PSoC5/CySpc.c **** 
 519:Generated_Source\PSoC5/CySpc.c ****     return(status);
 520:Generated_Source\PSoC5/CySpc.c **** }
 755              		.loc 1 520 0
 756 0024 70BC     		pop	{r4, r5, r6}
 757              		.cfi_remember_state
 758              		.cfi_restore 6
 759              		.cfi_restore 5
 760              		.cfi_restore 4
 761              		.cfi_def_cfa_offset 0
 762 0026 7047     		bx	lr
 763              	.LVL65:
 764              	.L78:
 765              		.cfi_restore_state
 511:Generated_Source\PSoC5/CySpc.c ****         }
 766              		.loc 1 511 0
 767 0028 0920     		movs	r0, #9
 768              	.LVL66:
 769              		.loc 1 520 0
 770 002a 70BC     		pop	{r4, r5, r6}
 771              		.cfi_restore 4
 772              		.cfi_restore 5
 773              		.cfi_restore 6
 774              		.cfi_def_cfa_offset 0
 775 002c 7047     		bx	lr
 776              	.LVL67:
 777              	.L77:
 516:Generated_Source\PSoC5/CySpc.c ****     }
 778              		.loc 1 516 0
 779 002e 0420     		movs	r0, #4
 780              	.LVL68:
 781              		.loc 1 520 0
 782 0030 7047     		bx	lr
 783              	.L81:
ARM GAS  C:\Users\larco\AppData\Local\Temp\cc9jLpwY.s 			page 25


 784 0032 00BF     		.align	2
 785              	.L80:
 786 0034 22470040 		.word	1073760034
 787 0038 20470040 		.word	1073760032
 788              		.cfi_endproc
 789              	.LFE7:
 790              		.size	CySpcEraseSector, .-CySpcEraseSector
 791              		.section	.text.CySpcEraseRow,"ax",%progbits
 792              		.align	2
 793              		.global	CySpcEraseRow
 794              		.thumb
 795              		.thumb_func
 796              		.type	CySpcEraseRow, %function
 797              	CySpcEraseRow:
 798              	.LFB8:
 521:Generated_Source\PSoC5/CySpc.c **** 
 522:Generated_Source\PSoC5/CySpc.c **** 
 523:Generated_Source\PSoC5/CySpc.c **** /*******************************************************************************
 524:Generated_Source\PSoC5/CySpc.c **** * Function Name: CySpcEraseRow
 525:Generated_Source\PSoC5/CySpc.c **** ****************************************************************************//**
 526:Generated_Source\PSoC5/CySpc.c **** *  Erases a row in Flash.
 527:Generated_Source\PSoC5/CySpc.c **** *
 528:Generated_Source\PSoC5/CySpc.c **** *  \param uint8 array:
 529:Generated_Source\PSoC5/CySpc.c **** *   Id of the array.
 530:Generated_Source\PSoC5/CySpc.c **** *
 531:Generated_Source\PSoC5/CySpc.c **** *  \param uint16 address:
 532:Generated_Source\PSoC5/CySpc.c **** *   Flash address
 533:Generated_Source\PSoC5/CySpc.c **** *
 534:Generated_Source\PSoC5/CySpc.c **** *  \param uint8 tempPolarity:
 535:Generated_Source\PSoC5/CySpc.c **** *   temperature polarity.
 536:Generated_Source\PSoC5/CySpc.c **** *   \param 1: the Temp Magnitude is interpreted as a positive value
 537:Generated_Source\PSoC5/CySpc.c **** *   \param 0: the Temp Magnitude is interpreted as a negative value
 538:Generated_Source\PSoC5/CySpc.c **** *
 539:Generated_Source\PSoC5/CySpc.c **** *  \param uint8 tempMagnitude:
 540:Generated_Source\PSoC5/CySpc.c **** *   temperature magnitude.
 541:Generated_Source\PSoC5/CySpc.c **** *
 542:Generated_Source\PSoC5/CySpc.c **** * \return
 543:Generated_Source\PSoC5/CySpc.c **** *  CYRET_STARTED
 544:Generated_Source\PSoC5/CySpc.c **** *  CYRET_CANCELED
 545:Generated_Source\PSoC5/CySpc.c **** *  CYRET_LOCKED
 546:Generated_Source\PSoC5/CySpc.c **** *
 547:Generated_Source\PSoC5/CySpc.c **** *******************************************************************************/
 548:Generated_Source\PSoC5/CySpc.c **** cystatus CySpcEraseRow(uint8 array, uint16 address, uint8 tempPolarity, uint8 tempMagnitude)\
 549:Generated_Source\PSoC5/CySpc.c **** 
 550:Generated_Source\PSoC5/CySpc.c **** {
 799              		.loc 1 550 0
 800              		.cfi_startproc
 801              		@ args = 0, pretend = 0, frame = 0
 802              		@ frame_needed = 0, uses_anonymous_args = 0
 803              		@ link register save eliminated.
 804              	.LVL69:
 805 0000 F0B4     		push	{r4, r5, r6, r7}
 806              		.cfi_def_cfa_offset 16
 807              		.cfi_offset 4, -16
 808              		.cfi_offset 5, -12
 809              		.cfi_offset 6, -8
 810              		.cfi_offset 7, -4
ARM GAS  C:\Users\larco\AppData\Local\Temp\cc9jLpwY.s 			page 26


 551:Generated_Source\PSoC5/CySpc.c ****     cystatus status = CYRET_STARTED;
 552:Generated_Source\PSoC5/CySpc.c **** 
 553:Generated_Source\PSoC5/CySpc.c ****     /* Make sure the SPC is ready to accept command */
 554:Generated_Source\PSoC5/CySpc.c ****     if(CY_SPC_IDLE)
 811              		.loc 1 554 0
 812 0002 0F4D     		ldr	r5, .L87
 813 0004 2C78     		ldrb	r4, [r5]	@ zero_extendqisi2
 814 0006 A607     		lsls	r6, r4, #30
 815 0008 16D5     		bpl	.L84
 555:Generated_Source\PSoC5/CySpc.c ****     {
 556:Generated_Source\PSoC5/CySpc.c ****         CY_SPC_CPU_DATA_REG = CY_SPC_KEY_ONE;
 816              		.loc 1 556 0
 817 000a 0E4C     		ldr	r4, .L87+4
 818 000c B626     		movs	r6, #182
 819 000e 2670     		strb	r6, [r4]
 557:Generated_Source\PSoC5/CySpc.c ****         CY_SPC_CPU_DATA_REG = CY_SPC_KEY_TWO(CY_SPC_CMD_ER_ROW);
 820              		.loc 1 557 0
 821 0010 E627     		movs	r7, #230
 558:Generated_Source\PSoC5/CySpc.c ****         CY_SPC_CPU_DATA_REG = CY_SPC_CMD_ER_ROW;
 822              		.loc 1 558 0
 823 0012 1326     		movs	r6, #19
 557:Generated_Source\PSoC5/CySpc.c ****         CY_SPC_CPU_DATA_REG = CY_SPC_KEY_TWO(CY_SPC_CMD_ER_ROW);
 824              		.loc 1 557 0
 825 0014 2770     		strb	r7, [r4]
 826              		.loc 1 558 0
 827 0016 2670     		strb	r6, [r4]
 559:Generated_Source\PSoC5/CySpc.c **** 
 560:Generated_Source\PSoC5/CySpc.c ****         /* Make sure the command was accepted */
 561:Generated_Source\PSoC5/CySpc.c ****         if(CY_SPC_BUSY)
 828              		.loc 1 561 0
 829 0018 2D78     		ldrb	r5, [r5]	@ zero_extendqisi2
 830 001a AD07     		lsls	r5, r5, #30
 831 001c 09D4     		bmi	.L85
 562:Generated_Source\PSoC5/CySpc.c ****         {
 563:Generated_Source\PSoC5/CySpc.c ****             CY_SPC_CPU_DATA_REG = array;
 564:Generated_Source\PSoC5/CySpc.c ****             CY_SPC_CPU_DATA_REG = HI8(address);
 832              		.loc 1 564 0
 833 001e 0D0A     		lsrs	r5, r1, #8
 565:Generated_Source\PSoC5/CySpc.c ****             CY_SPC_CPU_DATA_REG = LO8(address);
 834              		.loc 1 565 0
 835 0020 C9B2     		uxtb	r1, r1
 836              	.LVL70:
 563:Generated_Source\PSoC5/CySpc.c ****             CY_SPC_CPU_DATA_REG = HI8(address);
 837              		.loc 1 563 0
 838 0022 2070     		strb	r0, [r4]
 564:Generated_Source\PSoC5/CySpc.c ****             CY_SPC_CPU_DATA_REG = LO8(address);
 839              		.loc 1 564 0
 840 0024 2570     		strb	r5, [r4]
 841              		.loc 1 565 0
 842 0026 2170     		strb	r1, [r4]
 566:Generated_Source\PSoC5/CySpc.c ****             CY_SPC_CPU_DATA_REG = tempPolarity;
 843              		.loc 1 566 0
 844 0028 2270     		strb	r2, [r4]
 567:Generated_Source\PSoC5/CySpc.c ****             CY_SPC_CPU_DATA_REG = tempMagnitude;
 845              		.loc 1 567 0
 846 002a 2370     		strb	r3, [r4]
 551:Generated_Source\PSoC5/CySpc.c **** 
ARM GAS  C:\Users\larco\AppData\Local\Temp\cc9jLpwY.s 			page 27


 847              		.loc 1 551 0
 848 002c 0720     		movs	r0, #7
 849              	.LVL71:
 568:Generated_Source\PSoC5/CySpc.c ****         }
 569:Generated_Source\PSoC5/CySpc.c ****         else
 570:Generated_Source\PSoC5/CySpc.c ****         {
 571:Generated_Source\PSoC5/CySpc.c ****             status = CYRET_CANCELED;
 572:Generated_Source\PSoC5/CySpc.c ****         }
 573:Generated_Source\PSoC5/CySpc.c ****     }
 574:Generated_Source\PSoC5/CySpc.c ****     else
 575:Generated_Source\PSoC5/CySpc.c ****     {
 576:Generated_Source\PSoC5/CySpc.c ****         status = CYRET_LOCKED;
 577:Generated_Source\PSoC5/CySpc.c ****     }
 578:Generated_Source\PSoC5/CySpc.c **** 
 579:Generated_Source\PSoC5/CySpc.c ****     return(status);
 580:Generated_Source\PSoC5/CySpc.c **** }
 850              		.loc 1 580 0
 851 002e F0BC     		pop	{r4, r5, r6, r7}
 852              		.cfi_remember_state
 853              		.cfi_restore 7
 854              		.cfi_restore 6
 855              		.cfi_restore 5
 856              		.cfi_restore 4
 857              		.cfi_def_cfa_offset 0
 858 0030 7047     		bx	lr
 859              	.LVL72:
 860              	.L85:
 861              		.cfi_restore_state
 571:Generated_Source\PSoC5/CySpc.c ****         }
 862              		.loc 1 571 0
 863 0032 0920     		movs	r0, #9
 864              	.LVL73:
 865              		.loc 1 580 0
 866 0034 F0BC     		pop	{r4, r5, r6, r7}
 867              		.cfi_remember_state
 868              		.cfi_restore 4
 869              		.cfi_restore 5
 870              		.cfi_restore 6
 871              		.cfi_restore 7
 872              		.cfi_def_cfa_offset 0
 873 0036 7047     		bx	lr
 874              	.LVL74:
 875              	.L84:
 876              		.cfi_restore_state
 576:Generated_Source\PSoC5/CySpc.c ****     }
 877              		.loc 1 576 0
 878 0038 0420     		movs	r0, #4
 879              	.LVL75:
 880              		.loc 1 580 0
 881 003a F0BC     		pop	{r4, r5, r6, r7}
 882              		.cfi_restore 4
 883              		.cfi_restore 5
 884              		.cfi_restore 6
 885              		.cfi_restore 7
 886              		.cfi_def_cfa_offset 0
 887 003c 7047     		bx	lr
 888              	.L88:
ARM GAS  C:\Users\larco\AppData\Local\Temp\cc9jLpwY.s 			page 28


 889 003e 00BF     		.align	2
 890              	.L87:
 891 0040 22470040 		.word	1073760034
 892 0044 20470040 		.word	1073760032
 893              		.cfi_endproc
 894              	.LFE8:
 895              		.size	CySpcEraseRow, .-CySpcEraseRow
 896              		.section	.text.CySpcGetTemp,"ax",%progbits
 897              		.align	2
 898              		.global	CySpcGetTemp
 899              		.thumb
 900              		.thumb_func
 901              		.type	CySpcGetTemp, %function
 902              	CySpcGetTemp:
 903              	.LFB9:
 581:Generated_Source\PSoC5/CySpc.c **** 
 582:Generated_Source\PSoC5/CySpc.c **** 
 583:Generated_Source\PSoC5/CySpc.c **** /*******************************************************************************
 584:Generated_Source\PSoC5/CySpc.c **** * Function Name: CySpcGetTemp
 585:Generated_Source\PSoC5/CySpc.c **** ****************************************************************************//**
 586:Generated_Source\PSoC5/CySpc.c **** *  Returns the internal die temperature
 587:Generated_Source\PSoC5/CySpc.c **** *
 588:Generated_Source\PSoC5/CySpc.c **** *  \param uint8 numSamples:
 589:Generated_Source\PSoC5/CySpc.c **** *   Number of samples. Valid values are 1-5, resulting in 2 - 32 samples
 590:Generated_Source\PSoC5/CySpc.c **** *   respectively.
 591:Generated_Source\PSoC5/CySpc.c **** *
 592:Generated_Source\PSoC5/CySpc.c **** * \param uint16 timerPeriod:
 593:Generated_Source\PSoC5/CySpc.c **** *   Number of ADC ACLK cycles. A valid 14 bit value is accepted, higher 2 bits
 594:Generated_Source\PSoC5/CySpc.c **** *   of 16 bit values are ignored.
 595:Generated_Source\PSoC5/CySpc.c **** *
 596:Generated_Source\PSoC5/CySpc.c **** * \param uint8 clkDivSelect:
 597:Generated_Source\PSoC5/CySpc.c **** *   ADC ACLK clock divide value. Valid values are 2 - 225.
 598:Generated_Source\PSoC5/CySpc.c **** *
 599:Generated_Source\PSoC5/CySpc.c **** * \return
 600:Generated_Source\PSoC5/CySpc.c **** *  CYRET_STARTED
 601:Generated_Source\PSoC5/CySpc.c **** *  CYRET_CANCELED
 602:Generated_Source\PSoC5/CySpc.c **** *  CYRET_LOCKED
 603:Generated_Source\PSoC5/CySpc.c **** *
 604:Generated_Source\PSoC5/CySpc.c **** *******************************************************************************/
 605:Generated_Source\PSoC5/CySpc.c **** cystatus CySpcGetTemp(uint8 numSamples)
 606:Generated_Source\PSoC5/CySpc.c **** {
 904              		.loc 1 606 0
 905              		.cfi_startproc
 906              		@ args = 0, pretend = 0, frame = 0
 907              		@ frame_needed = 0, uses_anonymous_args = 0
 908              		@ link register save eliminated.
 909              	.LVL76:
 607:Generated_Source\PSoC5/CySpc.c ****     cystatus status = CYRET_STARTED;
 608:Generated_Source\PSoC5/CySpc.c **** 
 609:Generated_Source\PSoC5/CySpc.c ****     /* Make sure the SPC is ready to accept command */
 610:Generated_Source\PSoC5/CySpc.c ****     if(CY_SPC_IDLE)
 910              		.loc 1 610 0
 911 0000 0B4A     		ldr	r2, .L94
 912 0002 1378     		ldrb	r3, [r2]	@ zero_extendqisi2
 913 0004 9907     		lsls	r1, r3, #30
 914 0006 11D5     		bpl	.L91
 606:Generated_Source\PSoC5/CySpc.c ****     cystatus status = CYRET_STARTED;
ARM GAS  C:\Users\larco\AppData\Local\Temp\cc9jLpwY.s 			page 29


 915              		.loc 1 606 0
 916 0008 30B4     		push	{r4, r5}
 917              		.cfi_def_cfa_offset 8
 918              		.cfi_offset 4, -8
 919              		.cfi_offset 5, -4
 611:Generated_Source\PSoC5/CySpc.c ****     {
 612:Generated_Source\PSoC5/CySpc.c ****         CY_SPC_CPU_DATA_REG = CY_SPC_KEY_ONE;
 920              		.loc 1 612 0
 921 000a 0A4B     		ldr	r3, .L94+4
 922 000c B625     		movs	r5, #182
 613:Generated_Source\PSoC5/CySpc.c ****         CY_SPC_CPU_DATA_REG = CY_SPC_KEY_TWO(CY_SPC_CMD_GET_TEMP);
 923              		.loc 1 613 0
 924 000e E124     		movs	r4, #225
 614:Generated_Source\PSoC5/CySpc.c ****         CY_SPC_CPU_DATA_REG = CY_SPC_CMD_GET_TEMP;
 925              		.loc 1 614 0
 926 0010 0E21     		movs	r1, #14
 612:Generated_Source\PSoC5/CySpc.c ****         CY_SPC_CPU_DATA_REG = CY_SPC_KEY_TWO(CY_SPC_CMD_GET_TEMP);
 927              		.loc 1 612 0
 928 0012 1D70     		strb	r5, [r3]
 613:Generated_Source\PSoC5/CySpc.c ****         CY_SPC_CPU_DATA_REG = CY_SPC_KEY_TWO(CY_SPC_CMD_GET_TEMP);
 929              		.loc 1 613 0
 930 0014 1C70     		strb	r4, [r3]
 931              		.loc 1 614 0
 932 0016 1970     		strb	r1, [r3]
 615:Generated_Source\PSoC5/CySpc.c **** 
 616:Generated_Source\PSoC5/CySpc.c ****         /* Make sure the command was accepted */
 617:Generated_Source\PSoC5/CySpc.c ****         if(CY_SPC_BUSY)
 933              		.loc 1 617 0
 934 0018 1278     		ldrb	r2, [r2]	@ zero_extendqisi2
 935 001a 9207     		lsls	r2, r2, #30
 936 001c 03D4     		bmi	.L92
 618:Generated_Source\PSoC5/CySpc.c ****         {
 619:Generated_Source\PSoC5/CySpc.c ****             CY_SPC_CPU_DATA_REG = numSamples;
 937              		.loc 1 619 0
 938 001e 1870     		strb	r0, [r3]
 620:Generated_Source\PSoC5/CySpc.c ****         }
 621:Generated_Source\PSoC5/CySpc.c ****         else
 622:Generated_Source\PSoC5/CySpc.c ****         {
 623:Generated_Source\PSoC5/CySpc.c ****             status = CYRET_CANCELED;
 624:Generated_Source\PSoC5/CySpc.c ****         }
 625:Generated_Source\PSoC5/CySpc.c ****     }
 626:Generated_Source\PSoC5/CySpc.c ****     else
 627:Generated_Source\PSoC5/CySpc.c ****     {
 628:Generated_Source\PSoC5/CySpc.c ****         status = CYRET_LOCKED;
 629:Generated_Source\PSoC5/CySpc.c ****     }
 630:Generated_Source\PSoC5/CySpc.c **** 
 631:Generated_Source\PSoC5/CySpc.c ****     return(status);
 632:Generated_Source\PSoC5/CySpc.c **** }
 939              		.loc 1 632 0
 940 0020 30BC     		pop	{r4, r5}
 941              		.cfi_remember_state
 942              		.cfi_restore 5
 943              		.cfi_restore 4
 944              		.cfi_def_cfa_offset 0
 607:Generated_Source\PSoC5/CySpc.c **** 
 945              		.loc 1 607 0
 946 0022 0720     		movs	r0, #7
ARM GAS  C:\Users\larco\AppData\Local\Temp\cc9jLpwY.s 			page 30


 947              	.LVL77:
 948              		.loc 1 632 0
 949 0024 7047     		bx	lr
 950              	.LVL78:
 951              	.L92:
 952              		.cfi_restore_state
 623:Generated_Source\PSoC5/CySpc.c ****         }
 953              		.loc 1 623 0
 954 0026 0920     		movs	r0, #9
 955              	.LVL79:
 956              		.loc 1 632 0
 957 0028 30BC     		pop	{r4, r5}
 958              		.cfi_restore 4
 959              		.cfi_restore 5
 960              		.cfi_def_cfa_offset 0
 961 002a 7047     		bx	lr
 962              	.LVL80:
 963              	.L91:
 628:Generated_Source\PSoC5/CySpc.c ****     }
 964              		.loc 1 628 0
 965 002c 0420     		movs	r0, #4
 966              	.LVL81:
 967              		.loc 1 632 0
 968 002e 7047     		bx	lr
 969              	.L95:
 970              		.align	2
 971              	.L94:
 972 0030 22470040 		.word	1073760034
 973 0034 20470040 		.word	1073760032
 974              		.cfi_endproc
 975              	.LFE9:
 976              		.size	CySpcGetTemp, .-CySpcGetTemp
 977              		.section	.text.CySpcLock,"ax",%progbits
 978              		.align	2
 979              		.global	CySpcLock
 980              		.thumb
 981              		.thumb_func
 982              		.type	CySpcLock, %function
 983              	CySpcLock:
 984              	.LFB10:
 633:Generated_Source\PSoC5/CySpc.c **** 
 634:Generated_Source\PSoC5/CySpc.c **** 
 635:Generated_Source\PSoC5/CySpc.c **** /*******************************************************************************
 636:Generated_Source\PSoC5/CySpc.c **** * Function Name: CySpcLock
 637:Generated_Source\PSoC5/CySpc.c **** ****************************************************************************//**
 638:Generated_Source\PSoC5/CySpc.c **** *  Locks the SPC so it can not be used by someone else:
 639:Generated_Source\PSoC5/CySpc.c **** *   - Saves wait-pipeline enable state and enable pipeline (PSoC5)
 640:Generated_Source\PSoC5/CySpc.c **** *
 641:Generated_Source\PSoC5/CySpc.c **** * \return
 642:Generated_Source\PSoC5/CySpc.c **** *  CYRET_SUCCESS - if the resource was free.
 643:Generated_Source\PSoC5/CySpc.c **** *  CYRET_LOCKED  - if the SPC is in use.
 644:Generated_Source\PSoC5/CySpc.c **** *
 645:Generated_Source\PSoC5/CySpc.c **** *******************************************************************************/
 646:Generated_Source\PSoC5/CySpc.c **** cystatus CySpcLock(void)
 647:Generated_Source\PSoC5/CySpc.c **** {
 985              		.loc 1 647 0
 986              		.cfi_startproc
ARM GAS  C:\Users\larco\AppData\Local\Temp\cc9jLpwY.s 			page 31


 987              		@ args = 0, pretend = 0, frame = 0
 988              		@ frame_needed = 0, uses_anonymous_args = 0
 989              	.LVL82:
 990 0000 38B5     		push	{r3, r4, r5, lr}
 991              		.cfi_def_cfa_offset 16
 992              		.cfi_offset 3, -16
 993              		.cfi_offset 4, -12
 994              		.cfi_offset 5, -8
 995              		.cfi_offset 14, -4
 648:Generated_Source\PSoC5/CySpc.c ****     cystatus status = CYRET_LOCKED;
 649:Generated_Source\PSoC5/CySpc.c ****     uint8 interruptState;
 650:Generated_Source\PSoC5/CySpc.c **** 
 651:Generated_Source\PSoC5/CySpc.c ****     /* Enter critical section */
 652:Generated_Source\PSoC5/CySpc.c ****     interruptState = CyEnterCriticalSection();
 996              		.loc 1 652 0
 997 0002 FFF7FEFF 		bl	CyEnterCriticalSection
 998              	.LVL83:
 653:Generated_Source\PSoC5/CySpc.c **** 
 654:Generated_Source\PSoC5/CySpc.c ****     if(CY_SPC_UNLOCKED == SpcLockState)
 999              		.loc 1 654 0
 1000 0006 0D4A     		ldr	r2, .L102
 1001 0008 1378     		ldrb	r3, [r2]	@ zero_extendqisi2
 1002 000a 23B1     		cbz	r3, .L101
 648:Generated_Source\PSoC5/CySpc.c ****     cystatus status = CYRET_LOCKED;
 1003              		.loc 1 648 0
 1004 000c 0424     		movs	r4, #4
 1005              	.LVL84:
 1006              	.L97:
 655:Generated_Source\PSoC5/CySpc.c ****     {
 656:Generated_Source\PSoC5/CySpc.c ****         SpcLockState = CY_SPC_LOCKED;
 657:Generated_Source\PSoC5/CySpc.c ****         status = CYRET_SUCCESS;
 658:Generated_Source\PSoC5/CySpc.c **** 
 659:Generated_Source\PSoC5/CySpc.c ****         #if(CY_PSOC5)
 660:Generated_Source\PSoC5/CySpc.c **** 
 661:Generated_Source\PSoC5/CySpc.c ****             if(0u != (CY_SPC_CPU_WAITPIPE_REG & CY_SPC_CPU_WAITPIPE_BYPASS))
 662:Generated_Source\PSoC5/CySpc.c ****             {
 663:Generated_Source\PSoC5/CySpc.c ****                 /* Enable pipeline registers */
 664:Generated_Source\PSoC5/CySpc.c ****                 CY_SPC_CPU_WAITPIPE_REG &= ((uint32)(~CY_SPC_CPU_WAITPIPE_BYPASS));
 665:Generated_Source\PSoC5/CySpc.c **** 
 666:Generated_Source\PSoC5/CySpc.c ****                 /* At least 2 NOP instructions are recommended */
 667:Generated_Source\PSoC5/CySpc.c ****                 CY_NOP;
 668:Generated_Source\PSoC5/CySpc.c ****                 CY_NOP;
 669:Generated_Source\PSoC5/CySpc.c ****                 CY_NOP;
 670:Generated_Source\PSoC5/CySpc.c **** 
 671:Generated_Source\PSoC5/CySpc.c ****                 spcWaitPipeBypass = CY_SPC_CPU_WAITPIPE_BYPASS;
 672:Generated_Source\PSoC5/CySpc.c ****             }
 673:Generated_Source\PSoC5/CySpc.c **** 
 674:Generated_Source\PSoC5/CySpc.c ****         #endif  /* (CY_PSOC5) */
 675:Generated_Source\PSoC5/CySpc.c ****     }
 676:Generated_Source\PSoC5/CySpc.c **** 
 677:Generated_Source\PSoC5/CySpc.c ****     /* Exit critical section */
 678:Generated_Source\PSoC5/CySpc.c ****     CyExitCriticalSection(interruptState);
 1007              		.loc 1 678 0
 1008 000e FFF7FEFF 		bl	CyExitCriticalSection
 1009              	.LVL85:
 679:Generated_Source\PSoC5/CySpc.c **** 
 680:Generated_Source\PSoC5/CySpc.c ****     return(status);
ARM GAS  C:\Users\larco\AppData\Local\Temp\cc9jLpwY.s 			page 32


 681:Generated_Source\PSoC5/CySpc.c **** }
 1010              		.loc 1 681 0
 1011 0012 2046     		mov	r0, r4
 1012 0014 38BD     		pop	{r3, r4, r5, pc}
 1013              	.LVL86:
 1014              	.L101:
 656:Generated_Source\PSoC5/CySpc.c ****         status = CYRET_SUCCESS;
 1015              		.loc 1 656 0
 1016 0016 0125     		movs	r5, #1
 661:Generated_Source\PSoC5/CySpc.c ****             {
 1017              		.loc 1 661 0
 1018 0018 0949     		ldr	r1, .L102+4
 656:Generated_Source\PSoC5/CySpc.c ****         status = CYRET_SUCCESS;
 1019              		.loc 1 656 0
 1020 001a 1570     		strb	r5, [r2]
 1021              	.LVL87:
 661:Generated_Source\PSoC5/CySpc.c ****             {
 1022              		.loc 1 661 0
 1023 001c 0C68     		ldr	r4, [r1]
 1024 001e 2C40     		ands	r4, r4, r5
 1025 0020 F5D0     		beq	.L97
 664:Generated_Source\PSoC5/CySpc.c **** 
 1026              		.loc 1 664 0
 1027 0022 0C68     		ldr	r4, [r1]
 1028 0024 24F00104 		bic	r4, r4, #1
 1029 0028 0C60     		str	r4, [r1]
 667:Generated_Source\PSoC5/CySpc.c ****                 CY_NOP;
 1030              		.loc 1 667 0
 1031              		.syntax unified
 1032              	@ 667 "Generated_Source\PSoC5\CySpc.c" 1
 1033 002a 00BF     		NOP
 1034              	
 1035              	@ 0 "" 2
 668:Generated_Source\PSoC5/CySpc.c ****                 CY_NOP;
 1036              		.loc 1 668 0
 1037              	@ 668 "Generated_Source\PSoC5\CySpc.c" 1
 1038 002c 00BF     		NOP
 1039              	
 1040              	@ 0 "" 2
 669:Generated_Source\PSoC5/CySpc.c **** 
 1041              		.loc 1 669 0
 1042              	@ 669 "Generated_Source\PSoC5\CySpc.c" 1
 1043 002e 00BF     		NOP
 1044              	
 1045              	@ 0 "" 2
 657:Generated_Source\PSoC5/CySpc.c **** 
 1046              		.loc 1 657 0
 1047              		.thumb
 1048              		.syntax unified
 1049 0030 1C46     		mov	r4, r3
 1050              	.LVL88:
 671:Generated_Source\PSoC5/CySpc.c ****             }
 1051              		.loc 1 671 0
 1052 0032 5560     		str	r5, [r2, #4]
 678:Generated_Source\PSoC5/CySpc.c **** 
 1053              		.loc 1 678 0
 1054 0034 FFF7FEFF 		bl	CyExitCriticalSection
ARM GAS  C:\Users\larco\AppData\Local\Temp\cc9jLpwY.s 			page 33


 1055              	.LVL89:
 1056              		.loc 1 681 0
 1057 0038 2046     		mov	r0, r4
 1058 003a 38BD     		pop	{r3, r4, r5, pc}
 1059              	.LVL90:
 1060              	.L103:
 1061              		.align	2
 1062              	.L102:
 1063 003c 00000000 		.word	.LANCHOR0
 1064 0040 04000840 		.word	1074266116
 1065              		.cfi_endproc
 1066              	.LFE10:
 1067              		.size	CySpcLock, .-CySpcLock
 1068              		.section	.text.CySpcUnlock,"ax",%progbits
 1069              		.align	2
 1070              		.global	CySpcUnlock
 1071              		.thumb
 1072              		.thumb_func
 1073              		.type	CySpcUnlock, %function
 1074              	CySpcUnlock:
 1075              	.LFB11:
 682:Generated_Source\PSoC5/CySpc.c **** 
 683:Generated_Source\PSoC5/CySpc.c **** 
 684:Generated_Source\PSoC5/CySpc.c **** /*******************************************************************************
 685:Generated_Source\PSoC5/CySpc.c **** * Function Name: CySpcUnlock
 686:Generated_Source\PSoC5/CySpc.c **** ****************************************************************************//**
 687:Generated_Source\PSoC5/CySpc.c **** *  Unlocks the SPC so it can be used by someone else:
 688:Generated_Source\PSoC5/CySpc.c **** *   - Restores wait-pipeline enable state (PSoC5)
 689:Generated_Source\PSoC5/CySpc.c **** *
 690:Generated_Source\PSoC5/CySpc.c **** *******************************************************************************/
 691:Generated_Source\PSoC5/CySpc.c **** void CySpcUnlock(void)
 692:Generated_Source\PSoC5/CySpc.c **** {
 1076              		.loc 1 692 0
 1077              		.cfi_startproc
 1078              		@ args = 0, pretend = 0, frame = 0
 1079              		@ frame_needed = 0, uses_anonymous_args = 0
 1080 0000 10B5     		push	{r4, lr}
 1081              		.cfi_def_cfa_offset 8
 1082              		.cfi_offset 4, -8
 1083              		.cfi_offset 14, -4
 693:Generated_Source\PSoC5/CySpc.c ****     uint8 interruptState;
 694:Generated_Source\PSoC5/CySpc.c **** 
 695:Generated_Source\PSoC5/CySpc.c ****     /* Enter critical section */
 696:Generated_Source\PSoC5/CySpc.c ****     interruptState = CyEnterCriticalSection();
 1084              		.loc 1 696 0
 1085 0002 FFF7FEFF 		bl	CyEnterCriticalSection
 1086              	.LVL91:
 697:Generated_Source\PSoC5/CySpc.c **** 
 698:Generated_Source\PSoC5/CySpc.c ****     /* Release the SPC object */
 699:Generated_Source\PSoC5/CySpc.c ****     SpcLockState = CY_SPC_UNLOCKED;
 1087              		.loc 1 699 0
 1088 0006 094B     		ldr	r3, .L107
 1089 0008 0022     		movs	r2, #0
 700:Generated_Source\PSoC5/CySpc.c **** 
 701:Generated_Source\PSoC5/CySpc.c ****     #if(CY_PSOC5)
 702:Generated_Source\PSoC5/CySpc.c **** 
 703:Generated_Source\PSoC5/CySpc.c ****         if(CY_SPC_CPU_WAITPIPE_BYPASS == spcWaitPipeBypass)
ARM GAS  C:\Users\larco\AppData\Local\Temp\cc9jLpwY.s 			page 34


 1090              		.loc 1 703 0
 1091 000a 5968     		ldr	r1, [r3, #4]
 699:Generated_Source\PSoC5/CySpc.c **** 
 1092              		.loc 1 699 0
 1093 000c 1A70     		strb	r2, [r3]
 1094              		.loc 1 703 0
 1095 000e 0129     		cmp	r1, #1
 1096 0010 08D1     		bne	.L105
 704:Generated_Source\PSoC5/CySpc.c ****         {
 705:Generated_Source\PSoC5/CySpc.c ****             /* Force to bypass pipeline registers */
 706:Generated_Source\PSoC5/CySpc.c ****             CY_SPC_CPU_WAITPIPE_REG |= CY_SPC_CPU_WAITPIPE_BYPASS;
 1097              		.loc 1 706 0
 1098 0012 074C     		ldr	r4, .L107+4
 1099 0014 2168     		ldr	r1, [r4]
 1100 0016 41F00101 		orr	r1, r1, #1
 1101 001a 2160     		str	r1, [r4]
 707:Generated_Source\PSoC5/CySpc.c **** 
 708:Generated_Source\PSoC5/CySpc.c ****             /* At least 2 NOP instructions are recommended */
 709:Generated_Source\PSoC5/CySpc.c ****             CY_NOP;
 1102              		.loc 1 709 0
 1103              		.syntax unified
 1104              	@ 709 "Generated_Source\PSoC5\CySpc.c" 1
 1105 001c 00BF     		NOP
 1106              	
 1107              	@ 0 "" 2
 710:Generated_Source\PSoC5/CySpc.c ****             CY_NOP;
 1108              		.loc 1 710 0
 1109              	@ 710 "Generated_Source\PSoC5\CySpc.c" 1
 1110 001e 00BF     		NOP
 1111              	
 1112              	@ 0 "" 2
 711:Generated_Source\PSoC5/CySpc.c ****             CY_NOP;
 1113              		.loc 1 711 0
 1114              	@ 711 "Generated_Source\PSoC5\CySpc.c" 1
 1115 0020 00BF     		NOP
 1116              	
 1117              	@ 0 "" 2
 712:Generated_Source\PSoC5/CySpc.c **** 
 713:Generated_Source\PSoC5/CySpc.c ****             spcWaitPipeBypass = 0u;
 1118              		.loc 1 713 0
 1119              		.thumb
 1120              		.syntax unified
 1121 0022 5A60     		str	r2, [r3, #4]
 1122              	.L105:
 714:Generated_Source\PSoC5/CySpc.c ****         }
 715:Generated_Source\PSoC5/CySpc.c **** 
 716:Generated_Source\PSoC5/CySpc.c ****     #endif  /* (CY_PSOC5) */
 717:Generated_Source\PSoC5/CySpc.c **** 
 718:Generated_Source\PSoC5/CySpc.c ****     /* Exit critical section */
 719:Generated_Source\PSoC5/CySpc.c ****     CyExitCriticalSection(interruptState);
 720:Generated_Source\PSoC5/CySpc.c **** }
 1123              		.loc 1 720 0
 1124 0024 BDE81040 		pop	{r4, lr}
 1125              		.cfi_restore 14
 1126              		.cfi_restore 4
 1127              		.cfi_def_cfa_offset 0
 719:Generated_Source\PSoC5/CySpc.c **** }
ARM GAS  C:\Users\larco\AppData\Local\Temp\cc9jLpwY.s 			page 35


 1128              		.loc 1 719 0
 1129 0028 FFF7FEBF 		b	CyExitCriticalSection
 1130              	.LVL92:
 1131              	.L108:
 1132              		.align	2
 1133              	.L107:
 1134 002c 00000000 		.word	.LANCHOR0
 1135 0030 04000840 		.word	1074266116
 1136              		.cfi_endproc
 1137              	.LFE11:
 1138              		.size	CySpcUnlock, .-CySpcUnlock
 1139              		.section	.text.CySpcGetAlgorithm,"ax",%progbits
 1140              		.align	2
 1141              		.global	CySpcGetAlgorithm
 1142              		.thumb
 1143              		.thumb_func
 1144              		.type	CySpcGetAlgorithm, %function
 1145              	CySpcGetAlgorithm:
 1146              	.LFB12:
 721:Generated_Source\PSoC5/CySpc.c **** 
 722:Generated_Source\PSoC5/CySpc.c **** 
 723:Generated_Source\PSoC5/CySpc.c **** /*******************************************************************************
 724:Generated_Source\PSoC5/CySpc.c **** * Function Name: CySpcGetAlgorithm
 725:Generated_Source\PSoC5/CySpc.c **** ****************************************************************************//**
 726:Generated_Source\PSoC5/CySpc.c **** *  Downloads SPC algorithm from SPC SROM into SRAM.
 727:Generated_Source\PSoC5/CySpc.c **** *
 728:Generated_Source\PSoC5/CySpc.c **** * \return
 729:Generated_Source\PSoC5/CySpc.c **** *  CYRET_STARTED
 730:Generated_Source\PSoC5/CySpc.c **** *  CYRET_LOCKED
 731:Generated_Source\PSoC5/CySpc.c **** *
 732:Generated_Source\PSoC5/CySpc.c **** *******************************************************************************/
 733:Generated_Source\PSoC5/CySpc.c **** cystatus CySpcGetAlgorithm(void)
 734:Generated_Source\PSoC5/CySpc.c **** {
 1147              		.loc 1 734 0
 1148              		.cfi_startproc
 1149              		@ args = 0, pretend = 0, frame = 0
 1150              		@ frame_needed = 0, uses_anonymous_args = 0
 1151              		@ link register save eliminated.
 1152              	.LVL93:
 735:Generated_Source\PSoC5/CySpc.c ****     cystatus status = CYRET_STARTED;
 736:Generated_Source\PSoC5/CySpc.c **** 
 737:Generated_Source\PSoC5/CySpc.c ****     /* Make sure the SPC is ready to accept command */
 738:Generated_Source\PSoC5/CySpc.c ****     if(CY_SPC_IDLE)
 1153              		.loc 1 738 0
 1154 0000 074B     		ldr	r3, .L112
 1155 0002 1B78     		ldrb	r3, [r3]	@ zero_extendqisi2
 1156 0004 9B07     		lsls	r3, r3, #30
 1157 0006 08D5     		bpl	.L111
 739:Generated_Source\PSoC5/CySpc.c ****     {
 740:Generated_Source\PSoC5/CySpc.c ****         CY_SPC_CPU_DATA_REG = CY_SPC_KEY_ONE;
 1158              		.loc 1 740 0
 1159 0008 064B     		ldr	r3, .L112+4
 1160 000a B620     		movs	r0, #182
 741:Generated_Source\PSoC5/CySpc.c ****         CY_SPC_CPU_DATA_REG = CY_SPC_KEY_TWO(CY_SPC_CMD_DWNLD_ALGORITHM);
 1161              		.loc 1 741 0
 1162 000c E021     		movs	r1, #224
 742:Generated_Source\PSoC5/CySpc.c ****         CY_SPC_CPU_DATA_REG = CY_SPC_CMD_DWNLD_ALGORITHM;
ARM GAS  C:\Users\larco\AppData\Local\Temp\cc9jLpwY.s 			page 36


 1163              		.loc 1 742 0
 1164 000e 0D22     		movs	r2, #13
 740:Generated_Source\PSoC5/CySpc.c ****         CY_SPC_CPU_DATA_REG = CY_SPC_KEY_TWO(CY_SPC_CMD_DWNLD_ALGORITHM);
 1165              		.loc 1 740 0
 1166 0010 1870     		strb	r0, [r3]
 741:Generated_Source\PSoC5/CySpc.c ****         CY_SPC_CPU_DATA_REG = CY_SPC_KEY_TWO(CY_SPC_CMD_DWNLD_ALGORITHM);
 1167              		.loc 1 741 0
 1168 0012 1970     		strb	r1, [r3]
 735:Generated_Source\PSoC5/CySpc.c **** 
 1169              		.loc 1 735 0
 1170 0014 0720     		movs	r0, #7
 1171              		.loc 1 742 0
 1172 0016 1A70     		strb	r2, [r3]
 1173 0018 7047     		bx	lr
 1174              	.L111:
 743:Generated_Source\PSoC5/CySpc.c ****     }
 744:Generated_Source\PSoC5/CySpc.c ****     else
 745:Generated_Source\PSoC5/CySpc.c ****     {
 746:Generated_Source\PSoC5/CySpc.c ****         status = CYRET_LOCKED;
 1175              		.loc 1 746 0
 1176 001a 0420     		movs	r0, #4
 1177              	.LVL94:
 747:Generated_Source\PSoC5/CySpc.c ****     }
 748:Generated_Source\PSoC5/CySpc.c **** 
 749:Generated_Source\PSoC5/CySpc.c ****     return(status);
 750:Generated_Source\PSoC5/CySpc.c **** }
 1178              		.loc 1 750 0
 1179 001c 7047     		bx	lr
 1180              	.L113:
 1181 001e 00BF     		.align	2
 1182              	.L112:
 1183 0020 22470040 		.word	1073760034
 1184 0024 20470040 		.word	1073760032
 1185              		.cfi_endproc
 1186              	.LFE12:
 1187              		.size	CySpcGetAlgorithm, .-CySpcGetAlgorithm
 1188              		.global	SpcLockState
 1189              		.bss
 1190              		.align	2
 1191              		.set	.LANCHOR0,. + 0
 1192              		.type	SpcLockState, %object
 1193              		.size	SpcLockState, 1
 1194              	SpcLockState:
 1195 0000 00       		.space	1
 1196 0001 000000   		.space	3
 1197              		.type	spcWaitPipeBypass, %object
 1198              		.size	spcWaitPipeBypass, 4
 1199              	spcWaitPipeBypass:
 1200 0004 00000000 		.space	4
 1201              		.text
 1202              	.Letext0:
 1203              		.file 2 "Generated_Source\\PSoC5\\cytypes.h"
 1204              		.file 3 "Generated_Source\\PSoC5\\CyLib.h"