ARM GAS  C:\Users\larco\AppData\Local\Temp\cczVQUg3.s 			page 1


   1              		.syntax unified
   2              		.cpu cortex-m3
   3              		.fpu softvfp
   4              		.eabi_attribute 20, 1
   5              		.eabi_attribute 21, 1
   6              		.eabi_attribute 23, 3
   7              		.eabi_attribute 24, 1
   8              		.eabi_attribute 25, 1
   9              		.eabi_attribute 26, 1
  10              		.eabi_attribute 30, 2
  11              		.eabi_attribute 34, 1
  12              		.eabi_attribute 18, 4
  13              		.thumb
  14              		.syntax unified
  15              		.file	"display.c"
  16              		.text
  17              	.Ltext0:
  18              		.cfi_sections	.debug_frame
  19              		.section	.text.update_buffer,"ax",%progbits
  20              		.align	2
  21              		.global	update_buffer
  22              		.thumb
  23              		.thumb_func
  24              		.type	update_buffer, %function
  25              	update_buffer:
  26              	.LFB0:
  27              		.file 1 "display.c"
   1:display.c     **** /* ========================================
   2:display.c     ****  *
   3:display.c     ****  * Copyright YOUR COMPANY, THE YEAR
   4:display.c     ****  * All Rights Reserved
   5:display.c     ****  * UNPUBLISHED, LICENSED SOFTWARE.
   6:display.c     ****  *
   7:display.c     ****  * CONFIDENTIAL AND PROPRIETARY INFORMATION
   8:display.c     ****  * WHICH IS THE PROPERTY OF your company.
   9:display.c     ****  *
  10:display.c     ****  * ========================================
  11:display.c     **** */
  12:display.c     **** #include    <display.h>
  13:display.c     **** #include    "cytypes.h"
  14:display.c     **** 
  15:display.c     **** // define functions
  16:display.c     **** void update_buffer(uint8 *buff, led array[], char len )
  17:display.c     **** {
  28              		.loc 1 17 0
  29              		.cfi_startproc
  30              		@ args = 0, pretend = 0, frame = 0
  31              		@ frame_needed = 0, uses_anonymous_args = 0
  32              		@ link register save eliminated.
  33              	.LVL0:
  18:display.c     ****     //unsigned char byteLen = 4*len;
  19:display.c     ****     
  20:display.c     ****     // fill the buffer with the start frame
  21:display.c     ****     *buff++ = 0u;
  34              		.loc 1 21 0
  35 0000 0023     		movs	r3, #0
  17:display.c     ****     //unsigned char byteLen = 4*len;
ARM GAS  C:\Users\larco\AppData\Local\Temp\cczVQUg3.s 			page 2


  36              		.loc 1 17 0
  37 0002 F0B4     		push	{r4, r5, r6, r7}
  38              		.cfi_def_cfa_offset 16
  39              		.cfi_offset 4, -16
  40              		.cfi_offset 5, -12
  41              		.cfi_offset 6, -8
  42              		.cfi_offset 7, -4
  43              		.loc 1 21 0
  44 0004 0370     		strb	r3, [r0]
  45              	.LVL1:
  22:display.c     ****     *buff++ = 0u;
  46              		.loc 1 22 0
  47 0006 4370     		strb	r3, [r0, #1]
  48              	.LVL2:
  23:display.c     ****     *buff++ = 0u;
  49              		.loc 1 23 0
  50 0008 8370     		strb	r3, [r0, #2]
  24:display.c     ****     *buff++ = 0u;
  51              		.loc 1 24 0
  52 000a C370     		strb	r3, [r0, #3]
  53 000c 071D     		adds	r7, r0, #4
  54              	.LVL3:
  55              	.LBB2:
  25:display.c     ****     
  26:display.c     ****     // loop through each led object and copy info into buffer
  27:display.c     ****     // because the leds are serially driven the first data
  28:display.c     ****     // sent out controls the last led so, we need to send the 
  29:display.c     ****     // led info in reverse order.
  30:display.c     ****     //for(int index = len-1; index >= 0; index--)
  31:display.c     ****     for(int index = 0; index < len; index++)
  56              		.loc 1 31 0
  57 000e 002A     		cmp	r2, #0
  58 0010 4ED0     		beq	.L7
  59 0012 9600     		lsls	r6, r2, #2
  60 0014 B418     		adds	r4, r6, r2
  61 0016 0134     		adds	r4, r4, #1
  62 0018 0C44     		add	r4, r4, r1
  63 001a 3E44     		add	r6, r6, r7
  64 001c 4B1C     		adds	r3, r1, #1
  65 001e B342     		cmp	r3, r6
  66 0020 38BF     		it	cc
  67 0022 A742     		cmpcc	r7, r4
  68 0024 2DD3     		bcc	.L3
  69 0026 43EA0704 		orr	r4, r3, r7
  70 002a 012A     		cmp	r2, #1
  71 002c C4F30104 		ubfx	r4, r4, #0, #2
  72 0030 94BF     		ite	ls
  73 0032 0025     		movls	r5, #0
  74 0034 0125     		movhi	r5, #1
  75 0036 002C     		cmp	r4, #0
  76 0038 18BF     		it	ne
  77 003a 0025     		movne	r5, #0
  78 003c 0DB3     		cbz	r5, .L3
  79 003e 1846     		mov	r0, r3
  80 0040 3B46     		mov	r3, r7
  81 0042 02F18045 		add	r5, r2, #1073741824
  82 0046 013D     		subs	r5, r5, #1
ARM GAS  C:\Users\larco\AppData\Local\Temp\cczVQUg3.s 			page 3


  83 0048 07EB8505 		add	r5, r7, r5, lsl #2
  84 004c 013A     		subs	r2, r2, #1
  85              	.LVL4:
  86              	.L4:
  32:display.c     ****     {
  33:display.c     ****         *buff++ = array[index].brightness; 
  87              		.loc 1 33 0 discriminator 3
  88 004e 50F8054B 		ldr	r4, [r0], #5
  89 0052 43F8044B 		str	r4, [r3], #4
  90 0056 9D42     		cmp	r5, r3
  91 0058 F9D1     		bne	.L4
  92 005a 9300     		lsls	r3, r2, #2
  93              		.loc 1 33 0 is_stmt 0
  94 005c 9818     		adds	r0, r3, r2
  95 005e 0144     		add	r1, r1, r0
  96              	.LVL5:
  97 0060 4878     		ldrb	r0, [r1, #1]	@ zero_extendqisi2
  98 0062 3B44     		add	r3, r3, r7
  99              	.LVL6:
 100 0064 07F82200 		strb	r0, [r7, r2, lsl #2]
 101              	.LVL7:
  34:display.c     ****         *buff++ = array[index].blue;
 102              		.loc 1 34 0 is_stmt 1
 103 0068 8A78     		ldrb	r2, [r1, #2]	@ zero_extendqisi2
 104              	.LVL8:
 105 006a 5A70     		strb	r2, [r3, #1]
 106              	.LVL9:
  35:display.c     ****         *buff++ = array[index].green;
 107              		.loc 1 35 0
 108 006c CA78     		ldrb	r2, [r1, #3]	@ zero_extendqisi2
 109 006e 9A70     		strb	r2, [r3, #2]
 110              	.LVL10:
  36:display.c     ****         *buff++ = array[index].red;
 111              		.loc 1 36 0
 112 0070 0A79     		ldrb	r2, [r1, #4]	@ zero_extendqisi2
 113 0072 DA70     		strb	r2, [r3, #3]
 114              	.LVL11:
 115              	.L2:
 116              	.LBE2:
  37:display.c     ****     }
  38:display.c     ****     
  39:display.c     ****     // fill the buffer with the end frame
  40:display.c     ****     *buff++ = 0xff;
 117              		.loc 1 40 0
 118 0074 FF23     		movs	r3, #255
 119 0076 3370     		strb	r3, [r6]
 120              	.LVL12:
  41:display.c     ****     *buff++ = 0xff;
 121              		.loc 1 41 0
 122 0078 7370     		strb	r3, [r6, #1]
 123              	.LVL13:
  42:display.c     ****     *buff++ = 0xff;
 124              		.loc 1 42 0
 125 007a B370     		strb	r3, [r6, #2]
 126              	.LVL14:
  43:display.c     ****     *buff++ = 0xff;   
 127              		.loc 1 43 0
ARM GAS  C:\Users\larco\AppData\Local\Temp\cczVQUg3.s 			page 4


 128 007c F370     		strb	r3, [r6, #3]
  44:display.c     ****     
  45:display.c     **** }
 129              		.loc 1 45 0
 130 007e F0BC     		pop	{r4, r5, r6, r7}
 131              		.cfi_remember_state
 132              		.cfi_restore 7
 133              		.cfi_restore 6
 134              		.cfi_restore 5
 135              		.cfi_restore 4
 136              		.cfi_def_cfa_offset 0
 137              	.LVL15:
 138 0080 7047     		bx	lr
 139              	.LVL16:
 140              	.L3:
 141              		.cfi_restore_state
 142 0082 0132     		adds	r2, r2, #1
 143              	.LVL17:
 144 0084 07EB8202 		add	r2, r7, r2, lsl #2
 145 0088 0830     		adds	r0, r0, #8
 146              	.LVL18:
 147              	.L6:
 148              	.LBB3:
  33:display.c     ****         *buff++ = array[index].blue;
 149              		.loc 1 33 0
 150 008a 4B78     		ldrb	r3, [r1, #1]	@ zero_extendqisi2
 151 008c 0430     		adds	r0, r0, #4
 152              	.LVL19:
 153 008e 00F8083C 		strb	r3, [r0, #-8]
 154              	.LVL20:
  34:display.c     ****         *buff++ = array[index].green;
 155              		.loc 1 34 0
 156 0092 8B78     		ldrb	r3, [r1, #2]	@ zero_extendqisi2
 157 0094 0531     		adds	r1, r1, #5
 158 0096 00F8073C 		strb	r3, [r0, #-7]
 159              	.LVL21:
  35:display.c     ****         *buff++ = array[index].red;
 160              		.loc 1 35 0
 161 009a 11F8023C 		ldrb	r3, [r1, #-2]	@ zero_extendqisi2
 162 009e 00F8063C 		strb	r3, [r0, #-6]
 163              	.LVL22:
  36:display.c     ****     }
 164              		.loc 1 36 0
 165 00a2 11F8013C 		ldrb	r3, [r1, #-1]	@ zero_extendqisi2
 166 00a6 00F8053C 		strb	r3, [r0, #-5]
  31:display.c     ****     {
 167              		.loc 1 31 0
 168 00aa 8242     		cmp	r2, r0
 169 00ac EDD1     		bne	.L6
 170 00ae E1E7     		b	.L2
 171              	.LVL23:
 172              	.L7:
 173              	.LBE3:
  24:display.c     ****     
 174              		.loc 1 24 0
 175 00b0 3E46     		mov	r6, r7
 176 00b2 DFE7     		b	.L2
ARM GAS  C:\Users\larco\AppData\Local\Temp\cczVQUg3.s 			page 5


 177              		.cfi_endproc
 178              	.LFE0:
 179              		.size	update_buffer, .-update_buffer
 180              		.text
 181              	.Letext0:
 182              		.file 2 "./led_object.h"
 183              		.file 3 "Generated_Source\\PSoC5/cytypes.h"