ARM GAS  C:\Users\larco\AppData\Local\Temp\ccASqcKS.s 			page 1


   1              		.syntax unified
   2              		.cpu cortex-m3
   3              		.fpu softvfp
   4              		.eabi_attribute 20, 1
   5              		.eabi_attribute 21, 1
   6              		.eabi_attribute 23, 3
   7              		.eabi_attribute 24, 1
   8              		.eabi_attribute 25, 1
   9              		.eabi_attribute 26, 1
  10              		.eabi_attribute 30, 2
  11              		.eabi_attribute 34, 1
  12              		.eabi_attribute 18, 4
  13              		.thumb
  14              		.syntax unified
  15              		.file	"DVDAC_1.c"
  16              		.text
  17              	.Ltext0:
  18              		.cfi_sections	.debug_frame
  19              		.section	.text.DVDAC_1_Init,"ax",%progbits
  20              		.align	2
  21              		.global	DVDAC_1_Init
  22              		.thumb
  23              		.thumb_func
  24              		.type	DVDAC_1_Init, %function
  25              	DVDAC_1_Init:
  26              	.LFB0:
  27              		.file 1 "Generated_Source\\PSoC5\\DVDAC_1.c"
   1:Generated_Source\PSoC5/DVDAC_1.c **** /*******************************************************************************
   2:Generated_Source\PSoC5/DVDAC_1.c **** * File Name: DVDAC_1.c
   3:Generated_Source\PSoC5/DVDAC_1.c **** * Version 2.10
   4:Generated_Source\PSoC5/DVDAC_1.c **** *
   5:Generated_Source\PSoC5/DVDAC_1.c **** * Description:
   6:Generated_Source\PSoC5/DVDAC_1.c **** *  This file provides the source code of APIs for the DVDAC component.
   7:Generated_Source\PSoC5/DVDAC_1.c **** *
   8:Generated_Source\PSoC5/DVDAC_1.c **** ********************************************************************************
   9:Generated_Source\PSoC5/DVDAC_1.c **** * Copyright 2013, Cypress Semiconductor Corporation.  All rights reserved.
  10:Generated_Source\PSoC5/DVDAC_1.c **** * You may use this file only in accordance with the license, terms, conditions,
  11:Generated_Source\PSoC5/DVDAC_1.c **** * disclaimers, and limitations in the end user license agreement accompanying
  12:Generated_Source\PSoC5/DVDAC_1.c **** * the software package with which this file was provided.
  13:Generated_Source\PSoC5/DVDAC_1.c **** *******************************************************************************/
  14:Generated_Source\PSoC5/DVDAC_1.c **** 
  15:Generated_Source\PSoC5/DVDAC_1.c **** #include "DVDAC_1.h"
  16:Generated_Source\PSoC5/DVDAC_1.c **** #include "DVDAC_1_VDAC8.h"
  17:Generated_Source\PSoC5/DVDAC_1.c **** #include "CyDmac.h"
  18:Generated_Source\PSoC5/DVDAC_1.c **** #include "DVDAC_1_DMA_dma.H"
  19:Generated_Source\PSoC5/DVDAC_1.c **** 
  20:Generated_Source\PSoC5/DVDAC_1.c **** #if(DVDAC_1_INTERNAL_CLOCK_USED)
  21:Generated_Source\PSoC5/DVDAC_1.c ****     #include "DVDAC_1_IntClock.h"
  22:Generated_Source\PSoC5/DVDAC_1.c **** #endif /* DVDAC_1_INTERNAL_CLOCK_USED */
  23:Generated_Source\PSoC5/DVDAC_1.c **** 
  24:Generated_Source\PSoC5/DVDAC_1.c **** 
  25:Generated_Source\PSoC5/DVDAC_1.c **** static uint8 DVDAC_1_ditheredValues[16u] = {0x80u, 0x80u, 0x80u, 0x80u, 0x80u, 0x80u, 0x80u, 0x80u,
  26:Generated_Source\PSoC5/DVDAC_1.c ****                                             0x80u, 0x80u, 0x80u, 0x80u, 0x80u, 0x80u};
  27:Generated_Source\PSoC5/DVDAC_1.c **** 
  28:Generated_Source\PSoC5/DVDAC_1.c **** 
  29:Generated_Source\PSoC5/DVDAC_1.c **** uint8 DVDAC_1_initVar = 0u;
  30:Generated_Source\PSoC5/DVDAC_1.c **** 
ARM GAS  C:\Users\larco\AppData\Local\Temp\ccASqcKS.s 			page 2


  31:Generated_Source\PSoC5/DVDAC_1.c **** static uint8 DVDAC_1_dmaChan;
  32:Generated_Source\PSoC5/DVDAC_1.c **** static uint8 DVDAC_1_dmaTd = CY_DMA_INVALID_TD;
  33:Generated_Source\PSoC5/DVDAC_1.c **** 
  34:Generated_Source\PSoC5/DVDAC_1.c **** static void DVDAC_1_InitDma(void)  ;
  35:Generated_Source\PSoC5/DVDAC_1.c **** 
  36:Generated_Source\PSoC5/DVDAC_1.c **** 
  37:Generated_Source\PSoC5/DVDAC_1.c **** /*******************************************************************************
  38:Generated_Source\PSoC5/DVDAC_1.c **** * Function Name: DVDAC_1_Init
  39:Generated_Source\PSoC5/DVDAC_1.c **** ********************************************************************************
  40:Generated_Source\PSoC5/DVDAC_1.c **** *
  41:Generated_Source\PSoC5/DVDAC_1.c **** * Summary:
  42:Generated_Source\PSoC5/DVDAC_1.c **** *  Initializes or restores the component according to the customizer Configure
  43:Generated_Source\PSoC5/DVDAC_1.c **** *  dialog settings. It is not necessary to call DVDAC_1_Init() because
  44:Generated_Source\PSoC5/DVDAC_1.c **** *  the DVDAC_1_Start() API calls this function and is the preferred
  45:Generated_Source\PSoC5/DVDAC_1.c **** *  method to begin component operation.
  46:Generated_Source\PSoC5/DVDAC_1.c **** *
  47:Generated_Source\PSoC5/DVDAC_1.c **** * Parameters:
  48:Generated_Source\PSoC5/DVDAC_1.c **** *  None
  49:Generated_Source\PSoC5/DVDAC_1.c **** *
  50:Generated_Source\PSoC5/DVDAC_1.c **** * Return:
  51:Generated_Source\PSoC5/DVDAC_1.c **** *  None
  52:Generated_Source\PSoC5/DVDAC_1.c **** *
  53:Generated_Source\PSoC5/DVDAC_1.c **** * Side Effects:
  54:Generated_Source\PSoC5/DVDAC_1.c **** *  All registers will be set to values according to the customizer Configure
  55:Generated_Source\PSoC5/DVDAC_1.c **** *  dialog.
  56:Generated_Source\PSoC5/DVDAC_1.c **** *
  57:Generated_Source\PSoC5/DVDAC_1.c **** * Global variables:
  58:Generated_Source\PSoC5/DVDAC_1.c **** *  None
  59:Generated_Source\PSoC5/DVDAC_1.c **** *
  60:Generated_Source\PSoC5/DVDAC_1.c **** *******************************************************************************/
  61:Generated_Source\PSoC5/DVDAC_1.c **** void DVDAC_1_Init(void) 
  62:Generated_Source\PSoC5/DVDAC_1.c **** {
  28              		.loc 1 62 0
  29              		.cfi_startproc
  30              		@ args = 0, pretend = 0, frame = 0
  31              		@ frame_needed = 0, uses_anonymous_args = 0
  32 0000 70B5     		push	{r4, r5, r6, lr}
  33              		.cfi_def_cfa_offset 16
  34              		.cfi_offset 4, -16
  35              		.cfi_offset 5, -12
  36              		.cfi_offset 6, -8
  37              		.cfi_offset 14, -4
  63:Generated_Source\PSoC5/DVDAC_1.c ****     DVDAC_1_VDAC8_Init();
  64:Generated_Source\PSoC5/DVDAC_1.c **** 
  65:Generated_Source\PSoC5/DVDAC_1.c ****     if(CY_DMA_INVALID_TD == DVDAC_1_dmaTd)
  38              		.loc 1 65 0
  39 0002 134C     		ldr	r4, .L6
  63:Generated_Source\PSoC5/DVDAC_1.c ****     DVDAC_1_VDAC8_Init();
  40              		.loc 1 63 0
  41 0004 FFF7FEFF 		bl	DVDAC_1_VDAC8_Init
  42              	.LVL0:
  43              		.loc 1 65 0
  44 0008 2378     		ldrb	r3, [r4]	@ zero_extendqisi2
  45 000a FF2B     		cmp	r3, #255
  46 000c 00D0     		beq	.L5
  47 000e 70BD     		pop	{r4, r5, r6, pc}
  48              	.L5:
ARM GAS  C:\Users\larco\AppData\Local\Temp\ccASqcKS.s 			page 3


  49              	.LBB6:
  50              	.LBB7:
  66:Generated_Source\PSoC5/DVDAC_1.c ****     {
  67:Generated_Source\PSoC5/DVDAC_1.c ****         DVDAC_1_InitDma();
  68:Generated_Source\PSoC5/DVDAC_1.c ****     }
  69:Generated_Source\PSoC5/DVDAC_1.c **** }
  70:Generated_Source\PSoC5/DVDAC_1.c **** 
  71:Generated_Source\PSoC5/DVDAC_1.c **** 
  72:Generated_Source\PSoC5/DVDAC_1.c **** /*******************************************************************************
  73:Generated_Source\PSoC5/DVDAC_1.c **** * Function Name: DVDAC_1_Enable
  74:Generated_Source\PSoC5/DVDAC_1.c **** ********************************************************************************
  75:Generated_Source\PSoC5/DVDAC_1.c **** *
  76:Generated_Source\PSoC5/DVDAC_1.c **** * Summary:
  77:Generated_Source\PSoC5/DVDAC_1.c **** *  Activates the hardware and begins component operation. It is not necessary to
  78:Generated_Source\PSoC5/DVDAC_1.c **** *  call DVDAC_1_Enable() because the DVDAC_1_Start() API calls
  79:Generated_Source\PSoC5/DVDAC_1.c **** *  this function, which is the preferred method to begin component operation.
  80:Generated_Source\PSoC5/DVDAC_1.c **** *
  81:Generated_Source\PSoC5/DVDAC_1.c **** * Parameters:
  82:Generated_Source\PSoC5/DVDAC_1.c **** *  None
  83:Generated_Source\PSoC5/DVDAC_1.c **** *
  84:Generated_Source\PSoC5/DVDAC_1.c **** * Return:
  85:Generated_Source\PSoC5/DVDAC_1.c **** *  None
  86:Generated_Source\PSoC5/DVDAC_1.c **** *
  87:Generated_Source\PSoC5/DVDAC_1.c **** * Global variables:
  88:Generated_Source\PSoC5/DVDAC_1.c **** *  None
  89:Generated_Source\PSoC5/DVDAC_1.c **** *
  90:Generated_Source\PSoC5/DVDAC_1.c **** *******************************************************************************/
  91:Generated_Source\PSoC5/DVDAC_1.c **** void DVDAC_1_Enable(void) 
  92:Generated_Source\PSoC5/DVDAC_1.c **** {
  93:Generated_Source\PSoC5/DVDAC_1.c ****     (void) CyDmaChEnable(DVDAC_1_dmaChan, 1u);
  94:Generated_Source\PSoC5/DVDAC_1.c **** 
  95:Generated_Source\PSoC5/DVDAC_1.c ****     #if(DVDAC_1_INTERNAL_CLOCK_USED)
  96:Generated_Source\PSoC5/DVDAC_1.c ****         DVDAC_1_IntClock_Start();
  97:Generated_Source\PSoC5/DVDAC_1.c ****     #endif /* DVDAC_1_INTERNAL_CLOCK_USED */
  98:Generated_Source\PSoC5/DVDAC_1.c **** 
  99:Generated_Source\PSoC5/DVDAC_1.c ****     DVDAC_1_VDAC8_Enable();
 100:Generated_Source\PSoC5/DVDAC_1.c **** }
 101:Generated_Source\PSoC5/DVDAC_1.c **** 
 102:Generated_Source\PSoC5/DVDAC_1.c **** 
 103:Generated_Source\PSoC5/DVDAC_1.c **** /*******************************************************************************
 104:Generated_Source\PSoC5/DVDAC_1.c **** * Function Name: DVDAC_1_Start
 105:Generated_Source\PSoC5/DVDAC_1.c **** ********************************************************************************
 106:Generated_Source\PSoC5/DVDAC_1.c **** *
 107:Generated_Source\PSoC5/DVDAC_1.c **** * Summary:
 108:Generated_Source\PSoC5/DVDAC_1.c **** *  Performs all of the required initialization for the component and enables
 109:Generated_Source\PSoC5/DVDAC_1.c **** *  power to the block. The first time the routine is executed, the component is
 110:Generated_Source\PSoC5/DVDAC_1.c **** *  initialized to the configured settings. When called to restart the DVDAC
 111:Generated_Source\PSoC5/DVDAC_1.c **** *  following a DVDAC_1_Stop() call, the current component parameter
 112:Generated_Source\PSoC5/DVDAC_1.c **** *  settings are retained.
 113:Generated_Source\PSoC5/DVDAC_1.c **** *
 114:Generated_Source\PSoC5/DVDAC_1.c **** * Parameters:
 115:Generated_Source\PSoC5/DVDAC_1.c **** *  None
 116:Generated_Source\PSoC5/DVDAC_1.c **** *
 117:Generated_Source\PSoC5/DVDAC_1.c **** * Return:
 118:Generated_Source\PSoC5/DVDAC_1.c **** *  None
 119:Generated_Source\PSoC5/DVDAC_1.c **** *
 120:Generated_Source\PSoC5/DVDAC_1.c **** * Side Effects:
ARM GAS  C:\Users\larco\AppData\Local\Temp\ccASqcKS.s 			page 4


 121:Generated_Source\PSoC5/DVDAC_1.c **** *  If the DVDAC_1_initVar variable is already set, this function only
 122:Generated_Source\PSoC5/DVDAC_1.c **** *  calls the DVDAC_1_Enable() function.
 123:Generated_Source\PSoC5/DVDAC_1.c **** *
 124:Generated_Source\PSoC5/DVDAC_1.c **** * Global variables:
 125:Generated_Source\PSoC5/DVDAC_1.c **** *  DVDAC_1_initVar - indicates whether the DVDAC has been initialized.
 126:Generated_Source\PSoC5/DVDAC_1.c **** *  The variable is initialized to 0 and set to 1 the first time DVDAC_Start()
 127:Generated_Source\PSoC5/DVDAC_1.c **** *  is called. This allows the component to restart without reinitialization
 128:Generated_Source\PSoC5/DVDAC_1.c **** *  after the first call to the DVDAC_1_Start() routine. If
 129:Generated_Source\PSoC5/DVDAC_1.c **** *  reinitialization of the component is required, then the
 130:Generated_Source\PSoC5/DVDAC_1.c **** *  DVDAC_1_Init() function can be called before the
 131:Generated_Source\PSoC5/DVDAC_1.c **** *  DVDAC_1_Start() or DVDAC_1_Enable() function.
 132:Generated_Source\PSoC5/DVDAC_1.c **** *
 133:Generated_Source\PSoC5/DVDAC_1.c **** *******************************************************************************/
 134:Generated_Source\PSoC5/DVDAC_1.c **** void DVDAC_1_Start(void) 
 135:Generated_Source\PSoC5/DVDAC_1.c **** {
 136:Generated_Source\PSoC5/DVDAC_1.c ****     /* Hardware initiazation only needs to occure the first time */
 137:Generated_Source\PSoC5/DVDAC_1.c ****     if(0u == DVDAC_1_initVar)
 138:Generated_Source\PSoC5/DVDAC_1.c ****     {
 139:Generated_Source\PSoC5/DVDAC_1.c ****         DVDAC_1_Init();
 140:Generated_Source\PSoC5/DVDAC_1.c ****         DVDAC_1_initVar = 1u;
 141:Generated_Source\PSoC5/DVDAC_1.c ****     }
 142:Generated_Source\PSoC5/DVDAC_1.c **** 
 143:Generated_Source\PSoC5/DVDAC_1.c ****     DVDAC_1_Enable();
 144:Generated_Source\PSoC5/DVDAC_1.c **** }
 145:Generated_Source\PSoC5/DVDAC_1.c **** 
 146:Generated_Source\PSoC5/DVDAC_1.c **** 
 147:Generated_Source\PSoC5/DVDAC_1.c **** /*******************************************************************************
 148:Generated_Source\PSoC5/DVDAC_1.c **** * Function Name: DVDAC_1_Stop
 149:Generated_Source\PSoC5/DVDAC_1.c **** ********************************************************************************
 150:Generated_Source\PSoC5/DVDAC_1.c **** *
 151:Generated_Source\PSoC5/DVDAC_1.c **** * Summary:
 152:Generated_Source\PSoC5/DVDAC_1.c **** *  Stops the component and turns off the analog blocks in the DVDAC.
 153:Generated_Source\PSoC5/DVDAC_1.c **** *
 154:Generated_Source\PSoC5/DVDAC_1.c **** * Parameters:
 155:Generated_Source\PSoC5/DVDAC_1.c **** *  None
 156:Generated_Source\PSoC5/DVDAC_1.c **** *
 157:Generated_Source\PSoC5/DVDAC_1.c **** * Return:
 158:Generated_Source\PSoC5/DVDAC_1.c **** *  None
 159:Generated_Source\PSoC5/DVDAC_1.c **** *
 160:Generated_Source\PSoC5/DVDAC_1.c **** * Global variables:
 161:Generated_Source\PSoC5/DVDAC_1.c **** *  None
 162:Generated_Source\PSoC5/DVDAC_1.c **** *
 163:Generated_Source\PSoC5/DVDAC_1.c **** *******************************************************************************/
 164:Generated_Source\PSoC5/DVDAC_1.c **** void DVDAC_1_Stop(void) 
 165:Generated_Source\PSoC5/DVDAC_1.c **** {
 166:Generated_Source\PSoC5/DVDAC_1.c ****     #if(DVDAC_1_INTERNAL_CLOCK_USED)
 167:Generated_Source\PSoC5/DVDAC_1.c ****         DVDAC_1_IntClock_Stop();
 168:Generated_Source\PSoC5/DVDAC_1.c ****     #endif /* DVDAC_1_INTERNAL_CLOCK_USED */
 169:Generated_Source\PSoC5/DVDAC_1.c **** 
 170:Generated_Source\PSoC5/DVDAC_1.c ****     (void) CyDmaChDisable(DVDAC_1_dmaChan);
 171:Generated_Source\PSoC5/DVDAC_1.c ****     DVDAC_1_VDAC8_Stop();
 172:Generated_Source\PSoC5/DVDAC_1.c **** }
 173:Generated_Source\PSoC5/DVDAC_1.c **** 
 174:Generated_Source\PSoC5/DVDAC_1.c **** 
 175:Generated_Source\PSoC5/DVDAC_1.c **** /*******************************************************************************
 176:Generated_Source\PSoC5/DVDAC_1.c **** * Function Name: DVDAC_1_SetValue
 177:Generated_Source\PSoC5/DVDAC_1.c **** ********************************************************************************
ARM GAS  C:\Users\larco\AppData\Local\Temp\ccASqcKS.s 			page 5


 178:Generated_Source\PSoC5/DVDAC_1.c **** *
 179:Generated_Source\PSoC5/DVDAC_1.c **** * Summary:
 180:Generated_Source\PSoC5/DVDAC_1.c **** *  Sets the DVDACs output. The function populates the SRAM array based on the
 181:Generated_Source\PSoC5/DVDAC_1.c **** *  value and the resolution setting. That array is then transferred to the
 182:Generated_Source\PSoC5/DVDAC_1.c **** *  internal VDAC by DMA.
 183:Generated_Source\PSoC5/DVDAC_1.c **** *
 184:Generated_Source\PSoC5/DVDAC_1.c **** * Parameters:
 185:Generated_Source\PSoC5/DVDAC_1.c **** *  (uint16) value:  The maximum value will be dependent on the resolution
 186:Generated_Source\PSoC5/DVDAC_1.c **** *  selected:
 187:Generated_Source\PSoC5/DVDAC_1.c **** *   Resolution       Valid range
 188:Generated_Source\PSoC5/DVDAC_1.c **** *        9 bits       0x0 - 0x1FE
 189:Generated_Source\PSoC5/DVDAC_1.c **** *       10 bits       0x0 - 0x3FC
 190:Generated_Source\PSoC5/DVDAC_1.c **** *       11 bits       0x0 - 0x7F8
 191:Generated_Source\PSoC5/DVDAC_1.c **** *       12 bits       0x0 - 0xFF0
 192:Generated_Source\PSoC5/DVDAC_1.c **** *
 193:Generated_Source\PSoC5/DVDAC_1.c **** *  This value includes an integer portion and a fractional portion that varies
 194:Generated_Source\PSoC5/DVDAC_1.c **** *  depending on number of bits of resolution:
 195:Generated_Source\PSoC5/DVDAC_1.c **** *   - 9-bits:  1 fractional bit
 196:Generated_Source\PSoC5/DVDAC_1.c **** *   - 10-bits: 2 fractional bits
 197:Generated_Source\PSoC5/DVDAC_1.c **** *   - 11-bits: 3 fractional bits
 198:Generated_Source\PSoC5/DVDAC_1.c **** *   - 12-bits: 4 fractional bits
 199:Generated_Source\PSoC5/DVDAC_1.c **** *
 200:Generated_Source\PSoC5/DVDAC_1.c **** * Return:
 201:Generated_Source\PSoC5/DVDAC_1.c **** *  None
 202:Generated_Source\PSoC5/DVDAC_1.c **** *
 203:Generated_Source\PSoC5/DVDAC_1.c **** * Global variables:
 204:Generated_Source\PSoC5/DVDAC_1.c **** *  None
 205:Generated_Source\PSoC5/DVDAC_1.c **** *
 206:Generated_Source\PSoC5/DVDAC_1.c **** *******************************************************************************/
 207:Generated_Source\PSoC5/DVDAC_1.c **** void DVDAC_1_SetValue(uint16 value) 
 208:Generated_Source\PSoC5/DVDAC_1.c **** {
 209:Generated_Source\PSoC5/DVDAC_1.c ****     uint8  lowCount  = (uint8)(value & DVDAC_1_FRACTIONAL_PORTION_MASK);
 210:Generated_Source\PSoC5/DVDAC_1.c ****     uint8 highCount  = (uint8)(value >> DVDAC_1_INTEGER_PORTION_SHIFT);
 211:Generated_Source\PSoC5/DVDAC_1.c ****     uint8 i;
 212:Generated_Source\PSoC5/DVDAC_1.c **** 
 213:Generated_Source\PSoC5/DVDAC_1.c **** 
 214:Generated_Source\PSoC5/DVDAC_1.c ****     CYASSERT(value <= DVDAC_1_DVDAC_MAX_VALUE);
 215:Generated_Source\PSoC5/DVDAC_1.c **** 
 216:Generated_Source\PSoC5/DVDAC_1.c ****     if (DVDAC_1_INTEGER_PORTION_MAX_VALUE == highCount)
 217:Generated_Source\PSoC5/DVDAC_1.c ****     {
 218:Generated_Source\PSoC5/DVDAC_1.c ****         for (i = 0u; i < DVDAC_1_DITHERED_ARRAY_SIZE; i++)
 219:Generated_Source\PSoC5/DVDAC_1.c ****         {
 220:Generated_Source\PSoC5/DVDAC_1.c ****             DVDAC_1_ditheredValues[i] = DVDAC_1_INTEGER_PORTION_MAX_VALUE;
 221:Generated_Source\PSoC5/DVDAC_1.c ****         }
 222:Generated_Source\PSoC5/DVDAC_1.c ****     }
 223:Generated_Source\PSoC5/DVDAC_1.c ****     else
 224:Generated_Source\PSoC5/DVDAC_1.c ****     {
 225:Generated_Source\PSoC5/DVDAC_1.c ****         for(i = 0u; i < DVDAC_1_DITHERED_ARRAY_SIZE; i++)
 226:Generated_Source\PSoC5/DVDAC_1.c ****         {
 227:Generated_Source\PSoC5/DVDAC_1.c ****             if(i < (DVDAC_1_DITHERED_ARRAY_SIZE - lowCount))
 228:Generated_Source\PSoC5/DVDAC_1.c ****             {
 229:Generated_Source\PSoC5/DVDAC_1.c ****                 DVDAC_1_ditheredValues[i] = highCount;
 230:Generated_Source\PSoC5/DVDAC_1.c ****             }
 231:Generated_Source\PSoC5/DVDAC_1.c ****             else
 232:Generated_Source\PSoC5/DVDAC_1.c ****             {
 233:Generated_Source\PSoC5/DVDAC_1.c ****                 DVDAC_1_ditheredValues[i] = highCount + 1u;
 234:Generated_Source\PSoC5/DVDAC_1.c ****             }
ARM GAS  C:\Users\larco\AppData\Local\Temp\ccASqcKS.s 			page 6


 235:Generated_Source\PSoC5/DVDAC_1.c ****         }
 236:Generated_Source\PSoC5/DVDAC_1.c ****     }
 237:Generated_Source\PSoC5/DVDAC_1.c **** }
 238:Generated_Source\PSoC5/DVDAC_1.c **** 
 239:Generated_Source\PSoC5/DVDAC_1.c **** 
 240:Generated_Source\PSoC5/DVDAC_1.c **** /*******************************************************************************
 241:Generated_Source\PSoC5/DVDAC_1.c **** * Function Name: DVDAC_1_InitDma
 242:Generated_Source\PSoC5/DVDAC_1.c **** ********************************************************************************
 243:Generated_Source\PSoC5/DVDAC_1.c **** *
 244:Generated_Source\PSoC5/DVDAC_1.c **** * Summary:
 245:Generated_Source\PSoC5/DVDAC_1.c **** *  Configures a DMA transfer of channel values from memory to VDAC.
 246:Generated_Source\PSoC5/DVDAC_1.c **** *
 247:Generated_Source\PSoC5/DVDAC_1.c **** * Parameters:
 248:Generated_Source\PSoC5/DVDAC_1.c **** *  None
 249:Generated_Source\PSoC5/DVDAC_1.c **** *
 250:Generated_Source\PSoC5/DVDAC_1.c **** * Return:
 251:Generated_Source\PSoC5/DVDAC_1.c **** *  None
 252:Generated_Source\PSoC5/DVDAC_1.c **** *
 253:Generated_Source\PSoC5/DVDAC_1.c **** *******************************************************************************/
 254:Generated_Source\PSoC5/DVDAC_1.c **** static void DVDAC_1_InitDma(void)  
 255:Generated_Source\PSoC5/DVDAC_1.c **** {
 256:Generated_Source\PSoC5/DVDAC_1.c ****     /***************************************************************************
 257:Generated_Source\PSoC5/DVDAC_1.c ****     * Transfers channel values from SRAM to VDAC register. One byte transfer,
 258:Generated_Source\PSoC5/DVDAC_1.c ****     * each burst requires a request.
 259:Generated_Source\PSoC5/DVDAC_1.c ****     ***************************************************************************/
 260:Generated_Source\PSoC5/DVDAC_1.c ****     DVDAC_1_dmaChan = DVDAC_1_DMA_DmaInitialize(
  51              		.loc 1 260 0
  52 0010 0121     		movs	r1, #1
  53 0012 0846     		mov	r0, r1
  54 0014 4FF48043 		mov	r3, #16384
  55 0018 41F6FF72 		movw	r2, #8191
  56 001c FFF7FEFF 		bl	DVDAC_1_DMA_DmaInitialize
  57              	.LVL1:
  58 0020 0C4E     		ldr	r6, .L6+4
 261:Generated_Source\PSoC5/DVDAC_1.c ****                                     DVDAC_1_DMA_BYTES_PER_BURST,
 262:Generated_Source\PSoC5/DVDAC_1.c ****                                     DVDAC_1_DMA_REQUEST_PER_BURST,
 263:Generated_Source\PSoC5/DVDAC_1.c ****                                     HI16(DVDAC_1_DMA_SRC_BASE),
 264:Generated_Source\PSoC5/DVDAC_1.c ****                                     HI16(DVDAC_1_DMA_DST_BASE));
 265:Generated_Source\PSoC5/DVDAC_1.c **** 
 266:Generated_Source\PSoC5/DVDAC_1.c ****     DVDAC_1_dmaTd = CyDmaTdAllocate();
  59              		.loc 1 266 0
  60 0022 2546     		mov	r5, r4
 260:Generated_Source\PSoC5/DVDAC_1.c ****                                     DVDAC_1_DMA_BYTES_PER_BURST,
  61              		.loc 1 260 0
  62 0024 3070     		strb	r0, [r6]
  63              		.loc 1 266 0
  64 0026 FFF7FEFF 		bl	CyDmaTdAllocate
  65              	.LVL2:
 267:Generated_Source\PSoC5/DVDAC_1.c **** 
 268:Generated_Source\PSoC5/DVDAC_1.c **** 
 269:Generated_Source\PSoC5/DVDAC_1.c ****     /***************************************************************************
 270:Generated_Source\PSoC5/DVDAC_1.c ****     * One TD looping on itself, increment the source address, but not the
 271:Generated_Source\PSoC5/DVDAC_1.c ****     * destination address.
 272:Generated_Source\PSoC5/DVDAC_1.c ****     ***************************************************************************/
 273:Generated_Source\PSoC5/DVDAC_1.c ****     (void) CyDmaTdSetConfiguration( DVDAC_1_dmaTd,
  66              		.loc 1 273 0
  67 002a 0123     		movs	r3, #1
ARM GAS  C:\Users\larco\AppData\Local\Temp\ccASqcKS.s 			page 7


 266:Generated_Source\PSoC5/DVDAC_1.c **** 
  68              		.loc 1 266 0
  69 002c 05F8040B 		strb	r0, [r5], #4
  70 0030 0246     		mov	r2, r0
  71              		.loc 1 273 0
  72 0032 1021     		movs	r1, #16
  73 0034 FFF7FEFF 		bl	CyDmaTdSetConfiguration
  74              	.LVL3:
 274:Generated_Source\PSoC5/DVDAC_1.c ****                                     DVDAC_1_DITHERED_ARRAY_SIZE,
 275:Generated_Source\PSoC5/DVDAC_1.c ****                                     DVDAC_1_dmaTd,
 276:Generated_Source\PSoC5/DVDAC_1.c ****                                     (uint8) CY_DMA_TD_INC_SRC_ADR);
 277:Generated_Source\PSoC5/DVDAC_1.c **** 
 278:Generated_Source\PSoC5/DVDAC_1.c ****     /* Transfers the value for each channel from memory to VDAC */
 279:Generated_Source\PSoC5/DVDAC_1.c ****     (void) CyDmaTdSetAddress(   DVDAC_1_dmaTd,
  75              		.loc 1 279 0
  76 0038 A9B2     		uxth	r1, r5
  77 003a 2078     		ldrb	r0, [r4]	@ zero_extendqisi2
  78 003c 45F68232 		movw	r2, #23426
  79 0040 FFF7FEFF 		bl	CyDmaTdSetAddress
  80              	.LVL4:
 280:Generated_Source\PSoC5/DVDAC_1.c ****                                 LO16((uint32)DVDAC_1_ditheredValues),
 281:Generated_Source\PSoC5/DVDAC_1.c ****                                 LO16((uint32)DVDAC_1_VDAC8_Data_PTR));
 282:Generated_Source\PSoC5/DVDAC_1.c **** 
 283:Generated_Source\PSoC5/DVDAC_1.c ****     (void) CyDmaChSetInitialTd(DVDAC_1_dmaChan, DVDAC_1_dmaTd);
  81              		.loc 1 283 0
  82 0044 3078     		ldrb	r0, [r6]	@ zero_extendqisi2
  83 0046 2178     		ldrb	r1, [r4]	@ zero_extendqisi2
  84              	.LBE7:
  85              	.LBE6:
  69:Generated_Source\PSoC5/DVDAC_1.c **** 
  86              		.loc 1 69 0
  87 0048 BDE87040 		pop	{r4, r5, r6, lr}
  88              		.cfi_restore 14
  89              		.cfi_restore 6
  90              		.cfi_restore 5
  91              		.cfi_restore 4
  92              		.cfi_def_cfa_offset 0
  93              	.LBB9:
  94              	.LBB8:
  95              		.loc 1 283 0
  96 004c FFF7FEBF 		b	CyDmaChSetInitialTd
  97              	.LVL5:
  98              	.L7:
  99              		.align	2
 100              	.L6:
 101 0050 00000000 		.word	.LANCHOR0
 102 0054 00000000 		.word	.LANCHOR1
 103              	.LBE8:
 104              	.LBE9:
 105              		.cfi_endproc
 106              	.LFE0:
 107              		.size	DVDAC_1_Init, .-DVDAC_1_Init
 108              		.section	.text.DVDAC_1_Enable,"ax",%progbits
 109              		.align	2
 110              		.global	DVDAC_1_Enable
 111              		.thumb
 112              		.thumb_func
ARM GAS  C:\Users\larco\AppData\Local\Temp\ccASqcKS.s 			page 8


 113              		.type	DVDAC_1_Enable, %function
 114              	DVDAC_1_Enable:
 115              	.LFB1:
  92:Generated_Source\PSoC5/DVDAC_1.c ****     (void) CyDmaChEnable(DVDAC_1_dmaChan, 1u);
 116              		.loc 1 92 0
 117              		.cfi_startproc
 118              		@ args = 0, pretend = 0, frame = 0
 119              		@ frame_needed = 0, uses_anonymous_args = 0
 120 0000 08B5     		push	{r3, lr}
 121              		.cfi_def_cfa_offset 8
 122              		.cfi_offset 3, -8
 123              		.cfi_offset 14, -4
  93:Generated_Source\PSoC5/DVDAC_1.c **** 
 124              		.loc 1 93 0
 125 0002 054B     		ldr	r3, .L10
 126 0004 0121     		movs	r1, #1
 127 0006 1878     		ldrb	r0, [r3]	@ zero_extendqisi2
 128 0008 FFF7FEFF 		bl	CyDmaChEnable
 129              	.LVL6:
  96:Generated_Source\PSoC5/DVDAC_1.c ****     #endif /* DVDAC_1_INTERNAL_CLOCK_USED */
 130              		.loc 1 96 0
 131 000c FFF7FEFF 		bl	DVDAC_1_IntClock_Start
 132              	.LVL7:
 100:Generated_Source\PSoC5/DVDAC_1.c **** 
 133              		.loc 1 100 0
 134 0010 BDE80840 		pop	{r3, lr}
 135              		.cfi_restore 14
 136              		.cfi_restore 3
 137              		.cfi_def_cfa_offset 0
  99:Generated_Source\PSoC5/DVDAC_1.c **** }
 138              		.loc 1 99 0
 139 0014 FFF7FEBF 		b	DVDAC_1_VDAC8_Enable
 140              	.LVL8:
 141              	.L11:
 142              		.align	2
 143              	.L10:
 144 0018 00000000 		.word	.LANCHOR1
 145              		.cfi_endproc
 146              	.LFE1:
 147              		.size	DVDAC_1_Enable, .-DVDAC_1_Enable
 148              		.section	.text.DVDAC_1_Start,"ax",%progbits
 149              		.align	2
 150              		.global	DVDAC_1_Start
 151              		.thumb
 152              		.thumb_func
 153              		.type	DVDAC_1_Start, %function
 154              	DVDAC_1_Start:
 155              	.LFB2:
 135:Generated_Source\PSoC5/DVDAC_1.c ****     /* Hardware initiazation only needs to occure the first time */
 156              		.loc 1 135 0
 157              		.cfi_startproc
 158              		@ args = 0, pretend = 0, frame = 0
 159              		@ frame_needed = 0, uses_anonymous_args = 0
 160 0000 70B5     		push	{r4, r5, r6, lr}
 161              		.cfi_def_cfa_offset 16
 162              		.cfi_offset 4, -16
 163              		.cfi_offset 5, -12
ARM GAS  C:\Users\larco\AppData\Local\Temp\ccASqcKS.s 			page 9


 164              		.cfi_offset 6, -8
 165              		.cfi_offset 14, -4
 137:Generated_Source\PSoC5/DVDAC_1.c ****     {
 166              		.loc 1 137 0
 167 0002 1A4C     		ldr	r4, .L18
 168 0004 6378     		ldrb	r3, [r4, #1]	@ zero_extendqisi2
 169 0006 4BB1     		cbz	r3, .L16
 170              	.L13:
 171              	.LBB16:
 172              	.LBB17:
  93:Generated_Source\PSoC5/DVDAC_1.c **** 
 173              		.loc 1 93 0
 174 0008 2078     		ldrb	r0, [r4]	@ zero_extendqisi2
 175 000a 0121     		movs	r1, #1
 176 000c FFF7FEFF 		bl	CyDmaChEnable
 177              	.LVL9:
  96:Generated_Source\PSoC5/DVDAC_1.c ****     #endif /* DVDAC_1_INTERNAL_CLOCK_USED */
 178              		.loc 1 96 0
 179 0010 FFF7FEFF 		bl	DVDAC_1_IntClock_Start
 180              	.LVL10:
 181              	.LBE17:
 182              	.LBE16:
 144:Generated_Source\PSoC5/DVDAC_1.c **** 
 183              		.loc 1 144 0
 184 0014 BDE87040 		pop	{r4, r5, r6, lr}
 185              		.cfi_remember_state
 186              		.cfi_restore 14
 187              		.cfi_restore 6
 188              		.cfi_restore 5
 189              		.cfi_restore 4
 190              		.cfi_def_cfa_offset 0
 191              	.LBB19:
 192              	.LBB18:
  99:Generated_Source\PSoC5/DVDAC_1.c **** }
 193              		.loc 1 99 0
 194 0018 FFF7FEBF 		b	DVDAC_1_VDAC8_Enable
 195              	.LVL11:
 196              	.L16:
 197              		.cfi_restore_state
 198              	.LBE18:
 199              	.LBE19:
 200              	.LBB20:
 201              	.LBB21:
  65:Generated_Source\PSoC5/DVDAC_1.c ****     {
 202              		.loc 1 65 0
 203 001c 144D     		ldr	r5, .L18+4
  63:Generated_Source\PSoC5/DVDAC_1.c **** 
 204              		.loc 1 63 0
 205 001e FFF7FEFF 		bl	DVDAC_1_VDAC8_Init
 206              	.LVL12:
  65:Generated_Source\PSoC5/DVDAC_1.c ****     {
 207              		.loc 1 65 0
 208 0022 2B78     		ldrb	r3, [r5]	@ zero_extendqisi2
 209 0024 FF2B     		cmp	r3, #255
 210 0026 02D0     		beq	.L17
 211              	.L14:
 212              	.LBE21:
ARM GAS  C:\Users\larco\AppData\Local\Temp\ccASqcKS.s 			page 10


 213              	.LBE20:
 140:Generated_Source\PSoC5/DVDAC_1.c ****     }
 214              		.loc 1 140 0
 215 0028 0123     		movs	r3, #1
 216 002a 6370     		strb	r3, [r4, #1]
 217 002c ECE7     		b	.L13
 218              	.L17:
 219              	.LBB25:
 220              	.LBB24:
 221              	.LBB22:
 222              	.LBB23:
 260:Generated_Source\PSoC5/DVDAC_1.c ****                                     DVDAC_1_DMA_BYTES_PER_BURST,
 223              		.loc 1 260 0
 224 002e 0121     		movs	r1, #1
 225 0030 0846     		mov	r0, r1
 226 0032 4FF48043 		mov	r3, #16384
 227 0036 41F6FF72 		movw	r2, #8191
 228 003a FFF7FEFF 		bl	DVDAC_1_DMA_DmaInitialize
 229              	.LVL13:
 266:Generated_Source\PSoC5/DVDAC_1.c **** 
 230              		.loc 1 266 0
 231 003e 2E46     		mov	r6, r5
 260:Generated_Source\PSoC5/DVDAC_1.c ****                                     DVDAC_1_DMA_BYTES_PER_BURST,
 232              		.loc 1 260 0
 233 0040 2070     		strb	r0, [r4]
 266:Generated_Source\PSoC5/DVDAC_1.c **** 
 234              		.loc 1 266 0
 235 0042 FFF7FEFF 		bl	CyDmaTdAllocate
 236              	.LVL14:
 273:Generated_Source\PSoC5/DVDAC_1.c ****                                     DVDAC_1_DITHERED_ARRAY_SIZE,
 237              		.loc 1 273 0
 238 0046 0123     		movs	r3, #1
 266:Generated_Source\PSoC5/DVDAC_1.c **** 
 239              		.loc 1 266 0
 240 0048 06F8040B 		strb	r0, [r6], #4
 241 004c 0246     		mov	r2, r0
 273:Generated_Source\PSoC5/DVDAC_1.c ****                                     DVDAC_1_DITHERED_ARRAY_SIZE,
 242              		.loc 1 273 0
 243 004e 1021     		movs	r1, #16
 244 0050 FFF7FEFF 		bl	CyDmaTdSetConfiguration
 245              	.LVL15:
 279:Generated_Source\PSoC5/DVDAC_1.c ****                                 LO16((uint32)DVDAC_1_ditheredValues),
 246              		.loc 1 279 0
 247 0054 B1B2     		uxth	r1, r6
 248 0056 45F68232 		movw	r2, #23426
 249 005a 2878     		ldrb	r0, [r5]	@ zero_extendqisi2
 250 005c FFF7FEFF 		bl	CyDmaTdSetAddress
 251              	.LVL16:
 252              		.loc 1 283 0
 253 0060 2978     		ldrb	r1, [r5]	@ zero_extendqisi2
 254 0062 2078     		ldrb	r0, [r4]	@ zero_extendqisi2
 255 0064 FFF7FEFF 		bl	CyDmaChSetInitialTd
 256              	.LVL17:
 257 0068 DEE7     		b	.L14
 258              	.L19:
 259 006a 00BF     		.align	2
 260              	.L18:
ARM GAS  C:\Users\larco\AppData\Local\Temp\ccASqcKS.s 			page 11


 261 006c 00000000 		.word	.LANCHOR1
 262 0070 00000000 		.word	.LANCHOR0
 263              	.LBE23:
 264              	.LBE22:
 265              	.LBE24:
 266              	.LBE25:
 267              		.cfi_endproc
 268              	.LFE2:
 269              		.size	DVDAC_1_Start, .-DVDAC_1_Start
 270              		.section	.text.DVDAC_1_Stop,"ax",%progbits
 271              		.align	2
 272              		.global	DVDAC_1_Stop
 273              		.thumb
 274              		.thumb_func
 275              		.type	DVDAC_1_Stop, %function
 276              	DVDAC_1_Stop:
 277              	.LFB3:
 165:Generated_Source\PSoC5/DVDAC_1.c ****     #if(DVDAC_1_INTERNAL_CLOCK_USED)
 278              		.loc 1 165 0
 279              		.cfi_startproc
 280              		@ args = 0, pretend = 0, frame = 0
 281              		@ frame_needed = 0, uses_anonymous_args = 0
 282 0000 08B5     		push	{r3, lr}
 283              		.cfi_def_cfa_offset 8
 284              		.cfi_offset 3, -8
 285              		.cfi_offset 14, -4
 167:Generated_Source\PSoC5/DVDAC_1.c ****     #endif /* DVDAC_1_INTERNAL_CLOCK_USED */
 286              		.loc 1 167 0
 287 0002 FFF7FEFF 		bl	DVDAC_1_IntClock_Stop
 288              	.LVL18:
 170:Generated_Source\PSoC5/DVDAC_1.c ****     DVDAC_1_VDAC8_Stop();
 289              		.loc 1 170 0
 290 0006 044B     		ldr	r3, .L22
 291 0008 1878     		ldrb	r0, [r3]	@ zero_extendqisi2
 292 000a FFF7FEFF 		bl	CyDmaChDisable
 293              	.LVL19:
 172:Generated_Source\PSoC5/DVDAC_1.c **** 
 294              		.loc 1 172 0
 295 000e BDE80840 		pop	{r3, lr}
 296              		.cfi_restore 14
 297              		.cfi_restore 3
 298              		.cfi_def_cfa_offset 0
 171:Generated_Source\PSoC5/DVDAC_1.c **** }
 299              		.loc 1 171 0
 300 0012 FFF7FEBF 		b	DVDAC_1_VDAC8_Stop
 301              	.LVL20:
 302              	.L23:
 303 0016 00BF     		.align	2
 304              	.L22:
 305 0018 00000000 		.word	.LANCHOR1
 306              		.cfi_endproc
 307              	.LFE3:
 308              		.size	DVDAC_1_Stop, .-DVDAC_1_Stop
 309              		.section	.text.DVDAC_1_SetValue,"ax",%progbits
 310              		.align	2
 311              		.global	DVDAC_1_SetValue
 312              		.thumb
ARM GAS  C:\Users\larco\AppData\Local\Temp\ccASqcKS.s 			page 12


 313              		.thumb_func
 314              		.type	DVDAC_1_SetValue, %function
 315              	DVDAC_1_SetValue:
 316              	.LFB4:
 208:Generated_Source\PSoC5/DVDAC_1.c ****     uint8  lowCount  = (uint8)(value & DVDAC_1_FRACTIONAL_PORTION_MASK);
 317              		.loc 1 208 0
 318              		.cfi_startproc
 319              		@ args = 0, pretend = 0, frame = 16
 320              		@ frame_needed = 0, uses_anonymous_args = 0
 321              	.LVL21:
 322 0000 2DE9F04F 		push	{r4, r5, r6, r7, r8, r9, r10, fp, lr}
 323              		.cfi_def_cfa_offset 36
 324              		.cfi_offset 4, -36
 325              		.cfi_offset 5, -32
 326              		.cfi_offset 6, -28
 327              		.cfi_offset 7, -24
 328              		.cfi_offset 8, -20
 329              		.cfi_offset 9, -16
 330              		.cfi_offset 10, -12
 331              		.cfi_offset 11, -8
 332              		.cfi_offset 14, -4
 214:Generated_Source\PSoC5/DVDAC_1.c **** 
 333              		.loc 1 214 0
 334 0004 B0F57F6F 		cmp	r0, #4080
 208:Generated_Source\PSoC5/DVDAC_1.c ****     uint8  lowCount  = (uint8)(value & DVDAC_1_FRACTIONAL_PORTION_MASK);
 335              		.loc 1 208 0
 336 0008 85B0     		sub	sp, sp, #20
 337              		.cfi_def_cfa_offset 56
 208:Generated_Source\PSoC5/DVDAC_1.c ****     uint8  lowCount  = (uint8)(value & DVDAC_1_FRACTIONAL_PORTION_MASK);
 338              		.loc 1 208 0
 339 000a 0546     		mov	r5, r0
 340              	.LVL22:
 210:Generated_Source\PSoC5/DVDAC_1.c ****     uint8 i;
 341              		.loc 1 210 0
 342 000c C0F30714 		ubfx	r4, r0, #4, #8
 343              	.LVL23:
 214:Generated_Source\PSoC5/DVDAC_1.c **** 
 344              		.loc 1 214 0
 345 0010 6DD8     		bhi	.L29
 216:Generated_Source\PSoC5/DVDAC_1.c ****     {
 346              		.loc 1 216 0
 347 0012 FF2C     		cmp	r4, #255
 348 0014 70D0     		beq	.L30
 349              	.LVL24:
 350              	.L26:
 351 0016 05F00F03 		and	r3, r5, #15
 233:Generated_Source\PSoC5/DVDAC_1.c ****             }
 352              		.loc 1 233 0
 353 001a 621C     		adds	r2, r4, #1
 354 001c D2B2     		uxtb	r2, r2
 355 001e C3F11003 		rsb	r3, r3, #16
 356 0022 082B     		cmp	r3, #8
 357 0024 D4BF     		ite	le
 358 0026 1146     		movle	r1, r2
 359 0028 2146     		movgt	r1, r4
 360 002a 092B     		cmp	r3, #9
 361 002c D4BF     		ite	le
ARM GAS  C:\Users\larco\AppData\Local\Temp\ccASqcKS.s 			page 13


 362 002e 1046     		movle	r0, r2
 363 0030 2046     		movgt	r0, r4
 364 0032 0A2B     		cmp	r3, #10
 365 0034 D4BF     		ite	le
 366 0036 1546     		movle	r5, r2
 367 0038 2546     		movgt	r5, r4
 368 003a 0091     		str	r1, [sp]
 369 003c 0B2B     		cmp	r3, #11
 370 003e D4BF     		ite	le
 371 0040 1146     		movle	r1, r2
 372 0042 2146     		movgt	r1, r4
 373 0044 002B     		cmp	r3, #0
 374 0046 D4BF     		ite	le
 375 0048 9346     		movle	fp, r2
 376 004a A346     		movgt	fp, r4
 377 004c 012B     		cmp	r3, #1
 378 004e D4BF     		ite	le
 379 0050 9246     		movle	r10, r2
 380 0052 A246     		movgt	r10, r4
 381 0054 022B     		cmp	r3, #2
 382 0056 D4BF     		ite	le
 383 0058 9146     		movle	r9, r2
 384 005a A146     		movgt	r9, r4
 385 005c 032B     		cmp	r3, #3
 386 005e D4BF     		ite	le
 387 0060 9046     		movle	r8, r2
 388 0062 A046     		movgt	r8, r4
 389 0064 042B     		cmp	r3, #4
 390 0066 D4BF     		ite	le
 391 0068 9446     		movle	ip, r2
 392 006a A446     		movgt	ip, r4
 393 006c 052B     		cmp	r3, #5
 394 006e D4BF     		ite	le
 395 0070 9646     		movle	lr, r2
 396 0072 A646     		movgt	lr, r4
 397 0074 062B     		cmp	r3, #6
 398 0076 D4BF     		ite	le
 399 0078 1746     		movle	r7, r2
 400 007a 2746     		movgt	r7, r4
 401 007c 072B     		cmp	r3, #7
 402 007e D4BF     		ite	le
 403 0080 1646     		movle	r6, r2
 404 0082 2646     		movgt	r6, r4
 405 0084 0190     		str	r0, [sp, #4]
 406 0086 0295     		str	r5, [sp, #8]
 407 0088 0D2B     		cmp	r3, #13
 408 008a D4BF     		ite	le
 409 008c 1046     		movle	r0, r2
 410 008e 2046     		movgt	r0, r4
 411 0090 0C2B     		cmp	r3, #12
 412 0092 D4BF     		ite	le
 413 0094 1546     		movle	r5, r2
 414 0096 2546     		movgt	r5, r4
 415 0098 0391     		str	r1, [sp, #12]
 416 009a 0E2B     		cmp	r3, #14
 417 009c D4BF     		ite	le
 418 009e 1146     		movle	r1, r2
ARM GAS  C:\Users\larco\AppData\Local\Temp\ccASqcKS.s 			page 14


 419 00a0 2146     		movgt	r1, r4
 420 00a2 0F2B     		cmp	r3, #15
 421 00a4 D4BF     		ite	le
 422 00a6 1346     		movle	r3, r2
 423 00a8 2346     		movgt	r3, r4
 424 00aa 184A     		ldr	r2, .L31
 425 00ac 9DF80040 		ldrb	r4, [sp]	@ zero_extendqisi2
 426              	.LVL25:
 427 00b0 82F804B0 		strb	fp, [r2, #4]
 428 00b4 1473     		strb	r4, [r2, #12]
 429 00b6 9DF80440 		ldrb	r4, [sp, #4]	@ zero_extendqisi2
 430 00ba 82F805A0 		strb	r10, [r2, #5]
 431 00be 5473     		strb	r4, [r2, #13]
 432 00c0 9DF80840 		ldrb	r4, [sp, #8]	@ zero_extendqisi2
 433 00c4 82F80690 		strb	r9, [r2, #6]
 434 00c8 9473     		strb	r4, [r2, #14]
 435 00ca 9DF80C40 		ldrb	r4, [sp, #12]	@ zero_extendqisi2
 436 00ce 82F80780 		strb	r8, [r2, #7]
 437 00d2 82F808C0 		strb	ip, [r2, #8]
 438 00d6 82F809E0 		strb	lr, [r2, #9]
 439 00da 9772     		strb	r7, [r2, #10]
 440 00dc D672     		strb	r6, [r2, #11]
 441 00de D473     		strb	r4, [r2, #15]
 442 00e0 1574     		strb	r5, [r2, #16]
 443 00e2 5074     		strb	r0, [r2, #17]
 444 00e4 9174     		strb	r1, [r2, #18]
 445 00e6 D374     		strb	r3, [r2, #19]
 446              	.LVL26:
 237:Generated_Source\PSoC5/DVDAC_1.c **** 
 447              		.loc 1 237 0
 448 00e8 05B0     		add	sp, sp, #20
 449              		.cfi_remember_state
 450              		.cfi_def_cfa_offset 36
 451              		@ sp needed
 452 00ea BDE8F08F 		pop	{r4, r5, r6, r7, r8, r9, r10, fp, pc}
 453              	.LVL27:
 454              	.L29:
 455              		.cfi_restore_state
 214:Generated_Source\PSoC5/DVDAC_1.c **** 
 456              		.loc 1 214 0 discriminator 1
 457 00ee 0020     		movs	r0, #0
 458              	.LVL28:
 459 00f0 FFF7FEFF 		bl	CyHalt
 460              	.LVL29:
 216:Generated_Source\PSoC5/DVDAC_1.c ****     {
 461              		.loc 1 216 0 discriminator 1
 462 00f4 FF2C     		cmp	r4, #255
 463 00f6 8ED1     		bne	.L26
 464              	.L30:
 465 00f8 0449     		ldr	r1, .L31
 466 00fa 4FF0FF33 		mov	r3, #-1
 467 00fe 4B60     		str	r3, [r1, #4]
 468 0100 8B60     		str	r3, [r1, #8]
 469 0102 CB60     		str	r3, [r1, #12]
 470 0104 0B61     		str	r3, [r1, #16]
 237:Generated_Source\PSoC5/DVDAC_1.c **** 
 471              		.loc 1 237 0 discriminator 3
ARM GAS  C:\Users\larco\AppData\Local\Temp\ccASqcKS.s 			page 15


 472 0106 05B0     		add	sp, sp, #20
 473              		.cfi_def_cfa_offset 36
 474              		@ sp needed
 475 0108 BDE8F08F 		pop	{r4, r5, r6, r7, r8, r9, r10, fp, pc}
 476              	.LVL30:
 477              	.L32:
 478              		.align	2
 479              	.L31:
 480 010c 00000000 		.word	.LANCHOR0
 481              		.cfi_endproc
 482              	.LFE4:
 483              		.size	DVDAC_1_SetValue, .-DVDAC_1_SetValue
 484              		.global	DVDAC_1_initVar
 485              		.data
 486              		.align	2
 487              		.set	.LANCHOR0,. + 0
 488              		.type	DVDAC_1_dmaTd, %object
 489              		.size	DVDAC_1_dmaTd, 1
 490              	DVDAC_1_dmaTd:
 491 0000 FF       		.byte	-1
 492 0001 000000   		.space	3
 493              		.type	DVDAC_1_ditheredValues, %object
 494              		.size	DVDAC_1_ditheredValues, 16
 495              	DVDAC_1_ditheredValues:
 496 0004 80       		.byte	-128
 497 0005 80       		.byte	-128
 498 0006 80       		.byte	-128
 499 0007 80       		.byte	-128
 500 0008 80       		.byte	-128
 501 0009 80       		.byte	-128
 502 000a 80       		.byte	-128
 503 000b 80       		.byte	-128
 504 000c 80       		.byte	-128
 505 000d 80       		.byte	-128
 506 000e 80       		.byte	-128
 507 000f 80       		.byte	-128
 508 0010 80       		.byte	-128
 509 0011 80       		.byte	-128
 510 0012 80       		.byte	-128
 511 0013 80       		.byte	-128
 512              		.bss
 513              		.set	.LANCHOR1,. + 0
 514              		.type	DVDAC_1_dmaChan, %object
 515              		.size	DVDAC_1_dmaChan, 1
 516              	DVDAC_1_dmaChan:
 517 0000 00       		.space	1
 518              		.type	DVDAC_1_initVar, %object
 519              		.size	DVDAC_1_initVar, 1
 520              	DVDAC_1_initVar:
 521 0001 00       		.space	1
 522              		.text
 523              	.Letext0:
 524              		.file 2 "Generated_Source\\PSoC5\\cytypes.h"
 525              		.file 3 "Generated_Source\\PSoC5\\DVDAC_1_DMA_dma.H"
 526              		.file 4 "Generated_Source\\PSoC5\\CyDmac.h"
 527              		.file 5 "Generated_Source\\PSoC5\\DVDAC_1_VDAC8.h"
 528              		.file 6 "Generated_Source\\PSoC5\\DVDAC_1_IntClock.h"
ARM GAS  C:\Users\larco\AppData\Local\Temp\ccASqcKS.s 			page 16


 529              		.file 7 "Generated_Source\\PSoC5\\CyLib.h"