ARM GAS  C:\Users\larco\AppData\Local\Temp\ccREDzUf.s 			page 1


   1              		.syntax unified
   2              		.cpu cortex-m3
   3              		.fpu softvfp
   4              		.eabi_attribute 20, 1
   5              		.eabi_attribute 21, 1
   6              		.eabi_attribute 23, 3
   7              		.eabi_attribute 24, 1
   8              		.eabi_attribute 25, 1
   9              		.eabi_attribute 26, 1
  10              		.eabi_attribute 30, 2
  11              		.eabi_attribute 34, 1
  12              		.eabi_attribute 18, 4
  13              		.thumb
  14              		.syntax unified
  15              		.file	"DVDAC_1_VDAC8.c"
  16              		.text
  17              	.Ltext0:
  18              		.cfi_sections	.debug_frame
  19              		.section	.text.DVDAC_1_VDAC8_Init,"ax",%progbits
  20              		.align	2
  21              		.global	DVDAC_1_VDAC8_Init
  22              		.thumb
  23              		.thumb_func
  24              		.type	DVDAC_1_VDAC8_Init, %function
  25              	DVDAC_1_VDAC8_Init:
  26              	.LFB0:
  27              		.file 1 "Generated_Source\\PSoC5\\DVDAC_1_VDAC8.c"
   1:Generated_Source\PSoC5/DVDAC_1_VDAC8.c **** /*******************************************************************************
   2:Generated_Source\PSoC5/DVDAC_1_VDAC8.c **** * File Name: DVDAC_1_VDAC8.c  
   3:Generated_Source\PSoC5/DVDAC_1_VDAC8.c **** * Version 1.90
   4:Generated_Source\PSoC5/DVDAC_1_VDAC8.c **** *
   5:Generated_Source\PSoC5/DVDAC_1_VDAC8.c **** * Description:
   6:Generated_Source\PSoC5/DVDAC_1_VDAC8.c **** *  This file provides the source code to the API for the 8-bit Voltage DAC 
   7:Generated_Source\PSoC5/DVDAC_1_VDAC8.c **** *  (VDAC8) User Module.
   8:Generated_Source\PSoC5/DVDAC_1_VDAC8.c **** *
   9:Generated_Source\PSoC5/DVDAC_1_VDAC8.c **** * Note:
  10:Generated_Source\PSoC5/DVDAC_1_VDAC8.c **** *  Any unusual or non-standard behavior should be noted here. Other-
  11:Generated_Source\PSoC5/DVDAC_1_VDAC8.c **** *  wise, this section should remain blank.
  12:Generated_Source\PSoC5/DVDAC_1_VDAC8.c **** *
  13:Generated_Source\PSoC5/DVDAC_1_VDAC8.c **** ********************************************************************************
  14:Generated_Source\PSoC5/DVDAC_1_VDAC8.c **** * Copyright 2008-2012, Cypress Semiconductor Corporation.  All rights reserved.
  15:Generated_Source\PSoC5/DVDAC_1_VDAC8.c **** * You may use this file only in accordance with the license, terms, conditions, 
  16:Generated_Source\PSoC5/DVDAC_1_VDAC8.c **** * disclaimers, and limitations in the end user license agreement accompanying 
  17:Generated_Source\PSoC5/DVDAC_1_VDAC8.c **** * the software package with which this file was provided.
  18:Generated_Source\PSoC5/DVDAC_1_VDAC8.c **** *******************************************************************************/
  19:Generated_Source\PSoC5/DVDAC_1_VDAC8.c **** 
  20:Generated_Source\PSoC5/DVDAC_1_VDAC8.c **** #include "cytypes.h"
  21:Generated_Source\PSoC5/DVDAC_1_VDAC8.c **** #include "DVDAC_1_VDAC8.h"
  22:Generated_Source\PSoC5/DVDAC_1_VDAC8.c **** 
  23:Generated_Source\PSoC5/DVDAC_1_VDAC8.c **** #if (CY_PSOC5A)
  24:Generated_Source\PSoC5/DVDAC_1_VDAC8.c **** #include <CyLib.h>
  25:Generated_Source\PSoC5/DVDAC_1_VDAC8.c **** #endif /* CY_PSOC5A */
  26:Generated_Source\PSoC5/DVDAC_1_VDAC8.c **** 
  27:Generated_Source\PSoC5/DVDAC_1_VDAC8.c **** uint8 DVDAC_1_VDAC8_initVar = 0u;
  28:Generated_Source\PSoC5/DVDAC_1_VDAC8.c **** 
  29:Generated_Source\PSoC5/DVDAC_1_VDAC8.c **** #if (CY_PSOC5A)
  30:Generated_Source\PSoC5/DVDAC_1_VDAC8.c ****     static uint8 DVDAC_1_VDAC8_restoreVal = 0u;
ARM GAS  C:\Users\larco\AppData\Local\Temp\ccREDzUf.s 			page 2


  31:Generated_Source\PSoC5/DVDAC_1_VDAC8.c **** #endif /* CY_PSOC5A */
  32:Generated_Source\PSoC5/DVDAC_1_VDAC8.c **** 
  33:Generated_Source\PSoC5/DVDAC_1_VDAC8.c **** #if (CY_PSOC5A)
  34:Generated_Source\PSoC5/DVDAC_1_VDAC8.c ****     static DVDAC_1_VDAC8_backupStruct DVDAC_1_VDAC8_backup;
  35:Generated_Source\PSoC5/DVDAC_1_VDAC8.c **** #endif /* CY_PSOC5A */
  36:Generated_Source\PSoC5/DVDAC_1_VDAC8.c **** 
  37:Generated_Source\PSoC5/DVDAC_1_VDAC8.c **** 
  38:Generated_Source\PSoC5/DVDAC_1_VDAC8.c **** /*******************************************************************************
  39:Generated_Source\PSoC5/DVDAC_1_VDAC8.c **** * Function Name: DVDAC_1_VDAC8_Init
  40:Generated_Source\PSoC5/DVDAC_1_VDAC8.c **** ********************************************************************************
  41:Generated_Source\PSoC5/DVDAC_1_VDAC8.c **** * Summary:
  42:Generated_Source\PSoC5/DVDAC_1_VDAC8.c **** *  Initialize to the schematic state.
  43:Generated_Source\PSoC5/DVDAC_1_VDAC8.c **** * 
  44:Generated_Source\PSoC5/DVDAC_1_VDAC8.c **** * Parameters:
  45:Generated_Source\PSoC5/DVDAC_1_VDAC8.c **** *  void:
  46:Generated_Source\PSoC5/DVDAC_1_VDAC8.c **** *
  47:Generated_Source\PSoC5/DVDAC_1_VDAC8.c **** * Return:
  48:Generated_Source\PSoC5/DVDAC_1_VDAC8.c **** *  void
  49:Generated_Source\PSoC5/DVDAC_1_VDAC8.c **** *
  50:Generated_Source\PSoC5/DVDAC_1_VDAC8.c **** * Theory:
  51:Generated_Source\PSoC5/DVDAC_1_VDAC8.c **** *
  52:Generated_Source\PSoC5/DVDAC_1_VDAC8.c **** * Side Effects:
  53:Generated_Source\PSoC5/DVDAC_1_VDAC8.c **** *
  54:Generated_Source\PSoC5/DVDAC_1_VDAC8.c **** *******************************************************************************/
  55:Generated_Source\PSoC5/DVDAC_1_VDAC8.c **** void DVDAC_1_VDAC8_Init(void) 
  56:Generated_Source\PSoC5/DVDAC_1_VDAC8.c **** {
  28              		.loc 1 56 0
  29              		.cfi_startproc
  30              		@ args = 0, pretend = 0, frame = 0
  31              		@ frame_needed = 0, uses_anonymous_args = 0
  32              		@ link register save eliminated.
  57:Generated_Source\PSoC5/DVDAC_1_VDAC8.c ****     DVDAC_1_VDAC8_CR0 = (DVDAC_1_VDAC8_MODE_V );
  33              		.loc 1 57 0
  34 0000 134B     		ldr	r3, .L2
  58:Generated_Source\PSoC5/DVDAC_1_VDAC8.c **** 
  59:Generated_Source\PSoC5/DVDAC_1_VDAC8.c ****     /* Set default data source */
  60:Generated_Source\PSoC5/DVDAC_1_VDAC8.c ****     #if(DVDAC_1_VDAC8_DEFAULT_DATA_SRC != 0 )
  61:Generated_Source\PSoC5/DVDAC_1_VDAC8.c ****         DVDAC_1_VDAC8_CR1 = (DVDAC_1_VDAC8_DEFAULT_CNTL | DVDAC_1_VDAC8_DACBUS_ENABLE) ;
  62:Generated_Source\PSoC5/DVDAC_1_VDAC8.c ****     #else
  63:Generated_Source\PSoC5/DVDAC_1_VDAC8.c ****         DVDAC_1_VDAC8_CR1 = (DVDAC_1_VDAC8_DEFAULT_CNTL | DVDAC_1_VDAC8_DACBUS_DISABLE) ;
  35              		.loc 1 63 0
  36 0002 1448     		ldr	r0, .L2+4
  57:Generated_Source\PSoC5/DVDAC_1_VDAC8.c ****     DVDAC_1_VDAC8_CR0 = (DVDAC_1_VDAC8_MODE_V );
  37              		.loc 1 57 0
  38 0004 0022     		movs	r2, #0
  64:Generated_Source\PSoC5/DVDAC_1_VDAC8.c ****     #endif /* (DVDAC_1_VDAC8_DEFAULT_DATA_SRC != 0 ) */
  65:Generated_Source\PSoC5/DVDAC_1_VDAC8.c **** 
  66:Generated_Source\PSoC5/DVDAC_1_VDAC8.c ****     /* Set default strobe mode */
  67:Generated_Source\PSoC5/DVDAC_1_VDAC8.c ****     #if(DVDAC_1_VDAC8_DEFAULT_STRB != 0)
  68:Generated_Source\PSoC5/DVDAC_1_VDAC8.c ****         DVDAC_1_VDAC8_Strobe |= DVDAC_1_VDAC8_STRB_EN ;
  39              		.loc 1 68 0
  40 0006 1449     		ldr	r1, .L2+8
  57:Generated_Source\PSoC5/DVDAC_1_VDAC8.c **** 
  41              		.loc 1 57 0
  42 0008 1A70     		strb	r2, [r3]
  63:Generated_Source\PSoC5/DVDAC_1_VDAC8.c ****     #endif /* (DVDAC_1_VDAC8_DEFAULT_DATA_SRC != 0 ) */
  43              		.loc 1 63 0
ARM GAS  C:\Users\larco\AppData\Local\Temp\ccREDzUf.s 			page 3


  44 000a 0270     		strb	r2, [r0]
  45              		.loc 1 68 0
  46 000c 0A78     		ldrb	r2, [r1]	@ zero_extendqisi2
  47              	.LBB20:
  48              	.LBB21:
  49              	.LBB22:
  50              	.LBB23:
  69:Generated_Source\PSoC5/DVDAC_1_VDAC8.c ****     #endif/* (DVDAC_1_VDAC8_DEFAULT_STRB != 0) */
  70:Generated_Source\PSoC5/DVDAC_1_VDAC8.c **** 
  71:Generated_Source\PSoC5/DVDAC_1_VDAC8.c ****     /* Set default range */
  72:Generated_Source\PSoC5/DVDAC_1_VDAC8.c ****     DVDAC_1_VDAC8_SetRange(DVDAC_1_VDAC8_DEFAULT_RANGE); 
  73:Generated_Source\PSoC5/DVDAC_1_VDAC8.c **** 
  74:Generated_Source\PSoC5/DVDAC_1_VDAC8.c ****     /* Set default speed */
  75:Generated_Source\PSoC5/DVDAC_1_VDAC8.c ****     DVDAC_1_VDAC8_SetSpeed(DVDAC_1_VDAC8_DEFAULT_SPEED);
  76:Generated_Source\PSoC5/DVDAC_1_VDAC8.c **** }
  77:Generated_Source\PSoC5/DVDAC_1_VDAC8.c **** 
  78:Generated_Source\PSoC5/DVDAC_1_VDAC8.c **** 
  79:Generated_Source\PSoC5/DVDAC_1_VDAC8.c **** /*******************************************************************************
  80:Generated_Source\PSoC5/DVDAC_1_VDAC8.c **** * Function Name: DVDAC_1_VDAC8_Enable
  81:Generated_Source\PSoC5/DVDAC_1_VDAC8.c **** ********************************************************************************
  82:Generated_Source\PSoC5/DVDAC_1_VDAC8.c **** * Summary:
  83:Generated_Source\PSoC5/DVDAC_1_VDAC8.c **** *  Enable the VDAC8
  84:Generated_Source\PSoC5/DVDAC_1_VDAC8.c **** * 
  85:Generated_Source\PSoC5/DVDAC_1_VDAC8.c **** * Parameters:
  86:Generated_Source\PSoC5/DVDAC_1_VDAC8.c **** *  void
  87:Generated_Source\PSoC5/DVDAC_1_VDAC8.c **** *
  88:Generated_Source\PSoC5/DVDAC_1_VDAC8.c **** * Return:
  89:Generated_Source\PSoC5/DVDAC_1_VDAC8.c **** *  void
  90:Generated_Source\PSoC5/DVDAC_1_VDAC8.c **** *
  91:Generated_Source\PSoC5/DVDAC_1_VDAC8.c **** * Theory:
  92:Generated_Source\PSoC5/DVDAC_1_VDAC8.c **** *
  93:Generated_Source\PSoC5/DVDAC_1_VDAC8.c **** * Side Effects:
  94:Generated_Source\PSoC5/DVDAC_1_VDAC8.c **** *
  95:Generated_Source\PSoC5/DVDAC_1_VDAC8.c **** *******************************************************************************/
  96:Generated_Source\PSoC5/DVDAC_1_VDAC8.c **** void DVDAC_1_VDAC8_Enable(void) 
  97:Generated_Source\PSoC5/DVDAC_1_VDAC8.c **** {
  98:Generated_Source\PSoC5/DVDAC_1_VDAC8.c ****     DVDAC_1_VDAC8_PWRMGR |= DVDAC_1_VDAC8_ACT_PWR_EN;
  99:Generated_Source\PSoC5/DVDAC_1_VDAC8.c ****     DVDAC_1_VDAC8_STBY_PWRMGR |= DVDAC_1_VDAC8_STBY_PWR_EN;
 100:Generated_Source\PSoC5/DVDAC_1_VDAC8.c **** 
 101:Generated_Source\PSoC5/DVDAC_1_VDAC8.c ****     /*This is to restore the value of register CR0 ,
 102:Generated_Source\PSoC5/DVDAC_1_VDAC8.c ****     which is modified  in Stop API , this prevents misbehaviour of VDAC */
 103:Generated_Source\PSoC5/DVDAC_1_VDAC8.c ****     #if (CY_PSOC5A)
 104:Generated_Source\PSoC5/DVDAC_1_VDAC8.c ****         if(DVDAC_1_VDAC8_restoreVal == 1u) 
 105:Generated_Source\PSoC5/DVDAC_1_VDAC8.c ****         {
 106:Generated_Source\PSoC5/DVDAC_1_VDAC8.c ****              DVDAC_1_VDAC8_CR0 = DVDAC_1_VDAC8_backup.data_value;
 107:Generated_Source\PSoC5/DVDAC_1_VDAC8.c ****              DVDAC_1_VDAC8_restoreVal = 0u;
 108:Generated_Source\PSoC5/DVDAC_1_VDAC8.c ****         }
 109:Generated_Source\PSoC5/DVDAC_1_VDAC8.c ****     #endif /* CY_PSOC5A */
 110:Generated_Source\PSoC5/DVDAC_1_VDAC8.c **** }
 111:Generated_Source\PSoC5/DVDAC_1_VDAC8.c **** 
 112:Generated_Source\PSoC5/DVDAC_1_VDAC8.c **** 
 113:Generated_Source\PSoC5/DVDAC_1_VDAC8.c **** /*******************************************************************************
 114:Generated_Source\PSoC5/DVDAC_1_VDAC8.c **** * Function Name: DVDAC_1_VDAC8_Start
 115:Generated_Source\PSoC5/DVDAC_1_VDAC8.c **** ********************************************************************************
 116:Generated_Source\PSoC5/DVDAC_1_VDAC8.c **** *
 117:Generated_Source\PSoC5/DVDAC_1_VDAC8.c **** * Summary:
 118:Generated_Source\PSoC5/DVDAC_1_VDAC8.c **** *  The start function initializes the voltage DAC with the default values, 
ARM GAS  C:\Users\larco\AppData\Local\Temp\ccREDzUf.s 			page 4


 119:Generated_Source\PSoC5/DVDAC_1_VDAC8.c **** *  and sets the power to the given level.  A power level of 0, is the same as
 120:Generated_Source\PSoC5/DVDAC_1_VDAC8.c **** *  executing the stop function.
 121:Generated_Source\PSoC5/DVDAC_1_VDAC8.c **** *
 122:Generated_Source\PSoC5/DVDAC_1_VDAC8.c **** * Parameters:
 123:Generated_Source\PSoC5/DVDAC_1_VDAC8.c **** *  Power: Sets power level between off (0) and (3) high power
 124:Generated_Source\PSoC5/DVDAC_1_VDAC8.c **** *
 125:Generated_Source\PSoC5/DVDAC_1_VDAC8.c **** * Return:
 126:Generated_Source\PSoC5/DVDAC_1_VDAC8.c **** *  void 
 127:Generated_Source\PSoC5/DVDAC_1_VDAC8.c **** *
 128:Generated_Source\PSoC5/DVDAC_1_VDAC8.c **** * Global variables:
 129:Generated_Source\PSoC5/DVDAC_1_VDAC8.c **** *  DVDAC_1_VDAC8_initVar: Is modified when this function is called for the 
 130:Generated_Source\PSoC5/DVDAC_1_VDAC8.c **** *  first time. Is used to ensure that initialization happens only once.
 131:Generated_Source\PSoC5/DVDAC_1_VDAC8.c **** *
 132:Generated_Source\PSoC5/DVDAC_1_VDAC8.c **** *******************************************************************************/
 133:Generated_Source\PSoC5/DVDAC_1_VDAC8.c **** void DVDAC_1_VDAC8_Start(void)  
 134:Generated_Source\PSoC5/DVDAC_1_VDAC8.c **** {
 135:Generated_Source\PSoC5/DVDAC_1_VDAC8.c ****     /* Hardware initiazation only needs to occure the first time */
 136:Generated_Source\PSoC5/DVDAC_1_VDAC8.c ****     if(DVDAC_1_VDAC8_initVar == 0u)
 137:Generated_Source\PSoC5/DVDAC_1_VDAC8.c ****     { 
 138:Generated_Source\PSoC5/DVDAC_1_VDAC8.c ****         DVDAC_1_VDAC8_Init();
 139:Generated_Source\PSoC5/DVDAC_1_VDAC8.c ****         DVDAC_1_VDAC8_initVar = 1u;
 140:Generated_Source\PSoC5/DVDAC_1_VDAC8.c ****     }
 141:Generated_Source\PSoC5/DVDAC_1_VDAC8.c **** 
 142:Generated_Source\PSoC5/DVDAC_1_VDAC8.c ****     /* Enable power to DAC */
 143:Generated_Source\PSoC5/DVDAC_1_VDAC8.c ****     DVDAC_1_VDAC8_Enable();
 144:Generated_Source\PSoC5/DVDAC_1_VDAC8.c **** 
 145:Generated_Source\PSoC5/DVDAC_1_VDAC8.c ****     /* Set default value */
 146:Generated_Source\PSoC5/DVDAC_1_VDAC8.c ****     DVDAC_1_VDAC8_SetValue(DVDAC_1_VDAC8_DEFAULT_DATA); 
 147:Generated_Source\PSoC5/DVDAC_1_VDAC8.c **** }
 148:Generated_Source\PSoC5/DVDAC_1_VDAC8.c **** 
 149:Generated_Source\PSoC5/DVDAC_1_VDAC8.c **** 
 150:Generated_Source\PSoC5/DVDAC_1_VDAC8.c **** /*******************************************************************************
 151:Generated_Source\PSoC5/DVDAC_1_VDAC8.c **** * Function Name: DVDAC_1_VDAC8_Stop
 152:Generated_Source\PSoC5/DVDAC_1_VDAC8.c **** ********************************************************************************
 153:Generated_Source\PSoC5/DVDAC_1_VDAC8.c **** *
 154:Generated_Source\PSoC5/DVDAC_1_VDAC8.c **** * Summary:
 155:Generated_Source\PSoC5/DVDAC_1_VDAC8.c **** *  Powers down DAC to lowest power state.
 156:Generated_Source\PSoC5/DVDAC_1_VDAC8.c **** *
 157:Generated_Source\PSoC5/DVDAC_1_VDAC8.c **** * Parameters:
 158:Generated_Source\PSoC5/DVDAC_1_VDAC8.c **** *  void
 159:Generated_Source\PSoC5/DVDAC_1_VDAC8.c **** *
 160:Generated_Source\PSoC5/DVDAC_1_VDAC8.c **** * Return:
 161:Generated_Source\PSoC5/DVDAC_1_VDAC8.c **** *  void
 162:Generated_Source\PSoC5/DVDAC_1_VDAC8.c **** *
 163:Generated_Source\PSoC5/DVDAC_1_VDAC8.c **** * Theory:
 164:Generated_Source\PSoC5/DVDAC_1_VDAC8.c **** *
 165:Generated_Source\PSoC5/DVDAC_1_VDAC8.c **** * Side Effects:
 166:Generated_Source\PSoC5/DVDAC_1_VDAC8.c **** *
 167:Generated_Source\PSoC5/DVDAC_1_VDAC8.c **** *******************************************************************************/
 168:Generated_Source\PSoC5/DVDAC_1_VDAC8.c **** void DVDAC_1_VDAC8_Stop(void) 
 169:Generated_Source\PSoC5/DVDAC_1_VDAC8.c **** {
 170:Generated_Source\PSoC5/DVDAC_1_VDAC8.c ****     /* Disble power to DAC */
 171:Generated_Source\PSoC5/DVDAC_1_VDAC8.c ****     DVDAC_1_VDAC8_PWRMGR &= (uint8)(~DVDAC_1_VDAC8_ACT_PWR_EN);
 172:Generated_Source\PSoC5/DVDAC_1_VDAC8.c ****     DVDAC_1_VDAC8_STBY_PWRMGR &= (uint8)(~DVDAC_1_VDAC8_STBY_PWR_EN);
 173:Generated_Source\PSoC5/DVDAC_1_VDAC8.c **** 
 174:Generated_Source\PSoC5/DVDAC_1_VDAC8.c ****     /* This is a work around for PSoC5A  ,
 175:Generated_Source\PSoC5/DVDAC_1_VDAC8.c ****     this sets VDAC to current mode with output off */
ARM GAS  C:\Users\larco\AppData\Local\Temp\ccREDzUf.s 			page 5


 176:Generated_Source\PSoC5/DVDAC_1_VDAC8.c ****     #if (CY_PSOC5A)
 177:Generated_Source\PSoC5/DVDAC_1_VDAC8.c ****         DVDAC_1_VDAC8_backup.data_value = DVDAC_1_VDAC8_CR0;
 178:Generated_Source\PSoC5/DVDAC_1_VDAC8.c ****         DVDAC_1_VDAC8_CR0 = DVDAC_1_VDAC8_CUR_MODE_OUT_OFF;
 179:Generated_Source\PSoC5/DVDAC_1_VDAC8.c ****         DVDAC_1_VDAC8_restoreVal = 1u;
 180:Generated_Source\PSoC5/DVDAC_1_VDAC8.c ****     #endif /* CY_PSOC5A */
 181:Generated_Source\PSoC5/DVDAC_1_VDAC8.c **** }
 182:Generated_Source\PSoC5/DVDAC_1_VDAC8.c **** 
 183:Generated_Source\PSoC5/DVDAC_1_VDAC8.c **** 
 184:Generated_Source\PSoC5/DVDAC_1_VDAC8.c **** /*******************************************************************************
 185:Generated_Source\PSoC5/DVDAC_1_VDAC8.c **** * Function Name: DVDAC_1_VDAC8_SetSpeed
 186:Generated_Source\PSoC5/DVDAC_1_VDAC8.c **** ********************************************************************************
 187:Generated_Source\PSoC5/DVDAC_1_VDAC8.c **** *
 188:Generated_Source\PSoC5/DVDAC_1_VDAC8.c **** * Summary:
 189:Generated_Source\PSoC5/DVDAC_1_VDAC8.c **** *  Set DAC speed
 190:Generated_Source\PSoC5/DVDAC_1_VDAC8.c **** *
 191:Generated_Source\PSoC5/DVDAC_1_VDAC8.c **** * Parameters:
 192:Generated_Source\PSoC5/DVDAC_1_VDAC8.c **** *  power: Sets speed value
 193:Generated_Source\PSoC5/DVDAC_1_VDAC8.c **** *
 194:Generated_Source\PSoC5/DVDAC_1_VDAC8.c **** * Return:
 195:Generated_Source\PSoC5/DVDAC_1_VDAC8.c **** *  void
 196:Generated_Source\PSoC5/DVDAC_1_VDAC8.c **** *
 197:Generated_Source\PSoC5/DVDAC_1_VDAC8.c **** * Theory:
 198:Generated_Source\PSoC5/DVDAC_1_VDAC8.c **** *
 199:Generated_Source\PSoC5/DVDAC_1_VDAC8.c **** * Side Effects:
 200:Generated_Source\PSoC5/DVDAC_1_VDAC8.c **** *
 201:Generated_Source\PSoC5/DVDAC_1_VDAC8.c **** *******************************************************************************/
 202:Generated_Source\PSoC5/DVDAC_1_VDAC8.c **** void DVDAC_1_VDAC8_SetSpeed(uint8 speed) 
 203:Generated_Source\PSoC5/DVDAC_1_VDAC8.c **** {
 204:Generated_Source\PSoC5/DVDAC_1_VDAC8.c ****     /* Clear power mask then write in new value */
 205:Generated_Source\PSoC5/DVDAC_1_VDAC8.c ****     DVDAC_1_VDAC8_CR0 &= (uint8)(~DVDAC_1_VDAC8_HS_MASK);
 206:Generated_Source\PSoC5/DVDAC_1_VDAC8.c ****     DVDAC_1_VDAC8_CR0 |=  (speed & DVDAC_1_VDAC8_HS_MASK);
 207:Generated_Source\PSoC5/DVDAC_1_VDAC8.c **** }
 208:Generated_Source\PSoC5/DVDAC_1_VDAC8.c **** 
 209:Generated_Source\PSoC5/DVDAC_1_VDAC8.c **** 
 210:Generated_Source\PSoC5/DVDAC_1_VDAC8.c **** /*******************************************************************************
 211:Generated_Source\PSoC5/DVDAC_1_VDAC8.c **** * Function Name: DVDAC_1_VDAC8_SetRange
 212:Generated_Source\PSoC5/DVDAC_1_VDAC8.c **** ********************************************************************************
 213:Generated_Source\PSoC5/DVDAC_1_VDAC8.c **** *
 214:Generated_Source\PSoC5/DVDAC_1_VDAC8.c **** * Summary:
 215:Generated_Source\PSoC5/DVDAC_1_VDAC8.c **** *  Set one of three current ranges.
 216:Generated_Source\PSoC5/DVDAC_1_VDAC8.c **** *
 217:Generated_Source\PSoC5/DVDAC_1_VDAC8.c **** * Parameters:
 218:Generated_Source\PSoC5/DVDAC_1_VDAC8.c **** *  Range: Sets one of Three valid ranges.
 219:Generated_Source\PSoC5/DVDAC_1_VDAC8.c **** *
 220:Generated_Source\PSoC5/DVDAC_1_VDAC8.c **** * Return:
 221:Generated_Source\PSoC5/DVDAC_1_VDAC8.c **** *  void 
 222:Generated_Source\PSoC5/DVDAC_1_VDAC8.c **** *
 223:Generated_Source\PSoC5/DVDAC_1_VDAC8.c **** * Theory:
 224:Generated_Source\PSoC5/DVDAC_1_VDAC8.c **** *
 225:Generated_Source\PSoC5/DVDAC_1_VDAC8.c **** * Side Effects:
 226:Generated_Source\PSoC5/DVDAC_1_VDAC8.c **** *
 227:Generated_Source\PSoC5/DVDAC_1_VDAC8.c **** *******************************************************************************/
 228:Generated_Source\PSoC5/DVDAC_1_VDAC8.c **** void DVDAC_1_VDAC8_SetRange(uint8 range) 
 229:Generated_Source\PSoC5/DVDAC_1_VDAC8.c **** {
 230:Generated_Source\PSoC5/DVDAC_1_VDAC8.c ****     DVDAC_1_VDAC8_CR0 &= (uint8)(~DVDAC_1_VDAC8_RANGE_MASK);      /* Clear existing mode */
 231:Generated_Source\PSoC5/DVDAC_1_VDAC8.c ****     DVDAC_1_VDAC8_CR0 |= (range & DVDAC_1_VDAC8_RANGE_MASK);      /*  Set Range  */
 232:Generated_Source\PSoC5/DVDAC_1_VDAC8.c ****     DVDAC_1_VDAC8_DacTrim();
ARM GAS  C:\Users\larco\AppData\Local\Temp\ccREDzUf.s 			page 6


 233:Generated_Source\PSoC5/DVDAC_1_VDAC8.c **** }
 234:Generated_Source\PSoC5/DVDAC_1_VDAC8.c **** 
 235:Generated_Source\PSoC5/DVDAC_1_VDAC8.c **** 
 236:Generated_Source\PSoC5/DVDAC_1_VDAC8.c **** /*******************************************************************************
 237:Generated_Source\PSoC5/DVDAC_1_VDAC8.c **** * Function Name: DVDAC_1_VDAC8_SetValue
 238:Generated_Source\PSoC5/DVDAC_1_VDAC8.c **** ********************************************************************************
 239:Generated_Source\PSoC5/DVDAC_1_VDAC8.c **** *
 240:Generated_Source\PSoC5/DVDAC_1_VDAC8.c **** * Summary:
 241:Generated_Source\PSoC5/DVDAC_1_VDAC8.c **** *  Set 8-bit DAC value
 242:Generated_Source\PSoC5/DVDAC_1_VDAC8.c **** *
 243:Generated_Source\PSoC5/DVDAC_1_VDAC8.c **** * Parameters:  
 244:Generated_Source\PSoC5/DVDAC_1_VDAC8.c **** *  value:  Sets DAC value between 0 and 255.
 245:Generated_Source\PSoC5/DVDAC_1_VDAC8.c **** *
 246:Generated_Source\PSoC5/DVDAC_1_VDAC8.c **** * Return: 
 247:Generated_Source\PSoC5/DVDAC_1_VDAC8.c **** *  void 
 248:Generated_Source\PSoC5/DVDAC_1_VDAC8.c **** *
 249:Generated_Source\PSoC5/DVDAC_1_VDAC8.c **** * Theory: 
 250:Generated_Source\PSoC5/DVDAC_1_VDAC8.c **** *
 251:Generated_Source\PSoC5/DVDAC_1_VDAC8.c **** * Side Effects:
 252:Generated_Source\PSoC5/DVDAC_1_VDAC8.c **** *
 253:Generated_Source\PSoC5/DVDAC_1_VDAC8.c **** *******************************************************************************/
 254:Generated_Source\PSoC5/DVDAC_1_VDAC8.c **** void DVDAC_1_VDAC8_SetValue(uint8 value) 
 255:Generated_Source\PSoC5/DVDAC_1_VDAC8.c **** {
 256:Generated_Source\PSoC5/DVDAC_1_VDAC8.c ****     #if (CY_PSOC5A)
 257:Generated_Source\PSoC5/DVDAC_1_VDAC8.c ****         uint8 DVDAC_1_VDAC8_intrStatus = CyEnterCriticalSection();
 258:Generated_Source\PSoC5/DVDAC_1_VDAC8.c ****     #endif /* CY_PSOC5A */
 259:Generated_Source\PSoC5/DVDAC_1_VDAC8.c **** 
 260:Generated_Source\PSoC5/DVDAC_1_VDAC8.c ****     DVDAC_1_VDAC8_Data = value;                /*  Set Value  */
 261:Generated_Source\PSoC5/DVDAC_1_VDAC8.c **** 
 262:Generated_Source\PSoC5/DVDAC_1_VDAC8.c ****     /* PSOC5A requires a double write */
 263:Generated_Source\PSoC5/DVDAC_1_VDAC8.c ****     /* Exit Critical Section */
 264:Generated_Source\PSoC5/DVDAC_1_VDAC8.c ****     #if (CY_PSOC5A)
 265:Generated_Source\PSoC5/DVDAC_1_VDAC8.c ****         DVDAC_1_VDAC8_Data = value;
 266:Generated_Source\PSoC5/DVDAC_1_VDAC8.c ****         CyExitCriticalSection(DVDAC_1_VDAC8_intrStatus);
 267:Generated_Source\PSoC5/DVDAC_1_VDAC8.c ****     #endif /* CY_PSOC5A */
 268:Generated_Source\PSoC5/DVDAC_1_VDAC8.c **** }
 269:Generated_Source\PSoC5/DVDAC_1_VDAC8.c **** 
 270:Generated_Source\PSoC5/DVDAC_1_VDAC8.c **** 
 271:Generated_Source\PSoC5/DVDAC_1_VDAC8.c **** /*******************************************************************************
 272:Generated_Source\PSoC5/DVDAC_1_VDAC8.c **** * Function Name: DVDAC_1_VDAC8_DacTrim
 273:Generated_Source\PSoC5/DVDAC_1_VDAC8.c **** ********************************************************************************
 274:Generated_Source\PSoC5/DVDAC_1_VDAC8.c **** *
 275:Generated_Source\PSoC5/DVDAC_1_VDAC8.c **** * Summary:
 276:Generated_Source\PSoC5/DVDAC_1_VDAC8.c **** *  Set the trim value for the given range.
 277:Generated_Source\PSoC5/DVDAC_1_VDAC8.c **** *
 278:Generated_Source\PSoC5/DVDAC_1_VDAC8.c **** * Parameters:
 279:Generated_Source\PSoC5/DVDAC_1_VDAC8.c **** *  range:  1V or 4V range.  See constants.
 280:Generated_Source\PSoC5/DVDAC_1_VDAC8.c **** *
 281:Generated_Source\PSoC5/DVDAC_1_VDAC8.c **** * Return:
 282:Generated_Source\PSoC5/DVDAC_1_VDAC8.c **** *  void
 283:Generated_Source\PSoC5/DVDAC_1_VDAC8.c **** *
 284:Generated_Source\PSoC5/DVDAC_1_VDAC8.c **** * Theory: 
 285:Generated_Source\PSoC5/DVDAC_1_VDAC8.c **** *
 286:Generated_Source\PSoC5/DVDAC_1_VDAC8.c **** * Side Effects:
 287:Generated_Source\PSoC5/DVDAC_1_VDAC8.c **** *
 288:Generated_Source\PSoC5/DVDAC_1_VDAC8.c **** *******************************************************************************/
 289:Generated_Source\PSoC5/DVDAC_1_VDAC8.c **** void DVDAC_1_VDAC8_DacTrim(void) 
ARM GAS  C:\Users\larco\AppData\Local\Temp\ccREDzUf.s 			page 7


 290:Generated_Source\PSoC5/DVDAC_1_VDAC8.c **** {
 291:Generated_Source\PSoC5/DVDAC_1_VDAC8.c ****     uint8 mode;
 292:Generated_Source\PSoC5/DVDAC_1_VDAC8.c **** 
 293:Generated_Source\PSoC5/DVDAC_1_VDAC8.c ****     mode = (uint8)((DVDAC_1_VDAC8_CR0 & DVDAC_1_VDAC8_RANGE_MASK) >> 2) + DVDAC_1_VDAC8_TRIM_M7_1V_
 294:Generated_Source\PSoC5/DVDAC_1_VDAC8.c ****     DVDAC_1_VDAC8_TR = CY_GET_XTND_REG8((uint8 *)(DVDAC_1_VDAC8_DAC_TRIM_BASE + mode));
  51              		.loc 1 294 0
  52 000e A0F59050 		sub	r0, r0, #4608
  53              	.LBE23:
  54              	.LBE22:
  55              	.LBE21:
  56              	.LBE20:
  68:Generated_Source\PSoC5/DVDAC_1_VDAC8.c ****     #endif/* (DVDAC_1_VDAC8_DEFAULT_STRB != 0) */
  57              		.loc 1 68 0
  58 0012 42F00802 		orr	r2, r2, #8
  59 0016 0A70     		strb	r2, [r1]
  60              	.LVL0:
  61              	.LBB29:
  62              	.LBB28:
 230:Generated_Source\PSoC5/DVDAC_1_VDAC8.c ****     DVDAC_1_VDAC8_CR0 |= (range & DVDAC_1_VDAC8_RANGE_MASK);      /*  Set Range  */
  63              		.loc 1 230 0
  64 0018 1A78     		ldrb	r2, [r3]	@ zero_extendqisi2
  65              	.LBB26:
  66              	.LBB24:
  67              		.loc 1 294 0
  68 001a 1F38     		subs	r0, r0, #31
  69              	.LBE24:
  70              	.LBE26:
 230:Generated_Source\PSoC5/DVDAC_1_VDAC8.c ****     DVDAC_1_VDAC8_CR0 |= (range & DVDAC_1_VDAC8_RANGE_MASK);      /*  Set Range  */
  71              		.loc 1 230 0
  72 001c 02F0F302 		and	r2, r2, #243
  73 0020 1A70     		strb	r2, [r3]
 231:Generated_Source\PSoC5/DVDAC_1_VDAC8.c ****     DVDAC_1_VDAC8_DacTrim();
  74              		.loc 1 231 0
  75 0022 1A78     		ldrb	r2, [r3]	@ zero_extendqisi2
  76 0024 D2B2     		uxtb	r2, r2
  77 0026 1A70     		strb	r2, [r3]
  78              	.LBB27:
  79              	.LBB25:
 293:Generated_Source\PSoC5/DVDAC_1_VDAC8.c ****     DVDAC_1_VDAC8_TR = CY_GET_XTND_REG8((uint8 *)(DVDAC_1_VDAC8_DAC_TRIM_BASE + mode));
  80              		.loc 1 293 0
  81 0028 1A78     		ldrb	r2, [r3]	@ zero_extendqisi2
  82              	.LVL1:
  83              		.loc 1 294 0
  84 002a C2F38102 		ubfx	r2, r2, #2, #2
  85              	.LVL2:
  86 002e 02F19242 		add	r2, r2, #1224736768
  87 0032 0632     		adds	r2, r2, #6
  88 0034 92F82821 		ldrb	r2, [r2, #296]	@ zero_extendqisi2
  89 0038 D2B2     		uxtb	r2, r2
  90 003a 0270     		strb	r2, [r0]
  91              	.LVL3:
  92              	.LBE25:
  93              	.LBE27:
  94              	.LBE28:
  95              	.LBE29:
  96              	.LBB30:
  97              	.LBB31:
ARM GAS  C:\Users\larco\AppData\Local\Temp\ccREDzUf.s 			page 8


 205:Generated_Source\PSoC5/DVDAC_1_VDAC8.c ****     DVDAC_1_VDAC8_CR0 |=  (speed & DVDAC_1_VDAC8_HS_MASK);
  98              		.loc 1 205 0
  99 003c 1A78     		ldrb	r2, [r3]	@ zero_extendqisi2
 100 003e 02F0FD02 		and	r2, r2, #253
 101 0042 1A70     		strb	r2, [r3]
 206:Generated_Source\PSoC5/DVDAC_1_VDAC8.c **** }
 102              		.loc 1 206 0
 103 0044 1A78     		ldrb	r2, [r3]	@ zero_extendqisi2
 104 0046 42F00202 		orr	r2, r2, #2
 105 004a 1A70     		strb	r2, [r3]
 106              	.LVL4:
 107 004c 7047     		bx	lr
 108              	.L3:
 109 004e 00BF     		.align	2
 110              	.L2:
 111 0050 28580040 		.word	1073764392
 112 0054 29580040 		.word	1073764393
 113 0058 975A0040 		.word	1073765015
 114              	.LBE31:
 115              	.LBE30:
 116              		.cfi_endproc
 117              	.LFE0:
 118              		.size	DVDAC_1_VDAC8_Init, .-DVDAC_1_VDAC8_Init
 119              		.section	.text.DVDAC_1_VDAC8_Enable,"ax",%progbits
 120              		.align	2
 121              		.global	DVDAC_1_VDAC8_Enable
 122              		.thumb
 123              		.thumb_func
 124              		.type	DVDAC_1_VDAC8_Enable, %function
 125              	DVDAC_1_VDAC8_Enable:
 126              	.LFB1:
  97:Generated_Source\PSoC5/DVDAC_1_VDAC8.c ****     DVDAC_1_VDAC8_PWRMGR |= DVDAC_1_VDAC8_ACT_PWR_EN;
 127              		.loc 1 97 0
 128              		.cfi_startproc
 129              		@ args = 0, pretend = 0, frame = 0
 130              		@ frame_needed = 0, uses_anonymous_args = 0
 131              		@ link register save eliminated.
  98:Generated_Source\PSoC5/DVDAC_1_VDAC8.c ****     DVDAC_1_VDAC8_STBY_PWRMGR |= DVDAC_1_VDAC8_STBY_PWR_EN;
 132              		.loc 1 98 0
 133 0000 0549     		ldr	r1, .L5
  99:Generated_Source\PSoC5/DVDAC_1_VDAC8.c **** 
 134              		.loc 1 99 0
 135 0002 064A     		ldr	r2, .L5+4
  98:Generated_Source\PSoC5/DVDAC_1_VDAC8.c ****     DVDAC_1_VDAC8_STBY_PWRMGR |= DVDAC_1_VDAC8_STBY_PWR_EN;
 136              		.loc 1 98 0
 137 0004 0B78     		ldrb	r3, [r1]	@ zero_extendqisi2
 138 0006 43F00403 		orr	r3, r3, #4
 139 000a 0B70     		strb	r3, [r1]
  99:Generated_Source\PSoC5/DVDAC_1_VDAC8.c **** 
 140              		.loc 1 99 0
 141 000c 1378     		ldrb	r3, [r2]	@ zero_extendqisi2
 142 000e 43F00403 		orr	r3, r3, #4
 143 0012 1370     		strb	r3, [r2]
 144 0014 7047     		bx	lr
 145              	.L6:
 146 0016 00BF     		.align	2
 147              	.L5:
ARM GAS  C:\Users\larco\AppData\Local\Temp\ccREDzUf.s 			page 9


 148 0018 A8430040 		.word	1073759144
 149 001c B8430040 		.word	1073759160
 150              		.cfi_endproc
 151              	.LFE1:
 152              		.size	DVDAC_1_VDAC8_Enable, .-DVDAC_1_VDAC8_Enable
 153              		.section	.text.DVDAC_1_VDAC8_Start,"ax",%progbits
 154              		.align	2
 155              		.global	DVDAC_1_VDAC8_Start
 156              		.thumb
 157              		.thumb_func
 158              		.type	DVDAC_1_VDAC8_Start, %function
 159              	DVDAC_1_VDAC8_Start:
 160              	.LFB2:
 134:Generated_Source\PSoC5/DVDAC_1_VDAC8.c ****     /* Hardware initiazation only needs to occure the first time */
 161              		.loc 1 134 0
 162              		.cfi_startproc
 163              		@ args = 0, pretend = 0, frame = 0
 164              		@ frame_needed = 0, uses_anonymous_args = 0
 165              		@ link register save eliminated.
 166 0000 10B4     		push	{r4}
 167              		.cfi_def_cfa_offset 4
 168              		.cfi_offset 4, -4
 136:Generated_Source\PSoC5/DVDAC_1_VDAC8.c ****     { 
 169              		.loc 1 136 0
 170 0002 1C49     		ldr	r1, .L11
 171 0004 0A78     		ldrb	r2, [r1]	@ zero_extendqisi2
 172 0006 32BB     		cbnz	r2, .L8
 173              	.LBB44:
 174              	.LBB45:
  57:Generated_Source\PSoC5/DVDAC_1_VDAC8.c **** 
 175              		.loc 1 57 0
 176 0008 1B4B     		ldr	r3, .L11+4
  63:Generated_Source\PSoC5/DVDAC_1_VDAC8.c ****     #endif /* (DVDAC_1_VDAC8_DEFAULT_DATA_SRC != 0 ) */
 177              		.loc 1 63 0
 178 000a 1C4C     		ldr	r4, .L11+8
  68:Generated_Source\PSoC5/DVDAC_1_VDAC8.c ****     #endif/* (DVDAC_1_VDAC8_DEFAULT_STRB != 0) */
 179              		.loc 1 68 0
 180 000c 1C48     		ldr	r0, .L11+12
  57:Generated_Source\PSoC5/DVDAC_1_VDAC8.c **** 
 181              		.loc 1 57 0
 182 000e 1A70     		strb	r2, [r3]
  63:Generated_Source\PSoC5/DVDAC_1_VDAC8.c ****     #endif /* (DVDAC_1_VDAC8_DEFAULT_DATA_SRC != 0 ) */
 183              		.loc 1 63 0
 184 0010 2270     		strb	r2, [r4]
  68:Generated_Source\PSoC5/DVDAC_1_VDAC8.c ****     #endif/* (DVDAC_1_VDAC8_DEFAULT_STRB != 0) */
 185              		.loc 1 68 0
 186 0012 0278     		ldrb	r2, [r0]	@ zero_extendqisi2
 187              	.LBB46:
 188              	.LBB47:
 189              	.LBB48:
 190              	.LBB49:
 191              		.loc 1 294 0
 192 0014 A4F59054 		sub	r4, r4, #4608
 193              	.LBE49:
 194              	.LBE48:
 195              	.LBE47:
 196              	.LBE46:
ARM GAS  C:\Users\larco\AppData\Local\Temp\ccREDzUf.s 			page 10


  68:Generated_Source\PSoC5/DVDAC_1_VDAC8.c ****     #endif/* (DVDAC_1_VDAC8_DEFAULT_STRB != 0) */
 197              		.loc 1 68 0
 198 0018 42F00802 		orr	r2, r2, #8
 199 001c 0270     		strb	r2, [r0]
 200              	.LVL5:
 201              	.LBB56:
 202              	.LBB54:
 230:Generated_Source\PSoC5/DVDAC_1_VDAC8.c ****     DVDAC_1_VDAC8_CR0 |= (range & DVDAC_1_VDAC8_RANGE_MASK);      /*  Set Range  */
 203              		.loc 1 230 0
 204 001e 1A78     		ldrb	r2, [r3]	@ zero_extendqisi2
 205              	.LBB52:
 206              	.LBB50:
 207              		.loc 1 294 0
 208 0020 1F3C     		subs	r4, r4, #31
 209              	.LBE50:
 210              	.LBE52:
 230:Generated_Source\PSoC5/DVDAC_1_VDAC8.c ****     DVDAC_1_VDAC8_CR0 |= (range & DVDAC_1_VDAC8_RANGE_MASK);      /*  Set Range  */
 211              		.loc 1 230 0
 212 0022 02F0F302 		and	r2, r2, #243
 213 0026 1A70     		strb	r2, [r3]
 231:Generated_Source\PSoC5/DVDAC_1_VDAC8.c ****     DVDAC_1_VDAC8_DacTrim();
 214              		.loc 1 231 0
 215 0028 1A78     		ldrb	r2, [r3]	@ zero_extendqisi2
 216              	.LBE54:
 217              	.LBE56:
 218              	.LBE45:
 219              	.LBE44:
 139:Generated_Source\PSoC5/DVDAC_1_VDAC8.c ****     }
 220              		.loc 1 139 0
 221 002a 0120     		movs	r0, #1
 222              	.LBB61:
 223              	.LBB60:
 224              	.LBB57:
 225              	.LBB55:
 231:Generated_Source\PSoC5/DVDAC_1_VDAC8.c ****     DVDAC_1_VDAC8_DacTrim();
 226              		.loc 1 231 0
 227 002c D2B2     		uxtb	r2, r2
 228 002e 1A70     		strb	r2, [r3]
 229              	.LBB53:
 230              	.LBB51:
 293:Generated_Source\PSoC5/DVDAC_1_VDAC8.c ****     DVDAC_1_VDAC8_TR = CY_GET_XTND_REG8((uint8 *)(DVDAC_1_VDAC8_DAC_TRIM_BASE + mode));
 231              		.loc 1 293 0
 232 0030 1A78     		ldrb	r2, [r3]	@ zero_extendqisi2
 233              	.LVL6:
 234              		.loc 1 294 0
 235 0032 C2F38102 		ubfx	r2, r2, #2, #2
 236              	.LVL7:
 237 0036 02F19242 		add	r2, r2, #1224736768
 238 003a 0632     		adds	r2, r2, #6
 239 003c 92F82821 		ldrb	r2, [r2, #296]	@ zero_extendqisi2
 240 0040 D2B2     		uxtb	r2, r2
 241 0042 2270     		strb	r2, [r4]
 242              	.LVL8:
 243              	.LBE51:
 244              	.LBE53:
 245              	.LBE55:
 246              	.LBE57:
ARM GAS  C:\Users\larco\AppData\Local\Temp\ccREDzUf.s 			page 11


 247              	.LBB58:
 248              	.LBB59:
 205:Generated_Source\PSoC5/DVDAC_1_VDAC8.c ****     DVDAC_1_VDAC8_CR0 |=  (speed & DVDAC_1_VDAC8_HS_MASK);
 249              		.loc 1 205 0
 250 0044 1A78     		ldrb	r2, [r3]	@ zero_extendqisi2
 251 0046 02F0FD02 		and	r2, r2, #253
 252 004a 1A70     		strb	r2, [r3]
 206:Generated_Source\PSoC5/DVDAC_1_VDAC8.c **** }
 253              		.loc 1 206 0
 254 004c 1A78     		ldrb	r2, [r3]	@ zero_extendqisi2
 255 004e 42F00202 		orr	r2, r2, #2
 256 0052 1A70     		strb	r2, [r3]
 257              	.LVL9:
 258              	.LBE59:
 259              	.LBE58:
 260              	.LBE60:
 261              	.LBE61:
 139:Generated_Source\PSoC5/DVDAC_1_VDAC8.c ****     }
 262              		.loc 1 139 0
 263 0054 0870     		strb	r0, [r1]
 264              	.L8:
 265              	.LBB62:
 266              	.LBB63:
  98:Generated_Source\PSoC5/DVDAC_1_VDAC8.c ****     DVDAC_1_VDAC8_STBY_PWRMGR |= DVDAC_1_VDAC8_STBY_PWR_EN;
 267              		.loc 1 98 0
 268 0056 0B49     		ldr	r1, .L11+16
  99:Generated_Source\PSoC5/DVDAC_1_VDAC8.c **** 
 269              		.loc 1 99 0
 270 0058 0B4A     		ldr	r2, .L11+20
  98:Generated_Source\PSoC5/DVDAC_1_VDAC8.c ****     DVDAC_1_VDAC8_STBY_PWRMGR |= DVDAC_1_VDAC8_STBY_PWR_EN;
 271              		.loc 1 98 0
 272 005a 0B78     		ldrb	r3, [r1]	@ zero_extendqisi2
 273              	.LBE63:
 274              	.LBE62:
 275              	.LBB66:
 276              	.LBB67:
 260:Generated_Source\PSoC5/DVDAC_1_VDAC8.c **** 
 277              		.loc 1 260 0
 278 005c 0B48     		ldr	r0, .L11+24
 279              	.LBE67:
 280              	.LBE66:
 281              	.LBB70:
 282              	.LBB64:
  98:Generated_Source\PSoC5/DVDAC_1_VDAC8.c ****     DVDAC_1_VDAC8_STBY_PWRMGR |= DVDAC_1_VDAC8_STBY_PWR_EN;
 283              		.loc 1 98 0
 284 005e 43F00403 		orr	r3, r3, #4
 285 0062 0B70     		strb	r3, [r1]
  99:Generated_Source\PSoC5/DVDAC_1_VDAC8.c **** 
 286              		.loc 1 99 0
 287 0064 1378     		ldrb	r3, [r2]	@ zero_extendqisi2
 288              	.LBE64:
 289              	.LBE70:
 290              	.LBB71:
 291              	.LBB68:
 260:Generated_Source\PSoC5/DVDAC_1_VDAC8.c **** 
 292              		.loc 1 260 0
 293 0066 1921     		movs	r1, #25
ARM GAS  C:\Users\larco\AppData\Local\Temp\ccREDzUf.s 			page 12


 294              	.LBE68:
 295              	.LBE71:
 296              	.LBB72:
 297              	.LBB65:
  99:Generated_Source\PSoC5/DVDAC_1_VDAC8.c **** 
 298              		.loc 1 99 0
 299 0068 43F00403 		orr	r3, r3, #4
 300 006c 1370     		strb	r3, [r2]
 301              	.LVL10:
 302              	.LBE65:
 303              	.LBE72:
 304              	.LBB73:
 305              	.LBB69:
 260:Generated_Source\PSoC5/DVDAC_1_VDAC8.c **** 
 306              		.loc 1 260 0
 307 006e 0170     		strb	r1, [r0]
 308              	.LVL11:
 309              	.LBE69:
 310              	.LBE73:
 147:Generated_Source\PSoC5/DVDAC_1_VDAC8.c **** 
 311              		.loc 1 147 0
 312 0070 10BC     		pop	{r4}
 313              		.cfi_restore 4
 314              		.cfi_def_cfa_offset 0
 315 0072 7047     		bx	lr
 316              	.L12:
 317              		.align	2
 318              	.L11:
 319 0074 00000000 		.word	.LANCHOR0
 320 0078 28580040 		.word	1073764392
 321 007c 29580040 		.word	1073764393
 322 0080 975A0040 		.word	1073765015
 323 0084 A8430040 		.word	1073759144
 324 0088 B8430040 		.word	1073759160
 325 008c 825B0040 		.word	1073765250
 326              		.cfi_endproc
 327              	.LFE2:
 328              		.size	DVDAC_1_VDAC8_Start, .-DVDAC_1_VDAC8_Start
 329              		.section	.text.DVDAC_1_VDAC8_Stop,"ax",%progbits
 330              		.align	2
 331              		.global	DVDAC_1_VDAC8_Stop
 332              		.thumb
 333              		.thumb_func
 334              		.type	DVDAC_1_VDAC8_Stop, %function
 335              	DVDAC_1_VDAC8_Stop:
 336              	.LFB3:
 169:Generated_Source\PSoC5/DVDAC_1_VDAC8.c ****     /* Disble power to DAC */
 337              		.loc 1 169 0
 338              		.cfi_startproc
 339              		@ args = 0, pretend = 0, frame = 0
 340              		@ frame_needed = 0, uses_anonymous_args = 0
 341              		@ link register save eliminated.
 171:Generated_Source\PSoC5/DVDAC_1_VDAC8.c ****     DVDAC_1_VDAC8_STBY_PWRMGR &= (uint8)(~DVDAC_1_VDAC8_STBY_PWR_EN);
 342              		.loc 1 171 0
 343 0000 0549     		ldr	r1, .L14
 172:Generated_Source\PSoC5/DVDAC_1_VDAC8.c **** 
 344              		.loc 1 172 0
ARM GAS  C:\Users\larco\AppData\Local\Temp\ccREDzUf.s 			page 13


 345 0002 064A     		ldr	r2, .L14+4
 171:Generated_Source\PSoC5/DVDAC_1_VDAC8.c ****     DVDAC_1_VDAC8_STBY_PWRMGR &= (uint8)(~DVDAC_1_VDAC8_STBY_PWR_EN);
 346              		.loc 1 171 0
 347 0004 0B78     		ldrb	r3, [r1]	@ zero_extendqisi2
 348 0006 03F0FB03 		and	r3, r3, #251
 349 000a 0B70     		strb	r3, [r1]
 172:Generated_Source\PSoC5/DVDAC_1_VDAC8.c **** 
 350              		.loc 1 172 0
 351 000c 1378     		ldrb	r3, [r2]	@ zero_extendqisi2
 352 000e 03F0FB03 		and	r3, r3, #251
 353 0012 1370     		strb	r3, [r2]
 354 0014 7047     		bx	lr
 355              	.L15:
 356 0016 00BF     		.align	2
 357              	.L14:
 358 0018 A8430040 		.word	1073759144
 359 001c B8430040 		.word	1073759160
 360              		.cfi_endproc
 361              	.LFE3:
 362              		.size	DVDAC_1_VDAC8_Stop, .-DVDAC_1_VDAC8_Stop
 363              		.section	.text.DVDAC_1_VDAC8_SetSpeed,"ax",%progbits
 364              		.align	2
 365              		.global	DVDAC_1_VDAC8_SetSpeed
 366              		.thumb
 367              		.thumb_func
 368              		.type	DVDAC_1_VDAC8_SetSpeed, %function
 369              	DVDAC_1_VDAC8_SetSpeed:
 370              	.LFB4:
 203:Generated_Source\PSoC5/DVDAC_1_VDAC8.c ****     /* Clear power mask then write in new value */
 371              		.loc 1 203 0
 372              		.cfi_startproc
 373              		@ args = 0, pretend = 0, frame = 0
 374              		@ frame_needed = 0, uses_anonymous_args = 0
 375              		@ link register save eliminated.
 376              	.LVL12:
 205:Generated_Source\PSoC5/DVDAC_1_VDAC8.c ****     DVDAC_1_VDAC8_CR0 |=  (speed & DVDAC_1_VDAC8_HS_MASK);
 377              		.loc 1 205 0
 378 0000 054B     		ldr	r3, .L17
 206:Generated_Source\PSoC5/DVDAC_1_VDAC8.c **** }
 379              		.loc 1 206 0
 380 0002 00F00200 		and	r0, r0, #2
 381              	.LVL13:
 205:Generated_Source\PSoC5/DVDAC_1_VDAC8.c ****     DVDAC_1_VDAC8_CR0 |=  (speed & DVDAC_1_VDAC8_HS_MASK);
 382              		.loc 1 205 0
 383 0006 1A78     		ldrb	r2, [r3]	@ zero_extendqisi2
 384 0008 02F0FD02 		and	r2, r2, #253
 385 000c 1A70     		strb	r2, [r3]
 206:Generated_Source\PSoC5/DVDAC_1_VDAC8.c **** }
 386              		.loc 1 206 0
 387 000e 1A78     		ldrb	r2, [r3]	@ zero_extendqisi2
 388 0010 1043     		orrs	r0, r0, r2
 389 0012 1870     		strb	r0, [r3]
 390 0014 7047     		bx	lr
 391              	.L18:
 392 0016 00BF     		.align	2
 393              	.L17:
 394 0018 28580040 		.word	1073764392
ARM GAS  C:\Users\larco\AppData\Local\Temp\ccREDzUf.s 			page 14


 395              		.cfi_endproc
 396              	.LFE4:
 397              		.size	DVDAC_1_VDAC8_SetSpeed, .-DVDAC_1_VDAC8_SetSpeed
 398              		.section	.text.DVDAC_1_VDAC8_SetRange,"ax",%progbits
 399              		.align	2
 400              		.global	DVDAC_1_VDAC8_SetRange
 401              		.thumb
 402              		.thumb_func
 403              		.type	DVDAC_1_VDAC8_SetRange, %function
 404              	DVDAC_1_VDAC8_SetRange:
 405              	.LFB5:
 229:Generated_Source\PSoC5/DVDAC_1_VDAC8.c ****     DVDAC_1_VDAC8_CR0 &= (uint8)(~DVDAC_1_VDAC8_RANGE_MASK);      /* Clear existing mode */
 406              		.loc 1 229 0
 407              		.cfi_startproc
 408              		@ args = 0, pretend = 0, frame = 0
 409              		@ frame_needed = 0, uses_anonymous_args = 0
 410              		@ link register save eliminated.
 411              	.LVL14:
 230:Generated_Source\PSoC5/DVDAC_1_VDAC8.c ****     DVDAC_1_VDAC8_CR0 |= (range & DVDAC_1_VDAC8_RANGE_MASK);      /*  Set Range  */
 412              		.loc 1 230 0
 413 0000 0A4B     		ldr	r3, .L20
 231:Generated_Source\PSoC5/DVDAC_1_VDAC8.c ****     DVDAC_1_VDAC8_DacTrim();
 414              		.loc 1 231 0
 415 0002 00F00C00 		and	r0, r0, #12
 416              	.LVL15:
 230:Generated_Source\PSoC5/DVDAC_1_VDAC8.c ****     DVDAC_1_VDAC8_CR0 |= (range & DVDAC_1_VDAC8_RANGE_MASK);      /*  Set Range  */
 417              		.loc 1 230 0
 418 0006 1A78     		ldrb	r2, [r3]	@ zero_extendqisi2
 419              	.LBB74:
 420              	.LBB75:
 421              		.loc 1 294 0
 422 0008 0949     		ldr	r1, .L20+4
 423              	.LBE75:
 424              	.LBE74:
 230:Generated_Source\PSoC5/DVDAC_1_VDAC8.c ****     DVDAC_1_VDAC8_CR0 |= (range & DVDAC_1_VDAC8_RANGE_MASK);      /*  Set Range  */
 425              		.loc 1 230 0
 426 000a 02F0F302 		and	r2, r2, #243
 427 000e 1A70     		strb	r2, [r3]
 231:Generated_Source\PSoC5/DVDAC_1_VDAC8.c ****     DVDAC_1_VDAC8_DacTrim();
 428              		.loc 1 231 0
 429 0010 1A78     		ldrb	r2, [r3]	@ zero_extendqisi2
 430 0012 1043     		orrs	r0, r0, r2
 431 0014 1870     		strb	r0, [r3]
 432              	.LBB77:
 433              	.LBB76:
 293:Generated_Source\PSoC5/DVDAC_1_VDAC8.c ****     DVDAC_1_VDAC8_TR = CY_GET_XTND_REG8((uint8 *)(DVDAC_1_VDAC8_DAC_TRIM_BASE + mode));
 434              		.loc 1 293 0
 435 0016 1B78     		ldrb	r3, [r3]	@ zero_extendqisi2
 436              	.LVL16:
 437              		.loc 1 294 0
 438 0018 C3F38103 		ubfx	r3, r3, #2, #2
 439              	.LVL17:
 440 001c 03F19243 		add	r3, r3, #1224736768
 441 0020 0633     		adds	r3, r3, #6
 442 0022 93F82831 		ldrb	r3, [r3, #296]	@ zero_extendqisi2
 443 0026 DBB2     		uxtb	r3, r3
 444 0028 0B70     		strb	r3, [r1]
ARM GAS  C:\Users\larco\AppData\Local\Temp\ccREDzUf.s 			page 15


 445 002a 7047     		bx	lr
 446              	.L21:
 447              		.align	2
 448              	.L20:
 449 002c 28580040 		.word	1073764392
 450 0030 0A460040 		.word	1073759754
 451              	.LBE76:
 452              	.LBE77:
 453              		.cfi_endproc
 454              	.LFE5:
 455              		.size	DVDAC_1_VDAC8_SetRange, .-DVDAC_1_VDAC8_SetRange
 456              		.section	.text.DVDAC_1_VDAC8_SetValue,"ax",%progbits
 457              		.align	2
 458              		.global	DVDAC_1_VDAC8_SetValue
 459              		.thumb
 460              		.thumb_func
 461              		.type	DVDAC_1_VDAC8_SetValue, %function
 462              	DVDAC_1_VDAC8_SetValue:
 463              	.LFB6:
 255:Generated_Source\PSoC5/DVDAC_1_VDAC8.c ****     #if (CY_PSOC5A)
 464              		.loc 1 255 0
 465              		.cfi_startproc
 466              		@ args = 0, pretend = 0, frame = 0
 467              		@ frame_needed = 0, uses_anonymous_args = 0
 468              		@ link register save eliminated.
 469              	.LVL18:
 260:Generated_Source\PSoC5/DVDAC_1_VDAC8.c **** 
 470              		.loc 1 260 0
 471 0000 014B     		ldr	r3, .L23
 472 0002 1870     		strb	r0, [r3]
 473 0004 7047     		bx	lr
 474              	.L24:
 475 0006 00BF     		.align	2
 476              	.L23:
 477 0008 825B0040 		.word	1073765250
 478              		.cfi_endproc
 479              	.LFE6:
 480              		.size	DVDAC_1_VDAC8_SetValue, .-DVDAC_1_VDAC8_SetValue
 481              		.section	.text.DVDAC_1_VDAC8_DacTrim,"ax",%progbits
 482              		.align	2
 483              		.global	DVDAC_1_VDAC8_DacTrim
 484              		.thumb
 485              		.thumb_func
 486              		.type	DVDAC_1_VDAC8_DacTrim, %function
 487              	DVDAC_1_VDAC8_DacTrim:
 488              	.LFB7:
 290:Generated_Source\PSoC5/DVDAC_1_VDAC8.c ****     uint8 mode;
 489              		.loc 1 290 0
 490              		.cfi_startproc
 491              		@ args = 0, pretend = 0, frame = 0
 492              		@ frame_needed = 0, uses_anonymous_args = 0
 493              		@ link register save eliminated.
 293:Generated_Source\PSoC5/DVDAC_1_VDAC8.c ****     DVDAC_1_VDAC8_TR = CY_GET_XTND_REG8((uint8 *)(DVDAC_1_VDAC8_DAC_TRIM_BASE + mode));
 494              		.loc 1 293 0
 495 0000 064B     		ldr	r3, .L26
 496              		.loc 1 294 0
 497 0002 074A     		ldr	r2, .L26+4
ARM GAS  C:\Users\larco\AppData\Local\Temp\ccREDzUf.s 			page 16


 293:Generated_Source\PSoC5/DVDAC_1_VDAC8.c ****     DVDAC_1_VDAC8_TR = CY_GET_XTND_REG8((uint8 *)(DVDAC_1_VDAC8_DAC_TRIM_BASE + mode));
 498              		.loc 1 293 0
 499 0004 1B78     		ldrb	r3, [r3]	@ zero_extendqisi2
 500              	.LVL19:
 501              		.loc 1 294 0
 502 0006 C3F38103 		ubfx	r3, r3, #2, #2
 503              	.LVL20:
 504 000a 03F19243 		add	r3, r3, #1224736768
 505 000e 0633     		adds	r3, r3, #6
 506 0010 93F82831 		ldrb	r3, [r3, #296]	@ zero_extendqisi2
 507 0014 DBB2     		uxtb	r3, r3
 508 0016 1370     		strb	r3, [r2]
 509 0018 7047     		bx	lr
 510              	.L27:
 511 001a 00BF     		.align	2
 512              	.L26:
 513 001c 28580040 		.word	1073764392
 514 0020 0A460040 		.word	1073759754
 515              		.cfi_endproc
 516              	.LFE7:
 517              		.size	DVDAC_1_VDAC8_DacTrim, .-DVDAC_1_VDAC8_DacTrim
 518              		.global	DVDAC_1_VDAC8_initVar
 519              		.bss
 520              		.set	.LANCHOR0,. + 0
 521              		.type	DVDAC_1_VDAC8_initVar, %object
 522              		.size	DVDAC_1_VDAC8_initVar, 1
 523              	DVDAC_1_VDAC8_initVar:
 524 0000 00       		.space	1
 525              		.text
 526              	.Letext0:
 527              		.file 2 "Generated_Source\\PSoC5\\cytypes.h"