ARM GAS  C:\Users\larco\AppData\Local\Temp\ccmjbZGY.s 			page 1


   1              		.syntax unified
   2              		.cpu cortex-m3
   3              		.fpu softvfp
   4              		.eabi_attribute 20, 1
   5              		.eabi_attribute 21, 1
   6              		.eabi_attribute 23, 3
   7              		.eabi_attribute 24, 1
   8              		.eabi_attribute 25, 1
   9              		.eabi_attribute 26, 1
  10              		.eabi_attribute 30, 2
  11              		.eabi_attribute 34, 1
  12              		.eabi_attribute 18, 4
  13              		.thumb
  14              		.syntax unified
  15              		.file	"filters.c"
  16              		.text
  17              	.Ltext0:
  18              		.cfi_sections	.debug_frame
  19              		.section	.text.iir_biquad_4th_order,"ax",%progbits
  20              		.align	2
  21              		.global	iir_biquad_4th_order
  22              		.thumb
  23              		.thumb_func
  24              		.type	iir_biquad_4th_order, %function
  25              	iir_biquad_4th_order:
  26              	.LFB0:
  27              		.file 1 "filters.c"
   1:filters.c     **** /* ========================================
   2:filters.c     ****  *
   3:filters.c     ****  * Copyright YOUR COMPANY, THE YEAR
   4:filters.c     ****  * All Rights Reserved
   5:filters.c     ****  * UNPUBLISHED, LICENSED SOFTWARE.
   6:filters.c     ****  *
   7:filters.c     ****  * CONFIDENTIAL AND PROPRIETARY INFORMATION
   8:filters.c     ****  * WHICH IS THE PROPERTY OF your company.
   9:filters.c     ****  *
  10:filters.c     ****  * ========================================
  11:filters.c     **** */
  12:filters.c     **** 
  13:filters.c     **** #include "filters.h"
  14:filters.c     **** 
  15:filters.c     **** //==============================================================================
  16:filters.c     **** //	IIR Biquad filter
  17:filters.c     **** //
  18:filters.c     **** //	nth order filter that impliments a direct form biquad filter. The function
  19:filters.c     **** //  is recursive allowing for N 2nd order stages to be calculated in cascade.
  20:filters.c     **** //
  21:filters.c     **** //	sample_t -- struct pointer to input sample buffer
  22:filters.c     **** //	output_t -- struct pointer to output buffer
  23:filters.c     **** //	coeff	 -- this holds the filter coefficients and must follow the form below
  24:filters.c     **** //	order	 -- order of the filter, must be multiples of 2
  25:filters.c     **** //
  26:filters.c     **** //										   |   1st biquad   | |   2nd biquad   | .......
  27:filters.c     **** //	coeff is an linear array of the form [ b0 b1 b2 a0 a1 a2  b3 b4 b5 a3 a4 a5 ....... ]
  28:filters.c     **** //											
  29:filters.c     **** //	
  30:filters.c     **** // =============================================================================
ARM GAS  C:\Users\larco\AppData\Local\Temp\ccmjbZGY.s 			page 2


  31:filters.c     **** short signed int iir_biquad_4th_order( short signed int sample, reg_struct *reg, short signed int c
  32:filters.c     **** {
  28              		.loc 1 32 0
  29              		.cfi_startproc
  30              		@ args = 0, pretend = 0, frame = 0
  31              		@ frame_needed = 0, uses_anonymous_args = 0
  32              	.LVL0:
  33:filters.c     **** 	signed int acc = 0;
  34:filters.c     **** 	
  35:filters.c     ****     //================= First BiQuad stage =======================//
  36:filters.c     ****     
  37:filters.c     **** 	// scale input to avoid overflow
  38:filters.c     **** 	sample = ( short signed int )( ( ( signed int )sample * ( signed int )reg->input_scale[ 0 ] ) >> Q
  33              		.loc 1 38 0
  34 0000 D1F810C0 		ldr	ip, [r1, #16]
  32:filters.c     **** 	signed int acc = 0;
  35              		.loc 1 32 0
  36 0004 2DE9F047 		push	{r4, r5, r6, r7, r8, r9, r10, lr}
  37              		.cfi_def_cfa_offset 32
  38              		.cfi_offset 4, -32
  39              		.cfi_offset 5, -28
  40              		.cfi_offset 6, -24
  41              		.cfi_offset 7, -20
  42              		.cfi_offset 8, -16
  43              		.cfi_offset 9, -12
  44              		.cfi_offset 10, -8
  45              		.cfi_offset 14, -4
  39:filters.c     **** 	
  40:filters.c     **** 	// compute direct form biquad filter
  41:filters.c     **** 	acc = ( (signed int)sample * (signed int)coeff[ 0 ] );
  42:filters.c     **** 	acc = acc + ( (signed int)reg->x1[ 0 ] * (signed int)coeff[ 1 ] );
  46              		.loc 1 42 0
  47 0008 0F68     		ldr	r7, [r1]
  38:filters.c     **** 	
  48              		.loc 1 38 0
  49 000a BCF90090 		ldrsh	r9, [ip]
  50              		.loc 1 42 0
  51 000e B7F90080 		ldrsh	r8, [r7]
  52 0012 B2F90230 		ldrsh	r3, [r2, #2]
  38:filters.c     **** 	
  53              		.loc 1 38 0
  54 0016 00FB09F0 		mul	r0, r0, r9
  55              	.LVL1:
  56              		.loc 1 42 0
  57 001a 08FB03F3 		mul	r3, r8, r3
  41:filters.c     **** 	acc = acc + ( (signed int)reg->x1[ 0 ] * (signed int)coeff[ 1 ] );
  58              		.loc 1 41 0
  59 001e B2F90040 		ldrsh	r4, [r2]
  38:filters.c     **** 	
  60              		.loc 1 38 0
  61 0022 40F38F39 		sbfx	r9, r0, #14, #16
  62              	.LVL2:
  43:filters.c     **** 	acc = acc + ( (signed int)reg->x2[ 0 ] * (signed int)coeff[ 2 ] );
  63              		.loc 1 43 0
  64 0026 D1F804E0 		ldr	lr, [r1, #4]
  42:filters.c     **** 	acc = acc + ( (signed int)reg->x2[ 0 ] * (signed int)coeff[ 2 ] );
  65              		.loc 1 42 0
ARM GAS  C:\Users\larco\AppData\Local\Temp\ccmjbZGY.s 			page 3


  66 002a 09FB0433 		mla	r3, r9, r4, r3
  67              	.LVL3:
  68              		.loc 1 43 0
  69 002e BEF90000 		ldrsh	r0, [lr]
  70 0032 B2F90440 		ldrsh	r4, [r2, #4]
  44:filters.c     **** 	acc = acc - ( (signed int)reg->y1[ 0 ] * (signed int)coeff[ 4 ] );
  71              		.loc 1 44 0
  72 0036 8D68     		ldr	r5, [r1, #8]
  43:filters.c     **** 	acc = acc + ( (signed int)reg->x2[ 0 ] * (signed int)coeff[ 2 ] );
  73              		.loc 1 43 0
  74 0038 04FB0033 		mla	r3, r4, r0, r3
  75              	.LVL4:
  76              		.loc 1 44 0
  77 003c B5F90000 		ldrsh	r0, [r5]
  78 0040 B2F90840 		ldrsh	r4, [r2, #8]
  45:filters.c     **** 	acc = acc - ( (signed int)reg->y2[ 0 ] * (signed int)coeff[ 5 ] );
  79              		.loc 1 45 0
  80 0044 CE68     		ldr	r6, [r1, #12]
  44:filters.c     **** 	acc = acc - ( (signed int)reg->y1[ 0 ] * (signed int)coeff[ 4 ] );
  81              		.loc 1 44 0
  82 0046 04FB1031 		mls	r1, r4, r0, r3
  83              	.LVL5:
  84              		.loc 1 45 0
  85 004a B6F90040 		ldrsh	r4, [r6]
  86 004e B2F90A30 		ldrsh	r3, [r2, #10]
  87 0052 2448     		ldr	r0, .L3
  88 0054 03FB1411 		mls	r1, r3, r4, r1
  89              	.LVL6:
  46:filters.c     **** 	acc = acc >> Q_format;
  90              		.loc 1 46 0
  91 0058 8913     		asrs	r1, r1, #14
  92              	.LVL7:
  93 005a 8142     		cmp	r1, r0
  94 005c B8BF     		it	lt
  95 005e 0146     		movlt	r1, r0
  96              	.LVL8:
  97 0060 47F6FF74 		movw	r4, #32767
  98              	.LVL9:
  99 0064 A142     		cmp	r1, r4
 100 0066 0B46     		mov	r3, r1
 101              	.LVL10:
 102 0068 A8BF     		it	ge
 103 006a 2346     		movge	r3, r4
 104              	.LVL11:
  47:filters.c     **** 	
  48:filters.c     **** 	
  49:filters.c     **** 	// saturate the output if overflow occured
  50:filters.c     **** 	if( acc > overflow ) 
  51:filters.c     **** 	{ acc = overflow; }
  52:filters.c     **** 	else if( acc < underflow )
  53:filters.c     **** 	{ acc = underflow; }
  54:filters.c     **** 	
  55:filters.c     **** 	
  56:filters.c     **** 	// shift data in registers
  57:filters.c     **** 	reg->x2[ 0 ] = reg->x1[ 0 ];
 105              		.loc 1 57 0
 106 006c AEF80080 		strh	r8, [lr]	@ movhi
ARM GAS  C:\Users\larco\AppData\Local\Temp\ccmjbZGY.s 			page 4


  58:filters.c     **** 	reg->x1[ 0 ] = sample;
 107              		.loc 1 58 0
 108 0070 A7F80090 		strh	r9, [r7]	@ movhi
  59:filters.c     **** 	reg->y2[ 0 ] = reg->y1[ 0 ];
 109              		.loc 1 59 0
 110 0074 B5F90010 		ldrsh	r1, [r5]
 111 0078 3180     		strh	r1, [r6]	@ movhi
  60:filters.c     **** 	reg->y1[ 0 ] = ( short signed int )acc;
 112              		.loc 1 60 0
 113 007a 2B80     		strh	r3, [r5]	@ movhi
  61:filters.c     ****     
  62:filters.c     ****     //================= Second BiQuad stage =======================//
  63:filters.c     ****     
  64:filters.c     **** 	// scale input to avoid overflow
  65:filters.c     **** 	sample = ( short signed int )( ( ( signed int )acc * ( signed int )reg->input_scale[ 1 ] ) >> Q_fo
 114              		.loc 1 65 0
 115 007c BCF90210 		ldrsh	r1, [ip, #2]
  66:filters.c     **** 	
  67:filters.c     **** 	// compute direct form biquad filter
  68:filters.c     **** 	acc = ( (signed int)sample * (signed int)coeff[ 6 ] );
  69:filters.c     **** 	acc = acc + ( (signed int)reg->x1[ 1 ] * (signed int)coeff[ 7 ] );
 116              		.loc 1 69 0
 117 0080 B2F90E80 		ldrsh	r8, [r2, #14]
 118 0084 B7F902C0 		ldrsh	ip, [r7, #2]
  65:filters.c     **** 	
 119              		.loc 1 65 0
 120 0088 03FB01F3 		mul	r3, r3, r1
 121              	.LVL12:
 122              		.loc 1 69 0
 123 008c 0CFB08F8 		mul	r8, ip, r8
  68:filters.c     **** 	acc = acc + ( (signed int)reg->x1[ 1 ] * (signed int)coeff[ 7 ] );
 124              		.loc 1 68 0
 125 0090 B2F90C10 		ldrsh	r1, [r2, #12]
  65:filters.c     **** 	
 126              		.loc 1 65 0
 127 0094 43F38F33 		sbfx	r3, r3, #14, #16
 128              	.LVL13:
 129              		.loc 1 69 0
 130 0098 03FB0188 		mla	r8, r3, r1, r8
 131              	.LVL14:
  70:filters.c     **** 	acc = acc + ( (signed int)reg->x2[ 1 ] * (signed int)coeff[ 8 ] );
 132              		.loc 1 70 0
 133 009c B2F910A0 		ldrsh	r10, [r2, #16]
 134 00a0 BEF90210 		ldrsh	r1, [lr, #2]
  71:filters.c     **** 	acc = acc - ( (signed int)reg->y1[ 1 ] * (signed int)coeff[ 10 ] );
 135              		.loc 1 71 0
 136 00a4 B2F91490 		ldrsh	r9, [r2, #20]
  70:filters.c     **** 	acc = acc + ( (signed int)reg->x2[ 1 ] * (signed int)coeff[ 8 ] );
 137              		.loc 1 70 0
 138 00a8 0AFB0188 		mla	r8, r10, r1, r8
 139              	.LVL15:
 140              		.loc 1 71 0
 141 00ac B5F90210 		ldrsh	r1, [r5, #2]
  72:filters.c     **** 	acc = acc - ( (signed int)reg->y2[ 1 ] * (signed int)coeff[ 11 ] );
 142              		.loc 1 72 0
 143 00b0 B2F916A0 		ldrsh	r10, [r2, #22]
  71:filters.c     **** 	acc = acc - ( (signed int)reg->y1[ 1 ] * (signed int)coeff[ 10 ] );
ARM GAS  C:\Users\larco\AppData\Local\Temp\ccmjbZGY.s 			page 5


 144              		.loc 1 71 0
 145 00b4 09FB1182 		mls	r2, r9, r1, r8
 146              	.LVL16:
 147              		.loc 1 72 0
 148 00b8 B6F90210 		ldrsh	r1, [r6, #2]
  73:filters.c     **** 	acc = acc >> Q_format;
  74:filters.c     **** 	
  75:filters.c     **** 	
  76:filters.c     **** 	// saturate the output if overflow occured
  77:filters.c     **** 	if( acc > overflow ) 
  78:filters.c     **** 	{ acc = overflow; }
  79:filters.c     **** 	else if( acc < underflow )
  80:filters.c     **** 	{ acc = underflow; }
  81:filters.c     ****     
  82:filters.c     ****     // shift data in registers
  83:filters.c     **** 	reg->x2[ 1 ] = reg->x1[ 1 ];
 149              		.loc 1 83 0
 150 00bc AEF802C0 		strh	ip, [lr, #2]	@ movhi
  72:filters.c     **** 	acc = acc - ( (signed int)reg->y2[ 1 ] * (signed int)coeff[ 11 ] );
 151              		.loc 1 72 0
 152 00c0 0AFB1122 		mls	r2, r10, r1, r2
 153              	.LVL17:
  73:filters.c     **** 	acc = acc >> Q_format;
 154              		.loc 1 73 0
 155 00c4 9213     		asrs	r2, r2, #14
 156              	.LVL18:
 157 00c6 8242     		cmp	r2, r0
 158 00c8 B8BF     		it	lt
 159 00ca 0246     		movlt	r2, r0
 160              	.LVL19:
  84:filters.c     **** 	reg->x1[ 1 ] = sample;
  85:filters.c     **** 	reg->y2[ 1 ] = reg->y1[ 1 ];
  86:filters.c     **** 	reg->y1[ 1 ] = ( short signed int )acc;
 161              		.loc 1 86 0
 162 00cc A242     		cmp	r2, r4
 163 00ce A8BF     		it	ge
 164 00d0 2246     		movge	r2, r4
 165              	.LVL20:
  84:filters.c     **** 	reg->x1[ 1 ] = sample;
 166              		.loc 1 84 0
 167 00d2 7B80     		strh	r3, [r7, #2]	@ movhi
  85:filters.c     **** 	reg->y1[ 1 ] = ( short signed int )acc;
 168              		.loc 1 85 0
 169 00d4 B5F90210 		ldrsh	r1, [r5, #2]
 170              		.loc 1 86 0
 171 00d8 13B2     		sxth	r3, r2
 172              	.LVL21:
  85:filters.c     **** 	reg->y1[ 1 ] = ( short signed int )acc;
 173              		.loc 1 85 0
 174 00da 7180     		strh	r1, [r6, #2]	@ movhi
 175              	.LVL22:
  87:filters.c     **** 	
  88:filters.c     **** 	// scale output
  89:filters.c     **** 	//acc = ( acc * ( signed int )reg->gain[ stage ] ) >> Q_format;
  90:filters.c     **** 	//acc = ( acc * reg->output_scale[ stage ] ) >> Q_format;
  91:filters.c     **** 		
  92:filters.c     **** 	return ( short signed int )acc;
ARM GAS  C:\Users\larco\AppData\Local\Temp\ccmjbZGY.s 			page 6


  93:filters.c     **** 	
  94:filters.c     **** }
 176              		.loc 1 94 0
 177 00dc 1846     		mov	r0, r3
  86:filters.c     **** 	
 178              		.loc 1 86 0
 179 00de 6B80     		strh	r3, [r5, #2]	@ movhi
 180              		.loc 1 94 0
 181 00e0 BDE8F087 		pop	{r4, r5, r6, r7, r8, r9, r10, pc}
 182              	.L4:
 183              		.align	2
 184              	.L3:
 185 00e4 0080FFFF 		.word	-32768
 186              		.cfi_endproc
 187              	.LFE0:
 188              		.size	iir_biquad_4th_order, .-iir_biquad_4th_order
 189              		.section	.text.iir_coupled_form,"ax",%progbits
 190              		.align	2
 191              		.global	iir_coupled_form
 192              		.thumb
 193              		.thumb_func
 194              		.type	iir_coupled_form, %function
 195              	iir_coupled_form:
 196              	.LFB1:
  95:filters.c     **** 
  96:filters.c     **** //==========================================================================
  97:filters.c     **** //
  98:filters.c     **** //	iir coupled form filter by Gold and Rader
  99:filters.c     **** //
 100:filters.c     **** //
 101:filters.c     **** //
 102:filters.c     **** //
 103:filters.c     **** //
 104:filters.c     **** //
 105:filters.c     **** //==========================================================================
 106:filters.c     **** short signed int iir_coupled_form( short signed int sample, reg_struct *reg, short signed int coeff
 107:filters.c     **** {
 197              		.loc 1 107 0
 198              		.cfi_startproc
 199              		@ args = 0, pretend = 0, frame = 8
 200              		@ frame_needed = 0, uses_anonymous_args = 0
 201              	.LVL23:
 202 0000 2DE9F04F 		push	{r4, r5, r6, r7, r8, r9, r10, fp, lr}
 203              		.cfi_def_cfa_offset 36
 204              		.cfi_offset 4, -36
 205              		.cfi_offset 5, -32
 206              		.cfi_offset 6, -28
 207              		.cfi_offset 7, -24
 208              		.cfi_offset 8, -20
 209              		.cfi_offset 9, -16
 210              		.cfi_offset 10, -12
 211              		.cfi_offset 11, -8
 212              		.cfi_offset 14, -4
 108:filters.c     **** 	signed int acc = 0;
 109:filters.c     **** 	signed int acc1 = 0;
 110:filters.c     **** 	signed int acc2 = 0;
 111:filters.c     **** 	
ARM GAS  C:\Users\larco\AppData\Local\Temp\ccmjbZGY.s 			page 7


 112:filters.c     ****     //=================== First 2nd order stage ==================//
 113:filters.c     **** 	
 114:filters.c     **** 	// scale input to avoid overflow
 115:filters.c     **** 	//sample = ( short signed int )( ( ( signed int )sample * ( signed int )reg->input_scale[ 0 ] ) >>
 116:filters.c     **** 	sample = sample >> 1;
 117:filters.c     ****     
 118:filters.c     **** 	// compute feed forward branch
 119:filters.c     **** 	acc = ( (signed int)sample * (signed int)coeff[ 0 ] );
 120:filters.c     **** 	acc = acc + ( (signed int)reg->x1[ 0 ] * (signed int)coeff[ 1 ] );
 121:filters.c     **** 	acc = acc + ( (signed int)reg->x2[ 0 ] * (signed int)coeff[ 2 ] );
 122:filters.c     **** 	acc = acc >> Q_format;
 123:filters.c     **** 	
 124:filters.c     **** 	
 125:filters.c     **** 	// compute feed back branch
 126:filters.c     **** 	acc1 = acc + ( (signed int)reg->y1[ 0 ] * (signed int)coeff[ 3 ] >> Q_format ) - ( (signed int)reg
 213              		.loc 1 126 0
 214 0004 CB68     		ldr	r3, [r1, #12]
 215 0006 8D68     		ldr	r5, [r1, #8]
 216 0008 B2F906E0 		ldrsh	lr, [r2, #6]
 217 000c B3F90070 		ldrsh	r7, [r3]
 218 0010 B2F90890 		ldrsh	r9, [r2, #8]
 219 0014 B5F900A0 		ldrsh	r10, [r5]
 107:filters.c     **** 	signed int acc = 0;
 220              		.loc 1 107 0
 221 0018 83B0     		sub	sp, sp, #12
 222              		.cfi_def_cfa_offset 48
 223              		.loc 1 126 0
 224 001a 0193     		str	r3, [sp, #4]
 127:filters.c     **** 	acc2 = ( (signed int)reg->y1[ 0 ] * (signed int)coeff[ 4 ] >> Q_format ) + ( (signed int)reg->y2[ 
 225              		.loc 1 127 0
 226 001c 07FB0EF3 		mul	r3, r7, lr
 227 0020 09FB0AFB 		mul	fp, r9, r10
 228 0024 374C     		ldr	r4, .L7
 229 0026 9B13     		asrs	r3, r3, #14
 230 0028 03EBAB33 		add	r3, r3, fp, asr #14
 231 002c A342     		cmp	r3, r4
 232 002e B8BF     		it	lt
 233 0030 2346     		movlt	r3, r4
 234 0032 47F6FF74 		movw	r4, #32767
 235 0036 A342     		cmp	r3, r4
 236 0038 A8BF     		it	ge
 237 003a 2346     		movge	r3, r4
 238 003c 1C46     		mov	r4, r3
 120:filters.c     **** 	acc = acc + ( (signed int)reg->x2[ 0 ] * (signed int)coeff[ 2 ] );
 239              		.loc 1 120 0
 240 003e 0E68     		ldr	r6, [r1]
 241 0040 B2F902C0 		ldrsh	ip, [r2, #2]
 242 0044 B6F90080 		ldrsh	r8, [r6]
 119:filters.c     **** 	acc = acc + ( (signed int)reg->x1[ 0 ] * (signed int)coeff[ 1 ] );
 243              		.loc 1 119 0
 244 0048 B2F900B0 		ldrsh	fp, [r2]
 120:filters.c     **** 	acc = acc + ( (signed int)reg->x2[ 0 ] * (signed int)coeff[ 2 ] );
 245              		.loc 1 120 0
 246 004c 08FB0CF3 		mul	r3, r8, ip
 116:filters.c     ****     
 247              		.loc 1 116 0
 248 0050 4010     		asrs	r0, r0, #1
ARM GAS  C:\Users\larco\AppData\Local\Temp\ccmjbZGY.s 			page 8


 249              	.LVL24:
 121:filters.c     **** 	acc = acc >> Q_format;
 250              		.loc 1 121 0
 251 0052 4968     		ldr	r1, [r1, #4]
 252              	.LVL25:
 120:filters.c     **** 	acc = acc + ( (signed int)reg->x2[ 0 ] * (signed int)coeff[ 2 ] );
 253              		.loc 1 120 0
 254 0054 00FB0B3C 		mla	ip, r0, fp, r3
 255              	.LVL26:
 121:filters.c     **** 	acc = acc >> Q_format;
 256              		.loc 1 121 0
 257 0058 B2F904B0 		ldrsh	fp, [r2, #4]
 258 005c B1F90030 		ldrsh	r3, [r1]
 128:filters.c     **** 	
 129:filters.c     **** 	
 130:filters.c     **** 	// saturate the output if overflow occured
 131:filters.c     **** 	if( acc2 > overflow ) 
 132:filters.c     **** 	{ acc2 = overflow; }
 133:filters.c     **** 	else if( acc2 < underflow )
 134:filters.c     **** 	{ acc2 = underflow; }
 135:filters.c     **** 	
 136:filters.c     **** 	// shift data in registers
 137:filters.c     **** 	reg->x2[ 0 ] = reg->x1[ 0 ];
 138:filters.c     **** 	reg->x1[ 0 ] = sample;
 139:filters.c     **** 	reg->y1[ 0 ] = ( short signed int )acc1;
 259              		.loc 1 139 0
 260 0060 0EFB0AFE 		mul	lr, lr, r10
 121:filters.c     **** 	acc = acc >> Q_format;
 261              		.loc 1 121 0
 262 0064 0BFB03C3 		mla	r3, fp, r3, ip
 263              	.LVL27:
 264              		.loc 1 139 0
 265 0068 09FB07F7 		mul	r7, r9, r7
 266              	.LVL28:
 267 006c 9B13     		asrs	r3, r3, #14
 268              	.LVL29:
 269 006e 03EBAE3E 		add	lr, r3, lr, asr #14
 140:filters.c     **** 	reg->y2[ 0 ] = ( short signed int )acc2;
 270              		.loc 1 140 0
 271 0072 019B     		ldr	r3, [sp, #4]
 272              	.LVL30:
 139:filters.c     **** 	reg->y2[ 0 ] = ( short signed int )acc2;
 273              		.loc 1 139 0
 274 0074 AEEBA73E 		sub	lr, lr, r7, asr #14
 275              		.loc 1 140 0
 276 0078 0FFA84FC 		sxth	ip, r4
 277              	.LVL31:
 137:filters.c     **** 	reg->x1[ 0 ] = sample;
 278              		.loc 1 137 0
 279 007c A1F80080 		strh	r8, [r1]	@ movhi
 280              	.LVL32:
 138:filters.c     **** 	reg->y1[ 0 ] = ( short signed int )acc1;
 281              		.loc 1 138 0
 282 0080 3080     		strh	r0, [r6]	@ movhi
 139:filters.c     **** 	reg->y2[ 0 ] = ( short signed int )acc2;
 283              		.loc 1 139 0
 284 0082 A5F800E0 		strh	lr, [r5]	@ movhi
ARM GAS  C:\Users\larco\AppData\Local\Temp\ccmjbZGY.s 			page 9


 285              		.loc 1 140 0
 286 0086 A3F800C0 		strh	ip, [r3]	@ movhi
 287              	.LVL33:
 141:filters.c     ****     
 142:filters.c     ****     //=================== Second 2nd order stage ==================//
 143:filters.c     ****     
 144:filters.c     ****     // scale input to avoid overflow
 145:filters.c     **** 	//sample = ( short signed int )( ( ( signed int )acc2 * ( signed int )reg->input_scale[ 1 ] ) >> Q
 146:filters.c     **** 	sample = acc2;
 147:filters.c     **** 	
 148:filters.c     **** 	// compute feed forward branch
 149:filters.c     **** 	acc = ( (signed int)sample * (signed int)coeff[ 5 ] );
 150:filters.c     **** 	acc = acc + ( (signed int)reg->x1[ 1 ] * (signed int)coeff[ 6 ] );
 151:filters.c     **** 	acc = acc + ( (signed int)reg->x2[ 1 ] * (signed int)coeff[ 7 ] );
 152:filters.c     **** 	acc = acc >> Q_format;
 153:filters.c     **** 	
 154:filters.c     **** 	
 155:filters.c     **** 	// compute feed back branch
 156:filters.c     **** 	acc1 = acc + ( (signed int)reg->y1[ 1 ] * (signed int)coeff[ 8 ] >> Q_format ) - ( (signed int)reg
 288              		.loc 1 156 0
 289 008a B2F91090 		ldrsh	r9, [r2, #16]
 290 008e B3F90280 		ldrsh	r8, [r3, #2]
 291 0092 B5F902E0 		ldrsh	lr, [r5, #2]
 292 0096 B2F91270 		ldrsh	r7, [r2, #18]
 157:filters.c     **** 	acc2 = ( (signed int)reg->y1[ 1 ] * (signed int)coeff[ 9 ] >> Q_format ) + ( (signed int)reg->y2[ 
 293              		.loc 1 157 0
 294 009a 08FB09F3 		mul	r3, r8, r9
 295 009e 07FB0EF0 		mul	r0, r7, lr
 296 00a2 9B13     		asrs	r3, r3, #14
 297 00a4 03EBA030 		add	r0, r3, r0, asr #14
 298 00a8 164B     		ldr	r3, .L7
 150:filters.c     **** 	acc = acc + ( (signed int)reg->x2[ 1 ] * (signed int)coeff[ 7 ] );
 299              		.loc 1 150 0
 300 00aa B6F902A0 		ldrsh	r10, [r6, #2]
 301 00ae 9842     		cmp	r0, r3
 302 00b0 B8BF     		it	lt
 303 00b2 1846     		movlt	r0, r3
 158:filters.c     **** 	
 159:filters.c     **** 	
 160:filters.c     **** 	// saturate the output if overflow occured
 161:filters.c     **** 	if( acc2 > overflow ) 
 162:filters.c     **** 	{ acc2 = overflow; }
 163:filters.c     **** 	else if( acc2 < underflow )
 164:filters.c     **** 	{ acc2 = underflow; }
 165:filters.c     **** 	
 166:filters.c     **** 	// shift data in registers
 167:filters.c     **** 	reg->x2[ 1 ] = reg->x1[ 1 ];
 168:filters.c     **** 	reg->x1[ 1 ] = sample;
 169:filters.c     **** 	reg->y1[ 1 ] = ( short signed int )acc1;
 170:filters.c     **** 	reg->y2[ 1 ] = ( short signed int )acc2;
 304              		.loc 1 170 0
 305 00b4 47F6FF73 		movw	r3, #32767
 306 00b8 9842     		cmp	r0, r3
 307 00ba A8BF     		it	ge
 308 00bc 1846     		movge	r0, r3
 150:filters.c     **** 	acc = acc + ( (signed int)reg->x2[ 1 ] * (signed int)coeff[ 7 ] );
 309              		.loc 1 150 0
ARM GAS  C:\Users\larco\AppData\Local\Temp\ccmjbZGY.s 			page 10


 310 00be B2F90C30 		ldrsh	r3, [r2, #12]
 149:filters.c     **** 	acc = acc + ( (signed int)reg->x1[ 1 ] * (signed int)coeff[ 6 ] );
 311              		.loc 1 149 0
 312 00c2 B2F90AB0 		ldrsh	fp, [r2, #10]
 313              	.LVL34:
 150:filters.c     **** 	acc = acc + ( (signed int)reg->x2[ 1 ] * (signed int)coeff[ 7 ] );
 314              		.loc 1 150 0
 315 00c6 0AFB03F3 		mul	r3, r10, r3
 316 00ca 04FB0B33 		mla	r3, r4, fp, r3
 317              	.LVL35:
 151:filters.c     **** 	acc = acc >> Q_format;
 318              		.loc 1 151 0
 319 00ce B2F90E20 		ldrsh	r2, [r2, #14]
 320              	.LVL36:
 321 00d2 B1F902B0 		ldrsh	fp, [r1, #2]
 169:filters.c     **** 	reg->y2[ 1 ] = ( short signed int )acc2;
 322              		.loc 1 169 0
 323 00d6 09FB0EF9 		mul	r9, r9, lr
 151:filters.c     **** 	acc = acc >> Q_format;
 324              		.loc 1 151 0
 325 00da 02FB0B33 		mla	r3, r2, fp, r3
 326              	.LVL37:
 169:filters.c     **** 	reg->y2[ 1 ] = ( short signed int )acc2;
 327              		.loc 1 169 0
 328 00de 9B13     		asrs	r3, r3, #14
 329              	.LVL38:
 330 00e0 03EBA93E 		add	lr, r3, r9, asr #14
 331              	.LVL39:
 332              		.loc 1 170 0
 333 00e4 03B2     		sxth	r3, r0
 334              	.LVL40:
 171:filters.c     **** 	
 172:filters.c     **** 		
 173:filters.c     **** 	return ( short signed int )acc2;
 174:filters.c     **** 	
 175:filters.c     **** }
 335              		.loc 1 175 0
 336 00e6 1846     		mov	r0, r3
 169:filters.c     **** 	reg->y2[ 1 ] = ( short signed int )acc2;
 337              		.loc 1 169 0
 338 00e8 07FB08F7 		mul	r7, r7, r8
 339              	.LVL41:
 340 00ec AEEBA737 		sub	r7, lr, r7, asr #14
 167:filters.c     **** 	reg->x1[ 1 ] = sample;
 341              		.loc 1 167 0
 342 00f0 A1F802A0 		strh	r10, [r1, #2]	@ movhi
 343              	.LVL42:
 168:filters.c     **** 	reg->y1[ 1 ] = ( short signed int )acc1;
 344              		.loc 1 168 0
 345 00f4 A6F802C0 		strh	ip, [r6, #2]	@ movhi
 169:filters.c     **** 	reg->y2[ 1 ] = ( short signed int )acc2;
 346              		.loc 1 169 0
 347 00f8 6F80     		strh	r7, [r5, #2]	@ movhi
 170:filters.c     **** 	
 348              		.loc 1 170 0
 349 00fa 019A     		ldr	r2, [sp, #4]
 350 00fc 5380     		strh	r3, [r2, #2]	@ movhi
ARM GAS  C:\Users\larco\AppData\Local\Temp\ccmjbZGY.s 			page 11


 351              		.loc 1 175 0
 352 00fe 03B0     		add	sp, sp, #12
 353              		.cfi_def_cfa_offset 36
 354              		@ sp needed
 355 0100 BDE8F08F 		pop	{r4, r5, r6, r7, r8, r9, r10, fp, pc}
 356              	.L8:
 357              		.align	2
 358              	.L7:
 359 0104 0080FFFF 		.word	-32768
 360              		.cfi_endproc
 361              	.LFE1:
 362              		.size	iir_coupled_form, .-iir_coupled_form
 363              		.text
 364              	.Letext0:
 365              		.file 2 "filters.h"