ARM GAS  C:\Users\larco\AppData\Local\Temp\ccq3nehE.s 			page 1


   1              		.syntax unified
   2              		.cpu cortex-m3
   3              		.fpu softvfp
   4              		.eabi_attribute 20, 1
   5              		.eabi_attribute 21, 1
   6              		.eabi_attribute 23, 3
   7              		.eabi_attribute 24, 1
   8              		.eabi_attribute 25, 1
   9              		.eabi_attribute 26, 1
  10              		.eabi_attribute 30, 2
  11              		.eabi_attribute 34, 1
  12              		.eabi_attribute 18, 4
  13              		.thumb
  14              		.syntax unified
  15              		.file	"isr_adc_eoc.c"
  16              		.text
  17              	.Ltext0:
  18              		.cfi_sections	.debug_frame
  19              		.section	.text.isr_adc_eoc_Interrupt,"ax",%progbits
  20              		.align	2
  21              		.global	isr_adc_eoc_Interrupt
  22              		.thumb
  23              		.thumb_func
  24              		.type	isr_adc_eoc_Interrupt, %function
  25              	isr_adc_eoc_Interrupt:
  26              	.LFB3:
  27              		.file 1 "Generated_Source\\PSoC5\\isr_adc_eoc.c"
   1:Generated_Source\PSoC5/isr_adc_eoc.c **** /*******************************************************************************
   2:Generated_Source\PSoC5/isr_adc_eoc.c **** * File Name: isr_adc_eoc.c  
   3:Generated_Source\PSoC5/isr_adc_eoc.c **** * Version 1.70
   4:Generated_Source\PSoC5/isr_adc_eoc.c **** *
   5:Generated_Source\PSoC5/isr_adc_eoc.c **** *  Description:
   6:Generated_Source\PSoC5/isr_adc_eoc.c **** *   API for controlling the state of an interrupt.
   7:Generated_Source\PSoC5/isr_adc_eoc.c **** *
   8:Generated_Source\PSoC5/isr_adc_eoc.c **** *
   9:Generated_Source\PSoC5/isr_adc_eoc.c **** *  Note:
  10:Generated_Source\PSoC5/isr_adc_eoc.c **** *
  11:Generated_Source\PSoC5/isr_adc_eoc.c **** ********************************************************************************
  12:Generated_Source\PSoC5/isr_adc_eoc.c **** * Copyright 2008-2015, Cypress Semiconductor Corporation.  All rights reserved.
  13:Generated_Source\PSoC5/isr_adc_eoc.c **** * You may use this file only in accordance with the license, terms, conditions, 
  14:Generated_Source\PSoC5/isr_adc_eoc.c **** * disclaimers, and limitations in the end user license agreement accompanying 
  15:Generated_Source\PSoC5/isr_adc_eoc.c **** * the software package with which this file was provided.
  16:Generated_Source\PSoC5/isr_adc_eoc.c **** *******************************************************************************/
  17:Generated_Source\PSoC5/isr_adc_eoc.c **** 
  18:Generated_Source\PSoC5/isr_adc_eoc.c **** 
  19:Generated_Source\PSoC5/isr_adc_eoc.c **** #include <cydevice_trm.h>
  20:Generated_Source\PSoC5/isr_adc_eoc.c **** #include <CyLib.h>
  21:Generated_Source\PSoC5/isr_adc_eoc.c **** #include <isr_adc_eoc.h>
  22:Generated_Source\PSoC5/isr_adc_eoc.c **** #include "cyapicallbacks.h"
  23:Generated_Source\PSoC5/isr_adc_eoc.c **** 
  24:Generated_Source\PSoC5/isr_adc_eoc.c **** #if !defined(isr_adc_eoc__REMOVED) /* Check for removal by optimization */
  25:Generated_Source\PSoC5/isr_adc_eoc.c **** 
  26:Generated_Source\PSoC5/isr_adc_eoc.c **** /*******************************************************************************
  27:Generated_Source\PSoC5/isr_adc_eoc.c **** *  Place your includes, defines and code here 
  28:Generated_Source\PSoC5/isr_adc_eoc.c **** ********************************************************************************/
  29:Generated_Source\PSoC5/isr_adc_eoc.c **** /* `#START isr_adc_eoc_intc` */
  30:Generated_Source\PSoC5/isr_adc_eoc.c **** #include <ADC_DelSig_1.h>
ARM GAS  C:\Users\larco\AppData\Local\Temp\ccq3nehE.s 			page 2


  31:Generated_Source\PSoC5/isr_adc_eoc.c **** #include <buffer.h>
  32:Generated_Source\PSoC5/isr_adc_eoc.c **** #include <Pin_debug1.h>
  33:Generated_Source\PSoC5/isr_adc_eoc.c **** #include <DVDAC_1.h>
  34:Generated_Source\PSoC5/isr_adc_eoc.c ****     
  35:Generated_Source\PSoC5/isr_adc_eoc.c **** 
  36:Generated_Source\PSoC5/isr_adc_eoc.c **** /* `#END` */
  37:Generated_Source\PSoC5/isr_adc_eoc.c **** 
  38:Generated_Source\PSoC5/isr_adc_eoc.c **** #ifndef CYINT_IRQ_BASE
  39:Generated_Source\PSoC5/isr_adc_eoc.c **** #define CYINT_IRQ_BASE      16
  40:Generated_Source\PSoC5/isr_adc_eoc.c **** #endif /* CYINT_IRQ_BASE */
  41:Generated_Source\PSoC5/isr_adc_eoc.c **** #ifndef CYINT_VECT_TABLE
  42:Generated_Source\PSoC5/isr_adc_eoc.c **** #define CYINT_VECT_TABLE    ((cyisraddress **) CYREG_NVIC_VECT_OFFSET)
  43:Generated_Source\PSoC5/isr_adc_eoc.c **** #endif /* CYINT_VECT_TABLE */
  44:Generated_Source\PSoC5/isr_adc_eoc.c **** 
  45:Generated_Source\PSoC5/isr_adc_eoc.c **** /* Declared in startup, used to set unused interrupts to. */
  46:Generated_Source\PSoC5/isr_adc_eoc.c **** CY_ISR_PROTO(IntDefaultHandler);
  47:Generated_Source\PSoC5/isr_adc_eoc.c **** 
  48:Generated_Source\PSoC5/isr_adc_eoc.c **** 
  49:Generated_Source\PSoC5/isr_adc_eoc.c **** /*******************************************************************************
  50:Generated_Source\PSoC5/isr_adc_eoc.c **** * Function Name: isr_adc_eoc_Start
  51:Generated_Source\PSoC5/isr_adc_eoc.c **** ********************************************************************************
  52:Generated_Source\PSoC5/isr_adc_eoc.c **** *
  53:Generated_Source\PSoC5/isr_adc_eoc.c **** * Summary:
  54:Generated_Source\PSoC5/isr_adc_eoc.c **** *  Set up the interrupt and enable it. This function disables the interrupt, 
  55:Generated_Source\PSoC5/isr_adc_eoc.c **** *  sets the default interrupt vector, sets the priority from the value in the
  56:Generated_Source\PSoC5/isr_adc_eoc.c **** *  Design Wide Resources Interrupt Editor, then enables the interrupt to the 
  57:Generated_Source\PSoC5/isr_adc_eoc.c **** *  interrupt controller.
  58:Generated_Source\PSoC5/isr_adc_eoc.c **** *
  59:Generated_Source\PSoC5/isr_adc_eoc.c **** * Parameters:  
  60:Generated_Source\PSoC5/isr_adc_eoc.c **** *   None
  61:Generated_Source\PSoC5/isr_adc_eoc.c **** *
  62:Generated_Source\PSoC5/isr_adc_eoc.c **** * Return:
  63:Generated_Source\PSoC5/isr_adc_eoc.c **** *   None
  64:Generated_Source\PSoC5/isr_adc_eoc.c **** *
  65:Generated_Source\PSoC5/isr_adc_eoc.c **** *******************************************************************************/
  66:Generated_Source\PSoC5/isr_adc_eoc.c **** void isr_adc_eoc_Start(void)
  67:Generated_Source\PSoC5/isr_adc_eoc.c **** {
  68:Generated_Source\PSoC5/isr_adc_eoc.c ****     /* For all we know the interrupt is active. */
  69:Generated_Source\PSoC5/isr_adc_eoc.c ****     isr_adc_eoc_Disable();
  70:Generated_Source\PSoC5/isr_adc_eoc.c **** 
  71:Generated_Source\PSoC5/isr_adc_eoc.c ****     /* Set the ISR to point to the isr_adc_eoc Interrupt. */
  72:Generated_Source\PSoC5/isr_adc_eoc.c ****     isr_adc_eoc_SetVector(&isr_adc_eoc_Interrupt);
  73:Generated_Source\PSoC5/isr_adc_eoc.c **** 
  74:Generated_Source\PSoC5/isr_adc_eoc.c ****     /* Set the priority. */
  75:Generated_Source\PSoC5/isr_adc_eoc.c ****     isr_adc_eoc_SetPriority((uint8)isr_adc_eoc_INTC_PRIOR_NUMBER);
  76:Generated_Source\PSoC5/isr_adc_eoc.c **** 
  77:Generated_Source\PSoC5/isr_adc_eoc.c ****     /* Enable it. */
  78:Generated_Source\PSoC5/isr_adc_eoc.c ****     isr_adc_eoc_Enable();
  79:Generated_Source\PSoC5/isr_adc_eoc.c **** }
  80:Generated_Source\PSoC5/isr_adc_eoc.c **** 
  81:Generated_Source\PSoC5/isr_adc_eoc.c **** 
  82:Generated_Source\PSoC5/isr_adc_eoc.c **** /*******************************************************************************
  83:Generated_Source\PSoC5/isr_adc_eoc.c **** * Function Name: isr_adc_eoc_StartEx
  84:Generated_Source\PSoC5/isr_adc_eoc.c **** ********************************************************************************
  85:Generated_Source\PSoC5/isr_adc_eoc.c **** *
  86:Generated_Source\PSoC5/isr_adc_eoc.c **** * Summary:
  87:Generated_Source\PSoC5/isr_adc_eoc.c **** *  Sets up the interrupt and enables it. This function disables the interrupt,
ARM GAS  C:\Users\larco\AppData\Local\Temp\ccq3nehE.s 			page 3


  88:Generated_Source\PSoC5/isr_adc_eoc.c **** *  sets the interrupt vector based on the address passed in, sets the priority 
  89:Generated_Source\PSoC5/isr_adc_eoc.c **** *  from the value in the Design Wide Resources Interrupt Editor, then enables 
  90:Generated_Source\PSoC5/isr_adc_eoc.c **** *  the interrupt to the interrupt controller.
  91:Generated_Source\PSoC5/isr_adc_eoc.c **** *  
  92:Generated_Source\PSoC5/isr_adc_eoc.c **** *  When defining ISR functions, the CY_ISR and CY_ISR_PROTO macros should be 
  93:Generated_Source\PSoC5/isr_adc_eoc.c **** *  used to provide consistent definition across compilers:
  94:Generated_Source\PSoC5/isr_adc_eoc.c **** *  
  95:Generated_Source\PSoC5/isr_adc_eoc.c **** *  Function definition example:
  96:Generated_Source\PSoC5/isr_adc_eoc.c **** *   CY_ISR(MyISR)
  97:Generated_Source\PSoC5/isr_adc_eoc.c **** *   {
  98:Generated_Source\PSoC5/isr_adc_eoc.c **** *   }
  99:Generated_Source\PSoC5/isr_adc_eoc.c **** *   Function prototype example:
 100:Generated_Source\PSoC5/isr_adc_eoc.c **** *   CY_ISR_PROTO(MyISR);
 101:Generated_Source\PSoC5/isr_adc_eoc.c **** *
 102:Generated_Source\PSoC5/isr_adc_eoc.c **** * Parameters:  
 103:Generated_Source\PSoC5/isr_adc_eoc.c **** *   address: Address of the ISR to set in the interrupt vector table.
 104:Generated_Source\PSoC5/isr_adc_eoc.c **** *
 105:Generated_Source\PSoC5/isr_adc_eoc.c **** * Return:
 106:Generated_Source\PSoC5/isr_adc_eoc.c **** *   None
 107:Generated_Source\PSoC5/isr_adc_eoc.c **** *
 108:Generated_Source\PSoC5/isr_adc_eoc.c **** *******************************************************************************/
 109:Generated_Source\PSoC5/isr_adc_eoc.c **** void isr_adc_eoc_StartEx(cyisraddress address)
 110:Generated_Source\PSoC5/isr_adc_eoc.c **** {
 111:Generated_Source\PSoC5/isr_adc_eoc.c ****     /* For all we know the interrupt is active. */
 112:Generated_Source\PSoC5/isr_adc_eoc.c ****     isr_adc_eoc_Disable();
 113:Generated_Source\PSoC5/isr_adc_eoc.c **** 
 114:Generated_Source\PSoC5/isr_adc_eoc.c ****     /* Set the ISR to point to the isr_adc_eoc Interrupt. */
 115:Generated_Source\PSoC5/isr_adc_eoc.c ****     isr_adc_eoc_SetVector(address);
 116:Generated_Source\PSoC5/isr_adc_eoc.c **** 
 117:Generated_Source\PSoC5/isr_adc_eoc.c ****     /* Set the priority. */
 118:Generated_Source\PSoC5/isr_adc_eoc.c ****     isr_adc_eoc_SetPriority((uint8)isr_adc_eoc_INTC_PRIOR_NUMBER);
 119:Generated_Source\PSoC5/isr_adc_eoc.c **** 
 120:Generated_Source\PSoC5/isr_adc_eoc.c ****     /* Enable it. */
 121:Generated_Source\PSoC5/isr_adc_eoc.c ****     isr_adc_eoc_Enable();
 122:Generated_Source\PSoC5/isr_adc_eoc.c **** }
 123:Generated_Source\PSoC5/isr_adc_eoc.c **** 
 124:Generated_Source\PSoC5/isr_adc_eoc.c **** 
 125:Generated_Source\PSoC5/isr_adc_eoc.c **** /*******************************************************************************
 126:Generated_Source\PSoC5/isr_adc_eoc.c **** * Function Name: isr_adc_eoc_Stop
 127:Generated_Source\PSoC5/isr_adc_eoc.c **** ********************************************************************************
 128:Generated_Source\PSoC5/isr_adc_eoc.c **** *
 129:Generated_Source\PSoC5/isr_adc_eoc.c **** * Summary:
 130:Generated_Source\PSoC5/isr_adc_eoc.c **** *   Disables and removes the interrupt.
 131:Generated_Source\PSoC5/isr_adc_eoc.c **** *
 132:Generated_Source\PSoC5/isr_adc_eoc.c **** * Parameters:  
 133:Generated_Source\PSoC5/isr_adc_eoc.c **** *   None
 134:Generated_Source\PSoC5/isr_adc_eoc.c **** *
 135:Generated_Source\PSoC5/isr_adc_eoc.c **** * Return:
 136:Generated_Source\PSoC5/isr_adc_eoc.c **** *   None
 137:Generated_Source\PSoC5/isr_adc_eoc.c **** *
 138:Generated_Source\PSoC5/isr_adc_eoc.c **** *******************************************************************************/
 139:Generated_Source\PSoC5/isr_adc_eoc.c **** void isr_adc_eoc_Stop(void)
 140:Generated_Source\PSoC5/isr_adc_eoc.c **** {
 141:Generated_Source\PSoC5/isr_adc_eoc.c ****     /* Disable this interrupt. */
 142:Generated_Source\PSoC5/isr_adc_eoc.c ****     isr_adc_eoc_Disable();
 143:Generated_Source\PSoC5/isr_adc_eoc.c **** 
 144:Generated_Source\PSoC5/isr_adc_eoc.c ****     /* Set the ISR to point to the passive one. */
ARM GAS  C:\Users\larco\AppData\Local\Temp\ccq3nehE.s 			page 4


 145:Generated_Source\PSoC5/isr_adc_eoc.c ****     isr_adc_eoc_SetVector(&IntDefaultHandler);
 146:Generated_Source\PSoC5/isr_adc_eoc.c **** }
 147:Generated_Source\PSoC5/isr_adc_eoc.c **** 
 148:Generated_Source\PSoC5/isr_adc_eoc.c **** 
 149:Generated_Source\PSoC5/isr_adc_eoc.c **** /*******************************************************************************
 150:Generated_Source\PSoC5/isr_adc_eoc.c **** * Function Name: isr_adc_eoc_Interrupt
 151:Generated_Source\PSoC5/isr_adc_eoc.c **** ********************************************************************************
 152:Generated_Source\PSoC5/isr_adc_eoc.c **** *
 153:Generated_Source\PSoC5/isr_adc_eoc.c **** * Summary:
 154:Generated_Source\PSoC5/isr_adc_eoc.c **** *   The default Interrupt Service Routine for isr_adc_eoc.
 155:Generated_Source\PSoC5/isr_adc_eoc.c **** *
 156:Generated_Source\PSoC5/isr_adc_eoc.c **** *   Add custom code between the coments to keep the next version of this file
 157:Generated_Source\PSoC5/isr_adc_eoc.c **** *   from over writting your code.
 158:Generated_Source\PSoC5/isr_adc_eoc.c **** *
 159:Generated_Source\PSoC5/isr_adc_eoc.c **** * Parameters:  
 160:Generated_Source\PSoC5/isr_adc_eoc.c **** *
 161:Generated_Source\PSoC5/isr_adc_eoc.c **** * Return:
 162:Generated_Source\PSoC5/isr_adc_eoc.c **** *   None
 163:Generated_Source\PSoC5/isr_adc_eoc.c **** *
 164:Generated_Source\PSoC5/isr_adc_eoc.c **** *******************************************************************************/
 165:Generated_Source\PSoC5/isr_adc_eoc.c **** CY_ISR(isr_adc_eoc_Interrupt)
 166:Generated_Source\PSoC5/isr_adc_eoc.c **** {
  28              		.loc 1 166 0
  29              		.cfi_startproc
  30              		@ args = 0, pretend = 0, frame = 0
  31              		@ frame_needed = 0, uses_anonymous_args = 0
  32 0000 F8B5     		push	{r3, r4, r5, r6, r7, lr}
  33              		.cfi_def_cfa_offset 24
  34              		.cfi_offset 3, -24
  35              		.cfi_offset 4, -20
  36              		.cfi_offset 5, -16
  37              		.cfi_offset 6, -12
  38              		.cfi_offset 7, -8
  39              		.cfi_offset 14, -4
 167:Generated_Source\PSoC5/isr_adc_eoc.c ****     #ifdef isr_adc_eoc_INTERRUPT_INTERRUPT_CALLBACK
 168:Generated_Source\PSoC5/isr_adc_eoc.c ****         isr_adc_eoc_Interrupt_InterruptCallback();
 169:Generated_Source\PSoC5/isr_adc_eoc.c ****     #endif /* isr_adc_eoc_INTERRUPT_INTERRUPT_CALLBACK */ 
 170:Generated_Source\PSoC5/isr_adc_eoc.c **** 
 171:Generated_Source\PSoC5/isr_adc_eoc.c ****     /*  Place your Interrupt code here. */
 172:Generated_Source\PSoC5/isr_adc_eoc.c ****     /* `#START isr_adc_eoc_Interrupt` */
 173:Generated_Source\PSoC5/isr_adc_eoc.c ****     //Pin_debug1_Write( ~Pin_debug1_Read() );
 174:Generated_Source\PSoC5/isr_adc_eoc.c ****     audioBuff[buffInput][buffIndex++] = ADC_DelSig_1_GetResult16();
  40              		.loc 1 174 0
  41 0002 114D     		ldr	r5, .L5
  42 0004 114F     		ldr	r7, .L5+4
  43 0006 3C78     		ldrb	r4, [r7]	@ zero_extendqisi2
  44 0008 2B88     		ldrh	r3, [r5]
  45 000a E6B2     		uxtb	r6, r4
  46 000c 9CB2     		uxth	r4, r3
  47 000e 631C     		adds	r3, r4, #1
  48 0010 9BB2     		uxth	r3, r3
  49 0012 2B80     		strh	r3, [r5]	@ movhi
  50 0014 FFF7FEFF 		bl	ADC_DelSig_1_GetResult16
  51              	.LVL0:
  52 0018 0D4B     		ldr	r3, .L5+8
  53 001a 04EBC624 		add	r4, r4, r6, lsl #11
  54 001e 23F81400 		strh	r0, [r3, r4, lsl #1]	@ movhi
ARM GAS  C:\Users\larco\AppData\Local\Temp\ccq3nehE.s 			page 5


 175:Generated_Source\PSoC5/isr_adc_eoc.c **** 
 176:Generated_Source\PSoC5/isr_adc_eoc.c ****     //DVDAC_1_SetValue( (audioBuff[buffInput][buffIndex-1] >> 4) );
 177:Generated_Source\PSoC5/isr_adc_eoc.c **** 
 178:Generated_Source\PSoC5/isr_adc_eoc.c ****     if( buffIndex == BUFFLEN )
  55              		.loc 1 178 0
  56 0022 2B88     		ldrh	r3, [r5]
  57 0024 9BB2     		uxth	r3, r3
  58 0026 B3F5006F 		cmp	r3, #2048
  59 002a 0CD1     		bne	.L1
  60              	.LBB24:
 179:Generated_Source\PSoC5/isr_adc_eoc.c ****     {
 180:Generated_Source\PSoC5/isr_adc_eoc.c ****         //Pin_debug1_Write( ~Pin_debug1_Read() );
 181:Generated_Source\PSoC5/isr_adc_eoc.c ****         buffOutput = buffInput;
  61              		.loc 1 181 0
  62 002c 3B78     		ldrb	r3, [r7]	@ zero_extendqisi2
  63 002e 094A     		ldr	r2, .L5+12
  64 0030 DBB2     		uxtb	r3, r3
  65 0032 1370     		strb	r3, [r2]
 182:Generated_Source\PSoC5/isr_adc_eoc.c ****         buffInput = buffInput ^ 1;
  66              		.loc 1 182 0
  67 0034 3B78     		ldrb	r3, [r7]	@ zero_extendqisi2
 183:Generated_Source\PSoC5/isr_adc_eoc.c ****         buffIndex = 0;
 184:Generated_Source\PSoC5/isr_adc_eoc.c ****         buffFull = 1;
  68              		.loc 1 184 0
  69 0036 084A     		ldr	r2, .L5+16
 182:Generated_Source\PSoC5/isr_adc_eoc.c ****         buffInput = buffInput ^ 1;
  70              		.loc 1 182 0
  71 0038 83F00103 		eor	r3, r3, #1
 183:Generated_Source\PSoC5/isr_adc_eoc.c ****         buffIndex = 0;
  72              		.loc 1 183 0
  73 003c 0020     		movs	r0, #0
  74              		.loc 1 184 0
  75 003e 0121     		movs	r1, #1
 182:Generated_Source\PSoC5/isr_adc_eoc.c ****         buffInput = buffInput ^ 1;
  76              		.loc 1 182 0
  77 0040 3B70     		strb	r3, [r7]
 183:Generated_Source\PSoC5/isr_adc_eoc.c ****         buffIndex = 0;
  78              		.loc 1 183 0
  79 0042 2880     		strh	r0, [r5]	@ movhi
  80              		.loc 1 184 0
  81 0044 1170     		strb	r1, [r2]
  82              	.L1:
  83 0046 F8BD     		pop	{r3, r4, r5, r6, r7, pc}
  84              	.L6:
  85              		.align	2
  86              	.L5:
  87 0048 00000000 		.word	buffIndex
  88 004c 00000000 		.word	buffInput
  89 0050 00000000 		.word	audioBuff
  90 0054 00000000 		.word	buffOutput
  91 0058 00000000 		.word	buffFull
  92              	.LBE24:
  93              		.cfi_endproc
  94              	.LFE3:
  95              		.size	isr_adc_eoc_Interrupt, .-isr_adc_eoc_Interrupt
  96              		.section	.text.isr_adc_eoc_Start,"ax",%progbits
  97              		.align	2
ARM GAS  C:\Users\larco\AppData\Local\Temp\ccq3nehE.s 			page 6


  98              		.global	isr_adc_eoc_Start
  99              		.thumb
 100              		.thumb_func
 101              		.type	isr_adc_eoc_Start, %function
 102              	isr_adc_eoc_Start:
 103              	.LFB0:
  67:Generated_Source\PSoC5/isr_adc_eoc.c ****     /* For all we know the interrupt is active. */
 104              		.loc 1 67 0
 105              		.cfi_startproc
 106              		@ args = 0, pretend = 0, frame = 0
 107              		@ frame_needed = 0, uses_anonymous_args = 0
 108              		@ link register save eliminated.
 109 0000 70B4     		push	{r4, r5, r6}
 110              		.cfi_def_cfa_offset 12
 111              		.cfi_offset 4, -12
 112              		.cfi_offset 5, -8
 113              		.cfi_offset 6, -4
 114              	.LBB25:
 115              	.LBB26:
 185:Generated_Source\PSoC5/isr_adc_eoc.c ****     }
 186:Generated_Source\PSoC5/isr_adc_eoc.c **** 
 187:Generated_Source\PSoC5/isr_adc_eoc.c ****     /* `#END` */
 188:Generated_Source\PSoC5/isr_adc_eoc.c **** }
 189:Generated_Source\PSoC5/isr_adc_eoc.c **** 
 190:Generated_Source\PSoC5/isr_adc_eoc.c **** 
 191:Generated_Source\PSoC5/isr_adc_eoc.c **** /*******************************************************************************
 192:Generated_Source\PSoC5/isr_adc_eoc.c **** * Function Name: isr_adc_eoc_SetVector
 193:Generated_Source\PSoC5/isr_adc_eoc.c **** ********************************************************************************
 194:Generated_Source\PSoC5/isr_adc_eoc.c **** *
 195:Generated_Source\PSoC5/isr_adc_eoc.c **** * Summary:
 196:Generated_Source\PSoC5/isr_adc_eoc.c **** *   Change the ISR vector for the Interrupt. Note calling isr_adc_eoc_Start
 197:Generated_Source\PSoC5/isr_adc_eoc.c **** *   will override any effect this method would have had. To set the vector 
 198:Generated_Source\PSoC5/isr_adc_eoc.c **** *   before the component has been started use isr_adc_eoc_StartEx instead.
 199:Generated_Source\PSoC5/isr_adc_eoc.c **** * 
 200:Generated_Source\PSoC5/isr_adc_eoc.c **** *   When defining ISR functions, the CY_ISR and CY_ISR_PROTO macros should be 
 201:Generated_Source\PSoC5/isr_adc_eoc.c **** *   used to provide consistent definition across compilers:
 202:Generated_Source\PSoC5/isr_adc_eoc.c **** *
 203:Generated_Source\PSoC5/isr_adc_eoc.c **** *   Function definition example:
 204:Generated_Source\PSoC5/isr_adc_eoc.c **** *   CY_ISR(MyISR)
 205:Generated_Source\PSoC5/isr_adc_eoc.c **** *   {
 206:Generated_Source\PSoC5/isr_adc_eoc.c **** *   }
 207:Generated_Source\PSoC5/isr_adc_eoc.c **** *
 208:Generated_Source\PSoC5/isr_adc_eoc.c **** *   Function prototype example:
 209:Generated_Source\PSoC5/isr_adc_eoc.c **** *     CY_ISR_PROTO(MyISR);
 210:Generated_Source\PSoC5/isr_adc_eoc.c **** *
 211:Generated_Source\PSoC5/isr_adc_eoc.c **** * Parameters:
 212:Generated_Source\PSoC5/isr_adc_eoc.c **** *   address: Address of the ISR to set in the interrupt vector table.
 213:Generated_Source\PSoC5/isr_adc_eoc.c **** *
 214:Generated_Source\PSoC5/isr_adc_eoc.c **** * Return:
 215:Generated_Source\PSoC5/isr_adc_eoc.c **** *   None
 216:Generated_Source\PSoC5/isr_adc_eoc.c **** *
 217:Generated_Source\PSoC5/isr_adc_eoc.c **** *******************************************************************************/
 218:Generated_Source\PSoC5/isr_adc_eoc.c **** void isr_adc_eoc_SetVector(cyisraddress address)
 219:Generated_Source\PSoC5/isr_adc_eoc.c **** {
 220:Generated_Source\PSoC5/isr_adc_eoc.c ****     cyisraddress * ramVectorTable;
 221:Generated_Source\PSoC5/isr_adc_eoc.c **** 
 222:Generated_Source\PSoC5/isr_adc_eoc.c ****     ramVectorTable = (cyisraddress *) *CYINT_VECT_TABLE;
ARM GAS  C:\Users\larco\AppData\Local\Temp\ccq3nehE.s 			page 7


 116              		.loc 1 222 0
 117 0002 074B     		ldr	r3, .L9
 118              	.LBE26:
 119              	.LBE25:
 120              	.LBB29:
 121              	.LBB30:
 223:Generated_Source\PSoC5/isr_adc_eoc.c **** 
 224:Generated_Source\PSoC5/isr_adc_eoc.c ****     ramVectorTable[CYINT_IRQ_BASE + (uint32)isr_adc_eoc__INTC_NUMBER] = address;
 225:Generated_Source\PSoC5/isr_adc_eoc.c **** }
 226:Generated_Source\PSoC5/isr_adc_eoc.c **** 
 227:Generated_Source\PSoC5/isr_adc_eoc.c **** 
 228:Generated_Source\PSoC5/isr_adc_eoc.c **** /*******************************************************************************
 229:Generated_Source\PSoC5/isr_adc_eoc.c **** * Function Name: isr_adc_eoc_GetVector
 230:Generated_Source\PSoC5/isr_adc_eoc.c **** ********************************************************************************
 231:Generated_Source\PSoC5/isr_adc_eoc.c **** *
 232:Generated_Source\PSoC5/isr_adc_eoc.c **** * Summary:
 233:Generated_Source\PSoC5/isr_adc_eoc.c **** *   Gets the "address" of the current ISR vector for the Interrupt.
 234:Generated_Source\PSoC5/isr_adc_eoc.c **** *
 235:Generated_Source\PSoC5/isr_adc_eoc.c **** * Parameters:
 236:Generated_Source\PSoC5/isr_adc_eoc.c **** *   None
 237:Generated_Source\PSoC5/isr_adc_eoc.c **** *
 238:Generated_Source\PSoC5/isr_adc_eoc.c **** * Return:
 239:Generated_Source\PSoC5/isr_adc_eoc.c **** *   Address of the ISR in the interrupt vector table.
 240:Generated_Source\PSoC5/isr_adc_eoc.c **** *
 241:Generated_Source\PSoC5/isr_adc_eoc.c **** *******************************************************************************/
 242:Generated_Source\PSoC5/isr_adc_eoc.c **** cyisraddress isr_adc_eoc_GetVector(void)
 243:Generated_Source\PSoC5/isr_adc_eoc.c **** {
 244:Generated_Source\PSoC5/isr_adc_eoc.c ****     cyisraddress * ramVectorTable;
 245:Generated_Source\PSoC5/isr_adc_eoc.c **** 
 246:Generated_Source\PSoC5/isr_adc_eoc.c ****     ramVectorTable = (cyisraddress *) *CYINT_VECT_TABLE;
 247:Generated_Source\PSoC5/isr_adc_eoc.c **** 
 248:Generated_Source\PSoC5/isr_adc_eoc.c ****     return ramVectorTable[CYINT_IRQ_BASE + (uint32)isr_adc_eoc__INTC_NUMBER];
 249:Generated_Source\PSoC5/isr_adc_eoc.c **** }
 250:Generated_Source\PSoC5/isr_adc_eoc.c **** 
 251:Generated_Source\PSoC5/isr_adc_eoc.c **** 
 252:Generated_Source\PSoC5/isr_adc_eoc.c **** /*******************************************************************************
 253:Generated_Source\PSoC5/isr_adc_eoc.c **** * Function Name: isr_adc_eoc_SetPriority
 254:Generated_Source\PSoC5/isr_adc_eoc.c **** ********************************************************************************
 255:Generated_Source\PSoC5/isr_adc_eoc.c **** *
 256:Generated_Source\PSoC5/isr_adc_eoc.c **** * Summary:
 257:Generated_Source\PSoC5/isr_adc_eoc.c **** *   Sets the Priority of the Interrupt. 
 258:Generated_Source\PSoC5/isr_adc_eoc.c **** *
 259:Generated_Source\PSoC5/isr_adc_eoc.c **** *   Note calling isr_adc_eoc_Start or isr_adc_eoc_StartEx will 
 260:Generated_Source\PSoC5/isr_adc_eoc.c **** *   override any effect this API would have had. This API should only be called
 261:Generated_Source\PSoC5/isr_adc_eoc.c **** *   after isr_adc_eoc_Start or isr_adc_eoc_StartEx has been called. 
 262:Generated_Source\PSoC5/isr_adc_eoc.c **** *   To set the initial priority for the component, use the Design-Wide Resources
 263:Generated_Source\PSoC5/isr_adc_eoc.c **** *   Interrupt Editor.
 264:Generated_Source\PSoC5/isr_adc_eoc.c **** *
 265:Generated_Source\PSoC5/isr_adc_eoc.c **** *   Note This API has no effect on Non-maskable interrupt NMI).
 266:Generated_Source\PSoC5/isr_adc_eoc.c **** *
 267:Generated_Source\PSoC5/isr_adc_eoc.c **** * Parameters:
 268:Generated_Source\PSoC5/isr_adc_eoc.c **** *   priority: Priority of the interrupt, 0 being the highest priority
 269:Generated_Source\PSoC5/isr_adc_eoc.c **** *             PSoC 3 and PSoC 5LP: Priority is from 0 to 7.
 270:Generated_Source\PSoC5/isr_adc_eoc.c **** *             PSoC 4: Priority is from 0 to 3.
 271:Generated_Source\PSoC5/isr_adc_eoc.c **** *
 272:Generated_Source\PSoC5/isr_adc_eoc.c **** * Return:
 273:Generated_Source\PSoC5/isr_adc_eoc.c **** *   None
ARM GAS  C:\Users\larco\AppData\Local\Temp\ccq3nehE.s 			page 8


 274:Generated_Source\PSoC5/isr_adc_eoc.c **** *
 275:Generated_Source\PSoC5/isr_adc_eoc.c **** *******************************************************************************/
 276:Generated_Source\PSoC5/isr_adc_eoc.c **** void isr_adc_eoc_SetPriority(uint8 priority)
 277:Generated_Source\PSoC5/isr_adc_eoc.c **** {
 278:Generated_Source\PSoC5/isr_adc_eoc.c ****     *isr_adc_eoc_INTC_PRIOR = priority << 5;
 279:Generated_Source\PSoC5/isr_adc_eoc.c **** }
 280:Generated_Source\PSoC5/isr_adc_eoc.c **** 
 281:Generated_Source\PSoC5/isr_adc_eoc.c **** 
 282:Generated_Source\PSoC5/isr_adc_eoc.c **** /*******************************************************************************
 283:Generated_Source\PSoC5/isr_adc_eoc.c **** * Function Name: isr_adc_eoc_GetPriority
 284:Generated_Source\PSoC5/isr_adc_eoc.c **** ********************************************************************************
 285:Generated_Source\PSoC5/isr_adc_eoc.c **** *
 286:Generated_Source\PSoC5/isr_adc_eoc.c **** * Summary:
 287:Generated_Source\PSoC5/isr_adc_eoc.c **** *   Gets the Priority of the Interrupt.
 288:Generated_Source\PSoC5/isr_adc_eoc.c **** *
 289:Generated_Source\PSoC5/isr_adc_eoc.c **** * Parameters:
 290:Generated_Source\PSoC5/isr_adc_eoc.c **** *   None
 291:Generated_Source\PSoC5/isr_adc_eoc.c **** *
 292:Generated_Source\PSoC5/isr_adc_eoc.c **** * Return:
 293:Generated_Source\PSoC5/isr_adc_eoc.c **** *   Priority of the interrupt, 0 being the highest priority
 294:Generated_Source\PSoC5/isr_adc_eoc.c **** *    PSoC 3 and PSoC 5LP: Priority is from 0 to 7.
 295:Generated_Source\PSoC5/isr_adc_eoc.c **** *    PSoC 4: Priority is from 0 to 3.
 296:Generated_Source\PSoC5/isr_adc_eoc.c **** *
 297:Generated_Source\PSoC5/isr_adc_eoc.c **** *******************************************************************************/
 298:Generated_Source\PSoC5/isr_adc_eoc.c **** uint8 isr_adc_eoc_GetPriority(void)
 299:Generated_Source\PSoC5/isr_adc_eoc.c **** {
 300:Generated_Source\PSoC5/isr_adc_eoc.c ****     uint8 priority;
 301:Generated_Source\PSoC5/isr_adc_eoc.c **** 
 302:Generated_Source\PSoC5/isr_adc_eoc.c **** 
 303:Generated_Source\PSoC5/isr_adc_eoc.c ****     priority = *isr_adc_eoc_INTC_PRIOR >> 5;
 304:Generated_Source\PSoC5/isr_adc_eoc.c **** 
 305:Generated_Source\PSoC5/isr_adc_eoc.c ****     return priority;
 306:Generated_Source\PSoC5/isr_adc_eoc.c **** }
 307:Generated_Source\PSoC5/isr_adc_eoc.c **** 
 308:Generated_Source\PSoC5/isr_adc_eoc.c **** 
 309:Generated_Source\PSoC5/isr_adc_eoc.c **** /*******************************************************************************
 310:Generated_Source\PSoC5/isr_adc_eoc.c **** * Function Name: isr_adc_eoc_Enable
 311:Generated_Source\PSoC5/isr_adc_eoc.c **** ********************************************************************************
 312:Generated_Source\PSoC5/isr_adc_eoc.c **** *
 313:Generated_Source\PSoC5/isr_adc_eoc.c **** * Summary:
 314:Generated_Source\PSoC5/isr_adc_eoc.c **** *   Enables the interrupt to the interrupt controller. Do not call this function
 315:Generated_Source\PSoC5/isr_adc_eoc.c **** *   unless ISR_Start() has been called or the functionality of the ISR_Start() 
 316:Generated_Source\PSoC5/isr_adc_eoc.c **** *   function, which sets the vector and the priority, has been called.
 317:Generated_Source\PSoC5/isr_adc_eoc.c **** *
 318:Generated_Source\PSoC5/isr_adc_eoc.c **** * Parameters:
 319:Generated_Source\PSoC5/isr_adc_eoc.c **** *   None
 320:Generated_Source\PSoC5/isr_adc_eoc.c **** *
 321:Generated_Source\PSoC5/isr_adc_eoc.c **** * Return:
 322:Generated_Source\PSoC5/isr_adc_eoc.c **** *   None
 323:Generated_Source\PSoC5/isr_adc_eoc.c **** *
 324:Generated_Source\PSoC5/isr_adc_eoc.c **** *******************************************************************************/
 325:Generated_Source\PSoC5/isr_adc_eoc.c **** void isr_adc_eoc_Enable(void)
 326:Generated_Source\PSoC5/isr_adc_eoc.c **** {
 327:Generated_Source\PSoC5/isr_adc_eoc.c ****     /* Enable the general interrupt. */
 328:Generated_Source\PSoC5/isr_adc_eoc.c ****     *isr_adc_eoc_INTC_SET_EN = isr_adc_eoc__INTC_MASK;
 329:Generated_Source\PSoC5/isr_adc_eoc.c **** }
 330:Generated_Source\PSoC5/isr_adc_eoc.c **** 
ARM GAS  C:\Users\larco\AppData\Local\Temp\ccq3nehE.s 			page 9


 331:Generated_Source\PSoC5/isr_adc_eoc.c **** 
 332:Generated_Source\PSoC5/isr_adc_eoc.c **** /*******************************************************************************
 333:Generated_Source\PSoC5/isr_adc_eoc.c **** * Function Name: isr_adc_eoc_GetState
 334:Generated_Source\PSoC5/isr_adc_eoc.c **** ********************************************************************************
 335:Generated_Source\PSoC5/isr_adc_eoc.c **** *
 336:Generated_Source\PSoC5/isr_adc_eoc.c **** * Summary:
 337:Generated_Source\PSoC5/isr_adc_eoc.c **** *   Gets the state (enabled, disabled) of the Interrupt.
 338:Generated_Source\PSoC5/isr_adc_eoc.c **** *
 339:Generated_Source\PSoC5/isr_adc_eoc.c **** * Parameters:
 340:Generated_Source\PSoC5/isr_adc_eoc.c **** *   None
 341:Generated_Source\PSoC5/isr_adc_eoc.c **** *
 342:Generated_Source\PSoC5/isr_adc_eoc.c **** * Return:
 343:Generated_Source\PSoC5/isr_adc_eoc.c **** *   1 if enabled, 0 if disabled.
 344:Generated_Source\PSoC5/isr_adc_eoc.c **** *
 345:Generated_Source\PSoC5/isr_adc_eoc.c **** *******************************************************************************/
 346:Generated_Source\PSoC5/isr_adc_eoc.c **** uint8 isr_adc_eoc_GetState(void)
 347:Generated_Source\PSoC5/isr_adc_eoc.c **** {
 348:Generated_Source\PSoC5/isr_adc_eoc.c ****     /* Get the state of the general interrupt. */
 349:Generated_Source\PSoC5/isr_adc_eoc.c ****     return ((*isr_adc_eoc_INTC_SET_EN & (uint32)isr_adc_eoc__INTC_MASK) != 0u) ? 1u:0u;
 350:Generated_Source\PSoC5/isr_adc_eoc.c **** }
 351:Generated_Source\PSoC5/isr_adc_eoc.c **** 
 352:Generated_Source\PSoC5/isr_adc_eoc.c **** 
 353:Generated_Source\PSoC5/isr_adc_eoc.c **** /*******************************************************************************
 354:Generated_Source\PSoC5/isr_adc_eoc.c **** * Function Name: isr_adc_eoc_Disable
 355:Generated_Source\PSoC5/isr_adc_eoc.c **** ********************************************************************************
 356:Generated_Source\PSoC5/isr_adc_eoc.c **** *
 357:Generated_Source\PSoC5/isr_adc_eoc.c **** * Summary:
 358:Generated_Source\PSoC5/isr_adc_eoc.c **** *   Disables the Interrupt in the interrupt controller.
 359:Generated_Source\PSoC5/isr_adc_eoc.c **** *
 360:Generated_Source\PSoC5/isr_adc_eoc.c **** * Parameters:
 361:Generated_Source\PSoC5/isr_adc_eoc.c **** *   None
 362:Generated_Source\PSoC5/isr_adc_eoc.c **** *
 363:Generated_Source\PSoC5/isr_adc_eoc.c **** * Return:
 364:Generated_Source\PSoC5/isr_adc_eoc.c **** *   None
 365:Generated_Source\PSoC5/isr_adc_eoc.c **** *
 366:Generated_Source\PSoC5/isr_adc_eoc.c **** *******************************************************************************/
 367:Generated_Source\PSoC5/isr_adc_eoc.c **** void isr_adc_eoc_Disable(void)
 368:Generated_Source\PSoC5/isr_adc_eoc.c **** {
 369:Generated_Source\PSoC5/isr_adc_eoc.c ****     /* Disable the general interrupt. */
 370:Generated_Source\PSoC5/isr_adc_eoc.c ****     *isr_adc_eoc_INTC_CLR_EN = isr_adc_eoc__INTC_MASK;
 122              		.loc 1 370 0
 123 0004 074E     		ldr	r6, .L9+4
 124              	.LBE30:
 125              	.LBE29:
 126              	.LBB33:
 127              	.LBB27:
 222:Generated_Source\PSoC5/isr_adc_eoc.c **** 
 128              		.loc 1 222 0
 129 0006 1C68     		ldr	r4, [r3]
 224:Generated_Source\PSoC5/isr_adc_eoc.c **** }
 130              		.loc 1 224 0
 131 0008 074D     		ldr	r5, .L9+8
 132              	.LBE27:
 133              	.LBE33:
 134              	.LBB34:
 135              	.LBB35:
 278:Generated_Source\PSoC5/isr_adc_eoc.c **** }
ARM GAS  C:\Users\larco\AppData\Local\Temp\ccq3nehE.s 			page 10


 136              		.loc 1 278 0
 137 000a 0849     		ldr	r1, .L9+12
 138              	.LBE35:
 139              	.LBE34:
 140              	.LBB38:
 141              	.LBB31:
 142              		.loc 1 370 0
 143 000c 0423     		movs	r3, #4
 144              	.LBE31:
 145              	.LBE38:
 146              	.LBB39:
 147              	.LBB40:
 328:Generated_Source\PSoC5/isr_adc_eoc.c **** }
 148              		.loc 1 328 0
 149 000e 084A     		ldr	r2, .L9+16
 150              	.LBE40:
 151              	.LBE39:
 152              	.LBB42:
 153              	.LBB36:
 278:Generated_Source\PSoC5/isr_adc_eoc.c **** }
 154              		.loc 1 278 0
 155 0010 E020     		movs	r0, #224
 156              	.LBE36:
 157              	.LBE42:
 158              	.LBB43:
 159              	.LBB32:
 160              		.loc 1 370 0
 161 0012 3360     		str	r3, [r6]
 162              	.LVL1:
 163              	.LBE32:
 164              	.LBE43:
 165              	.LBB44:
 166              	.LBB28:
 224:Generated_Source\PSoC5/isr_adc_eoc.c **** }
 167              		.loc 1 224 0
 168 0014 A564     		str	r5, [r4, #72]
 169              	.LVL2:
 170              	.LBE28:
 171              	.LBE44:
 172              	.LBB45:
 173              	.LBB37:
 278:Generated_Source\PSoC5/isr_adc_eoc.c **** }
 174              		.loc 1 278 0
 175 0016 0870     		strb	r0, [r1]
 176              	.LVL3:
 177              	.LBE37:
 178              	.LBE45:
  79:Generated_Source\PSoC5/isr_adc_eoc.c **** 
 179              		.loc 1 79 0
 180 0018 70BC     		pop	{r4, r5, r6}
 181              		.cfi_restore 6
 182              		.cfi_restore 5
 183              		.cfi_restore 4
 184              		.cfi_def_cfa_offset 0
 185              	.LBB46:
 186              	.LBB41:
 328:Generated_Source\PSoC5/isr_adc_eoc.c **** }
ARM GAS  C:\Users\larco\AppData\Local\Temp\ccq3nehE.s 			page 11


 187              		.loc 1 328 0
 188 001a 1360     		str	r3, [r2]
 189              	.LBE41:
 190              	.LBE46:
  79:Generated_Source\PSoC5/isr_adc_eoc.c **** 
 191              		.loc 1 79 0
 192 001c 7047     		bx	lr
 193              	.L10:
 194 001e 00BF     		.align	2
 195              	.L9:
 196 0020 08ED00E0 		.word	-536810232
 197 0024 80E100E0 		.word	-536813184
 198 0028 00000000 		.word	isr_adc_eoc_Interrupt
 199 002c 02E400E0 		.word	-536812542
 200 0030 00E100E0 		.word	-536813312
 201              		.cfi_endproc
 202              	.LFE0:
 203              		.size	isr_adc_eoc_Start, .-isr_adc_eoc_Start
 204              		.section	.text.isr_adc_eoc_StartEx,"ax",%progbits
 205              		.align	2
 206              		.global	isr_adc_eoc_StartEx
 207              		.thumb
 208              		.thumb_func
 209              		.type	isr_adc_eoc_StartEx, %function
 210              	isr_adc_eoc_StartEx:
 211              	.LFB1:
 110:Generated_Source\PSoC5/isr_adc_eoc.c ****     /* For all we know the interrupt is active. */
 212              		.loc 1 110 0
 213              		.cfi_startproc
 214              		@ args = 0, pretend = 0, frame = 0
 215              		@ frame_needed = 0, uses_anonymous_args = 0
 216              		@ link register save eliminated.
 217              	.LVL4:
 218 0000 70B4     		push	{r4, r5, r6}
 219              		.cfi_def_cfa_offset 12
 220              		.cfi_offset 4, -12
 221              		.cfi_offset 5, -8
 222              		.cfi_offset 6, -4
 223              	.LBB47:
 224              	.LBB48:
 222:Generated_Source\PSoC5/isr_adc_eoc.c **** 
 225              		.loc 1 222 0
 226 0002 064B     		ldr	r3, .L13
 227              	.LBE48:
 228              	.LBE47:
 229              	.LBB51:
 230              	.LBB52:
 231              		.loc 1 370 0
 232 0004 064E     		ldr	r6, .L13+4
 233              	.LBE52:
 234              	.LBE51:
 235              	.LBB55:
 236              	.LBB49:
 222:Generated_Source\PSoC5/isr_adc_eoc.c **** 
 237              		.loc 1 222 0
 238 0006 1D68     		ldr	r5, [r3]
 239              	.LBE49:
ARM GAS  C:\Users\larco\AppData\Local\Temp\ccq3nehE.s 			page 12


 240              	.LBE55:
 241              	.LBB56:
 242              	.LBB57:
 278:Generated_Source\PSoC5/isr_adc_eoc.c **** }
 243              		.loc 1 278 0
 244 0008 0649     		ldr	r1, .L13+8
 245              	.LBE57:
 246              	.LBE56:
 247              	.LBB60:
 248              	.LBB53:
 249              		.loc 1 370 0
 250 000a 0423     		movs	r3, #4
 251              	.LBE53:
 252              	.LBE60:
 253              	.LBB61:
 254              	.LBB58:
 278:Generated_Source\PSoC5/isr_adc_eoc.c **** }
 255              		.loc 1 278 0
 256 000c E024     		movs	r4, #224
 257              	.LBE58:
 258              	.LBE61:
 259              	.LBB62:
 260              	.LBB63:
 328:Generated_Source\PSoC5/isr_adc_eoc.c **** }
 261              		.loc 1 328 0
 262 000e 064A     		ldr	r2, .L13+12
 263              	.LBE63:
 264              	.LBE62:
 265              	.LBB65:
 266              	.LBB54:
 267              		.loc 1 370 0
 268 0010 3360     		str	r3, [r6]
 269              	.LVL5:
 270              	.LBE54:
 271              	.LBE65:
 272              	.LBB66:
 273              	.LBB50:
 224:Generated_Source\PSoC5/isr_adc_eoc.c **** }
 274              		.loc 1 224 0
 275 0012 A864     		str	r0, [r5, #72]
 276              	.LVL6:
 277              	.LBE50:
 278              	.LBE66:
 279              	.LBB67:
 280              	.LBB59:
 278:Generated_Source\PSoC5/isr_adc_eoc.c **** }
 281              		.loc 1 278 0
 282 0014 0C70     		strb	r4, [r1]
 283              	.LVL7:
 284              	.LBE59:
 285              	.LBE67:
 122:Generated_Source\PSoC5/isr_adc_eoc.c **** 
 286              		.loc 1 122 0
 287 0016 70BC     		pop	{r4, r5, r6}
 288              		.cfi_restore 6
 289              		.cfi_restore 5
 290              		.cfi_restore 4
ARM GAS  C:\Users\larco\AppData\Local\Temp\ccq3nehE.s 			page 13


 291              		.cfi_def_cfa_offset 0
 292              	.LBB68:
 293              	.LBB64:
 328:Generated_Source\PSoC5/isr_adc_eoc.c **** }
 294              		.loc 1 328 0
 295 0018 1360     		str	r3, [r2]
 296              	.LBE64:
 297              	.LBE68:
 122:Generated_Source\PSoC5/isr_adc_eoc.c **** 
 298              		.loc 1 122 0
 299 001a 7047     		bx	lr
 300              	.L14:
 301              		.align	2
 302              	.L13:
 303 001c 08ED00E0 		.word	-536810232
 304 0020 80E100E0 		.word	-536813184
 305 0024 02E400E0 		.word	-536812542
 306 0028 00E100E0 		.word	-536813312
 307              		.cfi_endproc
 308              	.LFE1:
 309              		.size	isr_adc_eoc_StartEx, .-isr_adc_eoc_StartEx
 310              		.section	.text.isr_adc_eoc_Stop,"ax",%progbits
 311              		.align	2
 312              		.global	isr_adc_eoc_Stop
 313              		.thumb
 314              		.thumb_func
 315              		.type	isr_adc_eoc_Stop, %function
 316              	isr_adc_eoc_Stop:
 317              	.LFB2:
 140:Generated_Source\PSoC5/isr_adc_eoc.c ****     /* Disable this interrupt. */
 318              		.loc 1 140 0
 319              		.cfi_startproc
 320              		@ args = 0, pretend = 0, frame = 0
 321              		@ frame_needed = 0, uses_anonymous_args = 0
 322              		@ link register save eliminated.
 323              	.LBB69:
 324              	.LBB70:
 222:Generated_Source\PSoC5/isr_adc_eoc.c **** 
 325              		.loc 1 222 0
 326 0000 034B     		ldr	r3, .L16
 327              	.LBE70:
 328              	.LBE69:
 329              	.LBB73:
 330              	.LBB74:
 331              		.loc 1 370 0
 332 0002 0449     		ldr	r1, .L16+4
 333              	.LBE74:
 334              	.LBE73:
 335              	.LBB76:
 336              	.LBB71:
 222:Generated_Source\PSoC5/isr_adc_eoc.c **** 
 337              		.loc 1 222 0
 338 0004 1B68     		ldr	r3, [r3]
 224:Generated_Source\PSoC5/isr_adc_eoc.c **** }
 339              		.loc 1 224 0
 340 0006 044A     		ldr	r2, .L16+8
 341              	.LBE71:
ARM GAS  C:\Users\larco\AppData\Local\Temp\ccq3nehE.s 			page 14


 342              	.LBE76:
 343              	.LBB77:
 344              	.LBB75:
 345              		.loc 1 370 0
 346 0008 0420     		movs	r0, #4
 347 000a 0860     		str	r0, [r1]
 348              	.LVL8:
 349              	.LBE75:
 350              	.LBE77:
 351              	.LBB78:
 352              	.LBB72:
 224:Generated_Source\PSoC5/isr_adc_eoc.c **** }
 353              		.loc 1 224 0
 354 000c 9A64     		str	r2, [r3, #72]
 355              	.LVL9:
 356 000e 7047     		bx	lr
 357              	.L17:
 358              		.align	2
 359              	.L16:
 360 0010 08ED00E0 		.word	-536810232
 361 0014 80E100E0 		.word	-536813184
 362 0018 00000000 		.word	IntDefaultHandler
 363              	.LBE72:
 364              	.LBE78:
 365              		.cfi_endproc
 366              	.LFE2:
 367              		.size	isr_adc_eoc_Stop, .-isr_adc_eoc_Stop
 368              		.section	.text.isr_adc_eoc_SetVector,"ax",%progbits
 369              		.align	2
 370              		.global	isr_adc_eoc_SetVector
 371              		.thumb
 372              		.thumb_func
 373              		.type	isr_adc_eoc_SetVector, %function
 374              	isr_adc_eoc_SetVector:
 375              	.LFB4:
 219:Generated_Source\PSoC5/isr_adc_eoc.c ****     cyisraddress * ramVectorTable;
 376              		.loc 1 219 0
 377              		.cfi_startproc
 378              		@ args = 0, pretend = 0, frame = 0
 379              		@ frame_needed = 0, uses_anonymous_args = 0
 380              		@ link register save eliminated.
 381              	.LVL10:
 222:Generated_Source\PSoC5/isr_adc_eoc.c **** 
 382              		.loc 1 222 0
 383 0000 014B     		ldr	r3, .L19
 384 0002 1B68     		ldr	r3, [r3]
 385              	.LVL11:
 224:Generated_Source\PSoC5/isr_adc_eoc.c **** }
 386              		.loc 1 224 0
 387 0004 9864     		str	r0, [r3, #72]
 388 0006 7047     		bx	lr
 389              	.L20:
 390              		.align	2
 391              	.L19:
 392 0008 08ED00E0 		.word	-536810232
 393              		.cfi_endproc
 394              	.LFE4:
ARM GAS  C:\Users\larco\AppData\Local\Temp\ccq3nehE.s 			page 15


 395              		.size	isr_adc_eoc_SetVector, .-isr_adc_eoc_SetVector
 396              		.section	.text.isr_adc_eoc_GetVector,"ax",%progbits
 397              		.align	2
 398              		.global	isr_adc_eoc_GetVector
 399              		.thumb
 400              		.thumb_func
 401              		.type	isr_adc_eoc_GetVector, %function
 402              	isr_adc_eoc_GetVector:
 403              	.LFB5:
 243:Generated_Source\PSoC5/isr_adc_eoc.c ****     cyisraddress * ramVectorTable;
 404              		.loc 1 243 0
 405              		.cfi_startproc
 406              		@ args = 0, pretend = 0, frame = 0
 407              		@ frame_needed = 0, uses_anonymous_args = 0
 408              		@ link register save eliminated.
 409              	.LVL12:
 246:Generated_Source\PSoC5/isr_adc_eoc.c **** 
 410              		.loc 1 246 0
 411 0000 014B     		ldr	r3, .L22
 412              	.LVL13:
 248:Generated_Source\PSoC5/isr_adc_eoc.c **** }
 413              		.loc 1 248 0
 414 0002 1B68     		ldr	r3, [r3]
 415              	.LVL14:
 249:Generated_Source\PSoC5/isr_adc_eoc.c **** 
 416              		.loc 1 249 0
 417 0004 986C     		ldr	r0, [r3, #72]
 418 0006 7047     		bx	lr
 419              	.L23:
 420              		.align	2
 421              	.L22:
 422 0008 08ED00E0 		.word	-536810232
 423              		.cfi_endproc
 424              	.LFE5:
 425              		.size	isr_adc_eoc_GetVector, .-isr_adc_eoc_GetVector
 426              		.section	.text.isr_adc_eoc_SetPriority,"ax",%progbits
 427              		.align	2
 428              		.global	isr_adc_eoc_SetPriority
 429              		.thumb
 430              		.thumb_func
 431              		.type	isr_adc_eoc_SetPriority, %function
 432              	isr_adc_eoc_SetPriority:
 433              	.LFB6:
 277:Generated_Source\PSoC5/isr_adc_eoc.c ****     *isr_adc_eoc_INTC_PRIOR = priority << 5;
 434              		.loc 1 277 0
 435              		.cfi_startproc
 436              		@ args = 0, pretend = 0, frame = 0
 437              		@ frame_needed = 0, uses_anonymous_args = 0
 438              		@ link register save eliminated.
 439              	.LVL15:
 278:Generated_Source\PSoC5/isr_adc_eoc.c **** }
 440              		.loc 1 278 0
 441 0000 4001     		lsls	r0, r0, #5
 442              	.LVL16:
 443 0002 024B     		ldr	r3, .L25
 444 0004 C0B2     		uxtb	r0, r0
 445 0006 1870     		strb	r0, [r3]
ARM GAS  C:\Users\larco\AppData\Local\Temp\ccq3nehE.s 			page 16


 446 0008 7047     		bx	lr
 447              	.L26:
 448 000a 00BF     		.align	2
 449              	.L25:
 450 000c 02E400E0 		.word	-536812542
 451              		.cfi_endproc
 452              	.LFE6:
 453              		.size	isr_adc_eoc_SetPriority, .-isr_adc_eoc_SetPriority
 454              		.section	.text.isr_adc_eoc_GetPriority,"ax",%progbits
 455              		.align	2
 456              		.global	isr_adc_eoc_GetPriority
 457              		.thumb
 458              		.thumb_func
 459              		.type	isr_adc_eoc_GetPriority, %function
 460              	isr_adc_eoc_GetPriority:
 461              	.LFB7:
 299:Generated_Source\PSoC5/isr_adc_eoc.c ****     uint8 priority;
 462              		.loc 1 299 0
 463              		.cfi_startproc
 464              		@ args = 0, pretend = 0, frame = 0
 465              		@ frame_needed = 0, uses_anonymous_args = 0
 466              		@ link register save eliminated.
 303:Generated_Source\PSoC5/isr_adc_eoc.c **** 
 467              		.loc 1 303 0
 468 0000 014B     		ldr	r3, .L28
 469 0002 1878     		ldrb	r0, [r3]	@ zero_extendqisi2
 470              	.LVL17:
 306:Generated_Source\PSoC5/isr_adc_eoc.c **** 
 471              		.loc 1 306 0
 472 0004 4009     		lsrs	r0, r0, #5
 473              	.LVL18:
 474 0006 7047     		bx	lr
 475              	.L29:
 476              		.align	2
 477              	.L28:
 478 0008 02E400E0 		.word	-536812542
 479              		.cfi_endproc
 480              	.LFE7:
 481              		.size	isr_adc_eoc_GetPriority, .-isr_adc_eoc_GetPriority
 482              		.section	.text.isr_adc_eoc_Enable,"ax",%progbits
 483              		.align	2
 484              		.global	isr_adc_eoc_Enable
 485              		.thumb
 486              		.thumb_func
 487              		.type	isr_adc_eoc_Enable, %function
 488              	isr_adc_eoc_Enable:
 489              	.LFB8:
 326:Generated_Source\PSoC5/isr_adc_eoc.c ****     /* Enable the general interrupt. */
 490              		.loc 1 326 0
 491              		.cfi_startproc
 492              		@ args = 0, pretend = 0, frame = 0
 493              		@ frame_needed = 0, uses_anonymous_args = 0
 494              		@ link register save eliminated.
 328:Generated_Source\PSoC5/isr_adc_eoc.c **** }
 495              		.loc 1 328 0
 496 0000 014B     		ldr	r3, .L31
 497 0002 0422     		movs	r2, #4
ARM GAS  C:\Users\larco\AppData\Local\Temp\ccq3nehE.s 			page 17


 498 0004 1A60     		str	r2, [r3]
 499 0006 7047     		bx	lr
 500              	.L32:
 501              		.align	2
 502              	.L31:
 503 0008 00E100E0 		.word	-536813312
 504              		.cfi_endproc
 505              	.LFE8:
 506              		.size	isr_adc_eoc_Enable, .-isr_adc_eoc_Enable
 507              		.section	.text.isr_adc_eoc_GetState,"ax",%progbits
 508              		.align	2
 509              		.global	isr_adc_eoc_GetState
 510              		.thumb
 511              		.thumb_func
 512              		.type	isr_adc_eoc_GetState, %function
 513              	isr_adc_eoc_GetState:
 514              	.LFB9:
 347:Generated_Source\PSoC5/isr_adc_eoc.c ****     /* Get the state of the general interrupt. */
 515              		.loc 1 347 0
 516              		.cfi_startproc
 517              		@ args = 0, pretend = 0, frame = 0
 518              		@ frame_needed = 0, uses_anonymous_args = 0
 519              		@ link register save eliminated.
 349:Generated_Source\PSoC5/isr_adc_eoc.c **** }
 520              		.loc 1 349 0
 521 0000 024B     		ldr	r3, .L34
 522 0002 1868     		ldr	r0, [r3]
 350:Generated_Source\PSoC5/isr_adc_eoc.c **** 
 523              		.loc 1 350 0
 524 0004 C0F38000 		ubfx	r0, r0, #2, #1
 525 0008 7047     		bx	lr
 526              	.L35:
 527 000a 00BF     		.align	2
 528              	.L34:
 529 000c 00E100E0 		.word	-536813312
 530              		.cfi_endproc
 531              	.LFE9:
 532              		.size	isr_adc_eoc_GetState, .-isr_adc_eoc_GetState
 533              		.section	.text.isr_adc_eoc_Disable,"ax",%progbits
 534              		.align	2
 535              		.global	isr_adc_eoc_Disable
 536              		.thumb
 537              		.thumb_func
 538              		.type	isr_adc_eoc_Disable, %function
 539              	isr_adc_eoc_Disable:
 540              	.LFB10:
 368:Generated_Source\PSoC5/isr_adc_eoc.c ****     /* Disable the general interrupt. */
 541              		.loc 1 368 0
 542              		.cfi_startproc
 543              		@ args = 0, pretend = 0, frame = 0
 544              		@ frame_needed = 0, uses_anonymous_args = 0
 545              		@ link register save eliminated.
 546              		.loc 1 370 0
 547 0000 014B     		ldr	r3, .L37
 548 0002 0422     		movs	r2, #4
 549 0004 1A60     		str	r2, [r3]
 550 0006 7047     		bx	lr
ARM GAS  C:\Users\larco\AppData\Local\Temp\ccq3nehE.s 			page 18


 551              	.L38:
 552              		.align	2
 553              	.L37:
 554 0008 80E100E0 		.word	-536813184
 555              		.cfi_endproc
 556              	.LFE10:
 557              		.size	isr_adc_eoc_Disable, .-isr_adc_eoc_Disable
 558              		.section	.text.isr_adc_eoc_SetPending,"ax",%progbits
 559              		.align	2
 560              		.global	isr_adc_eoc_SetPending
 561              		.thumb
 562              		.thumb_func
 563              		.type	isr_adc_eoc_SetPending, %function
 564              	isr_adc_eoc_SetPending:
 565              	.LFB11:
 371:Generated_Source\PSoC5/isr_adc_eoc.c **** }
 372:Generated_Source\PSoC5/isr_adc_eoc.c **** 
 373:Generated_Source\PSoC5/isr_adc_eoc.c **** 
 374:Generated_Source\PSoC5/isr_adc_eoc.c **** /*******************************************************************************
 375:Generated_Source\PSoC5/isr_adc_eoc.c **** * Function Name: isr_adc_eoc_SetPending
 376:Generated_Source\PSoC5/isr_adc_eoc.c **** ********************************************************************************
 377:Generated_Source\PSoC5/isr_adc_eoc.c **** *
 378:Generated_Source\PSoC5/isr_adc_eoc.c **** * Summary:
 379:Generated_Source\PSoC5/isr_adc_eoc.c **** *   Causes the Interrupt to enter the pending state, a software method of
 380:Generated_Source\PSoC5/isr_adc_eoc.c **** *   generating the interrupt.
 381:Generated_Source\PSoC5/isr_adc_eoc.c **** *
 382:Generated_Source\PSoC5/isr_adc_eoc.c **** * Parameters:
 383:Generated_Source\PSoC5/isr_adc_eoc.c **** *   None
 384:Generated_Source\PSoC5/isr_adc_eoc.c **** *
 385:Generated_Source\PSoC5/isr_adc_eoc.c **** * Return:
 386:Generated_Source\PSoC5/isr_adc_eoc.c **** *   None
 387:Generated_Source\PSoC5/isr_adc_eoc.c **** *
 388:Generated_Source\PSoC5/isr_adc_eoc.c **** * Side Effects:
 389:Generated_Source\PSoC5/isr_adc_eoc.c **** *   If interrupts are enabled and the interrupt is set up properly, the ISR is
 390:Generated_Source\PSoC5/isr_adc_eoc.c **** *   entered (depending on the priority of this interrupt and other pending 
 391:Generated_Source\PSoC5/isr_adc_eoc.c **** *   interrupts).
 392:Generated_Source\PSoC5/isr_adc_eoc.c **** *
 393:Generated_Source\PSoC5/isr_adc_eoc.c **** *******************************************************************************/
 394:Generated_Source\PSoC5/isr_adc_eoc.c **** void isr_adc_eoc_SetPending(void)
 395:Generated_Source\PSoC5/isr_adc_eoc.c **** {
 566              		.loc 1 395 0
 567              		.cfi_startproc
 568              		@ args = 0, pretend = 0, frame = 0
 569              		@ frame_needed = 0, uses_anonymous_args = 0
 570              		@ link register save eliminated.
 396:Generated_Source\PSoC5/isr_adc_eoc.c ****     *isr_adc_eoc_INTC_SET_PD = isr_adc_eoc__INTC_MASK;
 571              		.loc 1 396 0
 572 0000 014B     		ldr	r3, .L40
 573 0002 0422     		movs	r2, #4
 574 0004 1A60     		str	r2, [r3]
 575 0006 7047     		bx	lr
 576              	.L41:
 577              		.align	2
 578              	.L40:
 579 0008 00E200E0 		.word	-536813056
 580              		.cfi_endproc
 581              	.LFE11:
ARM GAS  C:\Users\larco\AppData\Local\Temp\ccq3nehE.s 			page 19


 582              		.size	isr_adc_eoc_SetPending, .-isr_adc_eoc_SetPending
 583              		.section	.text.isr_adc_eoc_ClearPending,"ax",%progbits
 584              		.align	2
 585              		.global	isr_adc_eoc_ClearPending
 586              		.thumb
 587              		.thumb_func
 588              		.type	isr_adc_eoc_ClearPending, %function
 589              	isr_adc_eoc_ClearPending:
 590              	.LFB12:
 397:Generated_Source\PSoC5/isr_adc_eoc.c **** }
 398:Generated_Source\PSoC5/isr_adc_eoc.c **** 
 399:Generated_Source\PSoC5/isr_adc_eoc.c **** 
 400:Generated_Source\PSoC5/isr_adc_eoc.c **** /*******************************************************************************
 401:Generated_Source\PSoC5/isr_adc_eoc.c **** * Function Name: isr_adc_eoc_ClearPending
 402:Generated_Source\PSoC5/isr_adc_eoc.c **** ********************************************************************************
 403:Generated_Source\PSoC5/isr_adc_eoc.c **** *
 404:Generated_Source\PSoC5/isr_adc_eoc.c **** * Summary:
 405:Generated_Source\PSoC5/isr_adc_eoc.c **** *   Clears a pending interrupt in the interrupt controller.
 406:Generated_Source\PSoC5/isr_adc_eoc.c **** *
 407:Generated_Source\PSoC5/isr_adc_eoc.c **** *   Note Some interrupt sources are clear-on-read and require the block 
 408:Generated_Source\PSoC5/isr_adc_eoc.c **** *   interrupt/status register to be read/cleared with the appropriate block API 
 409:Generated_Source\PSoC5/isr_adc_eoc.c **** *   (GPIO, UART, and so on). Otherwise the ISR will continue to remain in 
 410:Generated_Source\PSoC5/isr_adc_eoc.c **** *   pending state even though the interrupt itself is cleared using this API.
 411:Generated_Source\PSoC5/isr_adc_eoc.c **** *
 412:Generated_Source\PSoC5/isr_adc_eoc.c **** * Parameters:
 413:Generated_Source\PSoC5/isr_adc_eoc.c **** *   None
 414:Generated_Source\PSoC5/isr_adc_eoc.c **** *
 415:Generated_Source\PSoC5/isr_adc_eoc.c **** * Return:
 416:Generated_Source\PSoC5/isr_adc_eoc.c **** *   None
 417:Generated_Source\PSoC5/isr_adc_eoc.c **** *
 418:Generated_Source\PSoC5/isr_adc_eoc.c **** *******************************************************************************/
 419:Generated_Source\PSoC5/isr_adc_eoc.c **** void isr_adc_eoc_ClearPending(void)
 420:Generated_Source\PSoC5/isr_adc_eoc.c **** {
 591              		.loc 1 420 0
 592              		.cfi_startproc
 593              		@ args = 0, pretend = 0, frame = 0
 594              		@ frame_needed = 0, uses_anonymous_args = 0
 595              		@ link register save eliminated.
 421:Generated_Source\PSoC5/isr_adc_eoc.c ****     *isr_adc_eoc_INTC_CLR_PD = isr_adc_eoc__INTC_MASK;
 596              		.loc 1 421 0
 597 0000 014B     		ldr	r3, .L43
 598 0002 0422     		movs	r2, #4
 599 0004 1A60     		str	r2, [r3]
 600 0006 7047     		bx	lr
 601              	.L44:
 602              		.align	2
 603              	.L43:
 604 0008 80E200E0 		.word	-536812928
 605              		.cfi_endproc
 606              	.LFE12:
 607              		.size	isr_adc_eoc_ClearPending, .-isr_adc_eoc_ClearPending
 608              		.text
 609              	.Letext0:
 610              		.file 2 "Generated_Source\\PSoC5/cytypes.h"
 611              		.file 3 "./buffer.h"
 612              		.file 4 "Generated_Source\\PSoC5/ADC_DelSig_1.h"