ARM GAS  C:\Users\larco\AppData\Local\Temp\ccoycSRe.s 			page 1


   1              		.syntax unified
   2              		.cpu cortex-m3
   3              		.fpu softvfp
   4              		.eabi_attribute 20, 1
   5              		.eabi_attribute 21, 1
   6              		.eabi_attribute 23, 3
   7              		.eabi_attribute 24, 1
   8              		.eabi_attribute 25, 1
   9              		.eabi_attribute 26, 1
  10              		.eabi_attribute 30, 2
  11              		.eabi_attribute 34, 1
  12              		.eabi_attribute 18, 4
  13              		.thumb
  14              		.syntax unified
  15              		.file	"isr_Pin_buttDown.c"
  16              		.text
  17              	.Ltext0:
  18              		.cfi_sections	.debug_frame
  19              		.section	.text.isr_Pin_buttDown_Interrupt,"ax",%progbits
  20              		.align	2
  21              		.global	isr_Pin_buttDown_Interrupt
  22              		.thumb
  23              		.thumb_func
  24              		.type	isr_Pin_buttDown_Interrupt, %function
  25              	isr_Pin_buttDown_Interrupt:
  26              	.LFB3:
  27              		.file 1 "Generated_Source\\PSoC5\\isr_Pin_buttDown.c"
   1:Generated_Source\PSoC5/isr_Pin_buttDown.c **** /*******************************************************************************
   2:Generated_Source\PSoC5/isr_Pin_buttDown.c **** * File Name: isr_Pin_buttDown.c  
   3:Generated_Source\PSoC5/isr_Pin_buttDown.c **** * Version 1.70
   4:Generated_Source\PSoC5/isr_Pin_buttDown.c **** *
   5:Generated_Source\PSoC5/isr_Pin_buttDown.c **** *  Description:
   6:Generated_Source\PSoC5/isr_Pin_buttDown.c **** *   API for controlling the state of an interrupt.
   7:Generated_Source\PSoC5/isr_Pin_buttDown.c **** *
   8:Generated_Source\PSoC5/isr_Pin_buttDown.c **** *
   9:Generated_Source\PSoC5/isr_Pin_buttDown.c **** *  Note:
  10:Generated_Source\PSoC5/isr_Pin_buttDown.c **** *
  11:Generated_Source\PSoC5/isr_Pin_buttDown.c **** ********************************************************************************
  12:Generated_Source\PSoC5/isr_Pin_buttDown.c **** * Copyright 2008-2015, Cypress Semiconductor Corporation.  All rights reserved.
  13:Generated_Source\PSoC5/isr_Pin_buttDown.c **** * You may use this file only in accordance with the license, terms, conditions, 
  14:Generated_Source\PSoC5/isr_Pin_buttDown.c **** * disclaimers, and limitations in the end user license agreement accompanying 
  15:Generated_Source\PSoC5/isr_Pin_buttDown.c **** * the software package with which this file was provided.
  16:Generated_Source\PSoC5/isr_Pin_buttDown.c **** *******************************************************************************/
  17:Generated_Source\PSoC5/isr_Pin_buttDown.c **** 
  18:Generated_Source\PSoC5/isr_Pin_buttDown.c **** 
  19:Generated_Source\PSoC5/isr_Pin_buttDown.c **** #include <cydevice_trm.h>
  20:Generated_Source\PSoC5/isr_Pin_buttDown.c **** #include <CyLib.h>
  21:Generated_Source\PSoC5/isr_Pin_buttDown.c **** #include <isr_Pin_buttDown.h>
  22:Generated_Source\PSoC5/isr_Pin_buttDown.c **** #include "cyapicallbacks.h"
  23:Generated_Source\PSoC5/isr_Pin_buttDown.c **** 
  24:Generated_Source\PSoC5/isr_Pin_buttDown.c **** #if !defined(isr_Pin_buttDown__REMOVED) /* Check for removal by optimization */
  25:Generated_Source\PSoC5/isr_Pin_buttDown.c **** 
  26:Generated_Source\PSoC5/isr_Pin_buttDown.c **** /*******************************************************************************
  27:Generated_Source\PSoC5/isr_Pin_buttDown.c **** *  Place your includes, defines and code here 
  28:Generated_Source\PSoC5/isr_Pin_buttDown.c **** ********************************************************************************/
  29:Generated_Source\PSoC5/isr_Pin_buttDown.c **** /* `#START isr_Pin_buttDown_intc` */
  30:Generated_Source\PSoC5/isr_Pin_buttDown.c **** 
ARM GAS  C:\Users\larco\AppData\Local\Temp\ccoycSRe.s 			page 2


  31:Generated_Source\PSoC5/isr_Pin_buttDown.c **** /* `#END` */
  32:Generated_Source\PSoC5/isr_Pin_buttDown.c **** 
  33:Generated_Source\PSoC5/isr_Pin_buttDown.c **** #ifndef CYINT_IRQ_BASE
  34:Generated_Source\PSoC5/isr_Pin_buttDown.c **** #define CYINT_IRQ_BASE      16
  35:Generated_Source\PSoC5/isr_Pin_buttDown.c **** #endif /* CYINT_IRQ_BASE */
  36:Generated_Source\PSoC5/isr_Pin_buttDown.c **** #ifndef CYINT_VECT_TABLE
  37:Generated_Source\PSoC5/isr_Pin_buttDown.c **** #define CYINT_VECT_TABLE    ((cyisraddress **) CYREG_NVIC_VECT_OFFSET)
  38:Generated_Source\PSoC5/isr_Pin_buttDown.c **** #endif /* CYINT_VECT_TABLE */
  39:Generated_Source\PSoC5/isr_Pin_buttDown.c **** 
  40:Generated_Source\PSoC5/isr_Pin_buttDown.c **** /* Declared in startup, used to set unused interrupts to. */
  41:Generated_Source\PSoC5/isr_Pin_buttDown.c **** CY_ISR_PROTO(IntDefaultHandler);
  42:Generated_Source\PSoC5/isr_Pin_buttDown.c **** 
  43:Generated_Source\PSoC5/isr_Pin_buttDown.c **** 
  44:Generated_Source\PSoC5/isr_Pin_buttDown.c **** /*******************************************************************************
  45:Generated_Source\PSoC5/isr_Pin_buttDown.c **** * Function Name: isr_Pin_buttDown_Start
  46:Generated_Source\PSoC5/isr_Pin_buttDown.c **** ********************************************************************************
  47:Generated_Source\PSoC5/isr_Pin_buttDown.c **** *
  48:Generated_Source\PSoC5/isr_Pin_buttDown.c **** * Summary:
  49:Generated_Source\PSoC5/isr_Pin_buttDown.c **** *  Set up the interrupt and enable it. This function disables the interrupt, 
  50:Generated_Source\PSoC5/isr_Pin_buttDown.c **** *  sets the default interrupt vector, sets the priority from the value in the
  51:Generated_Source\PSoC5/isr_Pin_buttDown.c **** *  Design Wide Resources Interrupt Editor, then enables the interrupt to the 
  52:Generated_Source\PSoC5/isr_Pin_buttDown.c **** *  interrupt controller.
  53:Generated_Source\PSoC5/isr_Pin_buttDown.c **** *
  54:Generated_Source\PSoC5/isr_Pin_buttDown.c **** * Parameters:  
  55:Generated_Source\PSoC5/isr_Pin_buttDown.c **** *   None
  56:Generated_Source\PSoC5/isr_Pin_buttDown.c **** *
  57:Generated_Source\PSoC5/isr_Pin_buttDown.c **** * Return:
  58:Generated_Source\PSoC5/isr_Pin_buttDown.c **** *   None
  59:Generated_Source\PSoC5/isr_Pin_buttDown.c **** *
  60:Generated_Source\PSoC5/isr_Pin_buttDown.c **** *******************************************************************************/
  61:Generated_Source\PSoC5/isr_Pin_buttDown.c **** void isr_Pin_buttDown_Start(void)
  62:Generated_Source\PSoC5/isr_Pin_buttDown.c **** {
  63:Generated_Source\PSoC5/isr_Pin_buttDown.c ****     /* For all we know the interrupt is active. */
  64:Generated_Source\PSoC5/isr_Pin_buttDown.c ****     isr_Pin_buttDown_Disable();
  65:Generated_Source\PSoC5/isr_Pin_buttDown.c **** 
  66:Generated_Source\PSoC5/isr_Pin_buttDown.c ****     /* Set the ISR to point to the isr_Pin_buttDown Interrupt. */
  67:Generated_Source\PSoC5/isr_Pin_buttDown.c ****     isr_Pin_buttDown_SetVector(&isr_Pin_buttDown_Interrupt);
  68:Generated_Source\PSoC5/isr_Pin_buttDown.c **** 
  69:Generated_Source\PSoC5/isr_Pin_buttDown.c ****     /* Set the priority. */
  70:Generated_Source\PSoC5/isr_Pin_buttDown.c ****     isr_Pin_buttDown_SetPriority((uint8)isr_Pin_buttDown_INTC_PRIOR_NUMBER);
  71:Generated_Source\PSoC5/isr_Pin_buttDown.c **** 
  72:Generated_Source\PSoC5/isr_Pin_buttDown.c ****     /* Enable it. */
  73:Generated_Source\PSoC5/isr_Pin_buttDown.c ****     isr_Pin_buttDown_Enable();
  74:Generated_Source\PSoC5/isr_Pin_buttDown.c **** }
  75:Generated_Source\PSoC5/isr_Pin_buttDown.c **** 
  76:Generated_Source\PSoC5/isr_Pin_buttDown.c **** 
  77:Generated_Source\PSoC5/isr_Pin_buttDown.c **** /*******************************************************************************
  78:Generated_Source\PSoC5/isr_Pin_buttDown.c **** * Function Name: isr_Pin_buttDown_StartEx
  79:Generated_Source\PSoC5/isr_Pin_buttDown.c **** ********************************************************************************
  80:Generated_Source\PSoC5/isr_Pin_buttDown.c **** *
  81:Generated_Source\PSoC5/isr_Pin_buttDown.c **** * Summary:
  82:Generated_Source\PSoC5/isr_Pin_buttDown.c **** *  Sets up the interrupt and enables it. This function disables the interrupt,
  83:Generated_Source\PSoC5/isr_Pin_buttDown.c **** *  sets the interrupt vector based on the address passed in, sets the priority 
  84:Generated_Source\PSoC5/isr_Pin_buttDown.c **** *  from the value in the Design Wide Resources Interrupt Editor, then enables 
  85:Generated_Source\PSoC5/isr_Pin_buttDown.c **** *  the interrupt to the interrupt controller.
  86:Generated_Source\PSoC5/isr_Pin_buttDown.c **** *  
  87:Generated_Source\PSoC5/isr_Pin_buttDown.c **** *  When defining ISR functions, the CY_ISR and CY_ISR_PROTO macros should be 
ARM GAS  C:\Users\larco\AppData\Local\Temp\ccoycSRe.s 			page 3


  88:Generated_Source\PSoC5/isr_Pin_buttDown.c **** *  used to provide consistent definition across compilers:
  89:Generated_Source\PSoC5/isr_Pin_buttDown.c **** *  
  90:Generated_Source\PSoC5/isr_Pin_buttDown.c **** *  Function definition example:
  91:Generated_Source\PSoC5/isr_Pin_buttDown.c **** *   CY_ISR(MyISR)
  92:Generated_Source\PSoC5/isr_Pin_buttDown.c **** *   {
  93:Generated_Source\PSoC5/isr_Pin_buttDown.c **** *   }
  94:Generated_Source\PSoC5/isr_Pin_buttDown.c **** *   Function prototype example:
  95:Generated_Source\PSoC5/isr_Pin_buttDown.c **** *   CY_ISR_PROTO(MyISR);
  96:Generated_Source\PSoC5/isr_Pin_buttDown.c **** *
  97:Generated_Source\PSoC5/isr_Pin_buttDown.c **** * Parameters:  
  98:Generated_Source\PSoC5/isr_Pin_buttDown.c **** *   address: Address of the ISR to set in the interrupt vector table.
  99:Generated_Source\PSoC5/isr_Pin_buttDown.c **** *
 100:Generated_Source\PSoC5/isr_Pin_buttDown.c **** * Return:
 101:Generated_Source\PSoC5/isr_Pin_buttDown.c **** *   None
 102:Generated_Source\PSoC5/isr_Pin_buttDown.c **** *
 103:Generated_Source\PSoC5/isr_Pin_buttDown.c **** *******************************************************************************/
 104:Generated_Source\PSoC5/isr_Pin_buttDown.c **** void isr_Pin_buttDown_StartEx(cyisraddress address)
 105:Generated_Source\PSoC5/isr_Pin_buttDown.c **** {
 106:Generated_Source\PSoC5/isr_Pin_buttDown.c ****     /* For all we know the interrupt is active. */
 107:Generated_Source\PSoC5/isr_Pin_buttDown.c ****     isr_Pin_buttDown_Disable();
 108:Generated_Source\PSoC5/isr_Pin_buttDown.c **** 
 109:Generated_Source\PSoC5/isr_Pin_buttDown.c ****     /* Set the ISR to point to the isr_Pin_buttDown Interrupt. */
 110:Generated_Source\PSoC5/isr_Pin_buttDown.c ****     isr_Pin_buttDown_SetVector(address);
 111:Generated_Source\PSoC5/isr_Pin_buttDown.c **** 
 112:Generated_Source\PSoC5/isr_Pin_buttDown.c ****     /* Set the priority. */
 113:Generated_Source\PSoC5/isr_Pin_buttDown.c ****     isr_Pin_buttDown_SetPriority((uint8)isr_Pin_buttDown_INTC_PRIOR_NUMBER);
 114:Generated_Source\PSoC5/isr_Pin_buttDown.c **** 
 115:Generated_Source\PSoC5/isr_Pin_buttDown.c ****     /* Enable it. */
 116:Generated_Source\PSoC5/isr_Pin_buttDown.c ****     isr_Pin_buttDown_Enable();
 117:Generated_Source\PSoC5/isr_Pin_buttDown.c **** }
 118:Generated_Source\PSoC5/isr_Pin_buttDown.c **** 
 119:Generated_Source\PSoC5/isr_Pin_buttDown.c **** 
 120:Generated_Source\PSoC5/isr_Pin_buttDown.c **** /*******************************************************************************
 121:Generated_Source\PSoC5/isr_Pin_buttDown.c **** * Function Name: isr_Pin_buttDown_Stop
 122:Generated_Source\PSoC5/isr_Pin_buttDown.c **** ********************************************************************************
 123:Generated_Source\PSoC5/isr_Pin_buttDown.c **** *
 124:Generated_Source\PSoC5/isr_Pin_buttDown.c **** * Summary:
 125:Generated_Source\PSoC5/isr_Pin_buttDown.c **** *   Disables and removes the interrupt.
 126:Generated_Source\PSoC5/isr_Pin_buttDown.c **** *
 127:Generated_Source\PSoC5/isr_Pin_buttDown.c **** * Parameters:  
 128:Generated_Source\PSoC5/isr_Pin_buttDown.c **** *   None
 129:Generated_Source\PSoC5/isr_Pin_buttDown.c **** *
 130:Generated_Source\PSoC5/isr_Pin_buttDown.c **** * Return:
 131:Generated_Source\PSoC5/isr_Pin_buttDown.c **** *   None
 132:Generated_Source\PSoC5/isr_Pin_buttDown.c **** *
 133:Generated_Source\PSoC5/isr_Pin_buttDown.c **** *******************************************************************************/
 134:Generated_Source\PSoC5/isr_Pin_buttDown.c **** void isr_Pin_buttDown_Stop(void)
 135:Generated_Source\PSoC5/isr_Pin_buttDown.c **** {
 136:Generated_Source\PSoC5/isr_Pin_buttDown.c ****     /* Disable this interrupt. */
 137:Generated_Source\PSoC5/isr_Pin_buttDown.c ****     isr_Pin_buttDown_Disable();
 138:Generated_Source\PSoC5/isr_Pin_buttDown.c **** 
 139:Generated_Source\PSoC5/isr_Pin_buttDown.c ****     /* Set the ISR to point to the passive one. */
 140:Generated_Source\PSoC5/isr_Pin_buttDown.c ****     isr_Pin_buttDown_SetVector(&IntDefaultHandler);
 141:Generated_Source\PSoC5/isr_Pin_buttDown.c **** }
 142:Generated_Source\PSoC5/isr_Pin_buttDown.c **** 
 143:Generated_Source\PSoC5/isr_Pin_buttDown.c **** 
 144:Generated_Source\PSoC5/isr_Pin_buttDown.c **** /*******************************************************************************
ARM GAS  C:\Users\larco\AppData\Local\Temp\ccoycSRe.s 			page 4


 145:Generated_Source\PSoC5/isr_Pin_buttDown.c **** * Function Name: isr_Pin_buttDown_Interrupt
 146:Generated_Source\PSoC5/isr_Pin_buttDown.c **** ********************************************************************************
 147:Generated_Source\PSoC5/isr_Pin_buttDown.c **** *
 148:Generated_Source\PSoC5/isr_Pin_buttDown.c **** * Summary:
 149:Generated_Source\PSoC5/isr_Pin_buttDown.c **** *   The default Interrupt Service Routine for isr_Pin_buttDown.
 150:Generated_Source\PSoC5/isr_Pin_buttDown.c **** *
 151:Generated_Source\PSoC5/isr_Pin_buttDown.c **** *   Add custom code between the coments to keep the next version of this file
 152:Generated_Source\PSoC5/isr_Pin_buttDown.c **** *   from over writting your code.
 153:Generated_Source\PSoC5/isr_Pin_buttDown.c **** *
 154:Generated_Source\PSoC5/isr_Pin_buttDown.c **** * Parameters:  
 155:Generated_Source\PSoC5/isr_Pin_buttDown.c **** *
 156:Generated_Source\PSoC5/isr_Pin_buttDown.c **** * Return:
 157:Generated_Source\PSoC5/isr_Pin_buttDown.c **** *   None
 158:Generated_Source\PSoC5/isr_Pin_buttDown.c **** *
 159:Generated_Source\PSoC5/isr_Pin_buttDown.c **** *******************************************************************************/
 160:Generated_Source\PSoC5/isr_Pin_buttDown.c **** CY_ISR(isr_Pin_buttDown_Interrupt)
 161:Generated_Source\PSoC5/isr_Pin_buttDown.c **** {
  28              		.loc 1 161 0
  29              		.cfi_startproc
  30              		@ args = 0, pretend = 0, frame = 0
  31              		@ frame_needed = 0, uses_anonymous_args = 0
  32              		@ link register save eliminated.
 162:Generated_Source\PSoC5/isr_Pin_buttDown.c ****     #ifdef isr_Pin_buttDown_INTERRUPT_INTERRUPT_CALLBACK
 163:Generated_Source\PSoC5/isr_Pin_buttDown.c ****         isr_Pin_buttDown_Interrupt_InterruptCallback();
 164:Generated_Source\PSoC5/isr_Pin_buttDown.c ****     #endif /* isr_Pin_buttDown_INTERRUPT_INTERRUPT_CALLBACK */ 
 165:Generated_Source\PSoC5/isr_Pin_buttDown.c **** 
 166:Generated_Source\PSoC5/isr_Pin_buttDown.c ****     /*  Place your Interrupt code here. */
 167:Generated_Source\PSoC5/isr_Pin_buttDown.c ****     /* `#START isr_Pin_buttDown_Interrupt` */
 168:Generated_Source\PSoC5/isr_Pin_buttDown.c ****     extern volatile uint8 buttonPress;
 169:Generated_Source\PSoC5/isr_Pin_buttDown.c ****     extern volatile uint8 buttonDown;
 170:Generated_Source\PSoC5/isr_Pin_buttDown.c ****     
 171:Generated_Source\PSoC5/isr_Pin_buttDown.c ****     buttonPress = 1;
  33              		.loc 1 171 0
  34 0000 014B     		ldr	r3, .L2
  35 0002 0122     		movs	r2, #1
  36 0004 1A70     		strb	r2, [r3]
  37 0006 7047     		bx	lr
  38              	.L3:
  39              		.align	2
  40              	.L2:
  41 0008 00000000 		.word	buttonPress
  42              		.cfi_endproc
  43              	.LFE3:
  44              		.size	isr_Pin_buttDown_Interrupt, .-isr_Pin_buttDown_Interrupt
  45              		.section	.text.isr_Pin_buttDown_Start,"ax",%progbits
  46              		.align	2
  47              		.global	isr_Pin_buttDown_Start
  48              		.thumb
  49              		.thumb_func
  50              		.type	isr_Pin_buttDown_Start, %function
  51              	isr_Pin_buttDown_Start:
  52              	.LFB0:
  62:Generated_Source\PSoC5/isr_Pin_buttDown.c ****     /* For all we know the interrupt is active. */
  53              		.loc 1 62 0
  54              		.cfi_startproc
  55              		@ args = 0, pretend = 0, frame = 0
  56              		@ frame_needed = 0, uses_anonymous_args = 0
ARM GAS  C:\Users\larco\AppData\Local\Temp\ccoycSRe.s 			page 5


  57              		@ link register save eliminated.
  58 0000 70B4     		push	{r4, r5, r6}
  59              		.cfi_def_cfa_offset 12
  60              		.cfi_offset 4, -12
  61              		.cfi_offset 5, -8
  62              		.cfi_offset 6, -4
  63              	.LBB22:
  64              	.LBB23:
 172:Generated_Source\PSoC5/isr_Pin_buttDown.c ****     //buttonDown = 1;    
 173:Generated_Source\PSoC5/isr_Pin_buttDown.c **** 
 174:Generated_Source\PSoC5/isr_Pin_buttDown.c ****     /* `#END` */
 175:Generated_Source\PSoC5/isr_Pin_buttDown.c **** }
 176:Generated_Source\PSoC5/isr_Pin_buttDown.c **** 
 177:Generated_Source\PSoC5/isr_Pin_buttDown.c **** 
 178:Generated_Source\PSoC5/isr_Pin_buttDown.c **** /*******************************************************************************
 179:Generated_Source\PSoC5/isr_Pin_buttDown.c **** * Function Name: isr_Pin_buttDown_SetVector
 180:Generated_Source\PSoC5/isr_Pin_buttDown.c **** ********************************************************************************
 181:Generated_Source\PSoC5/isr_Pin_buttDown.c **** *
 182:Generated_Source\PSoC5/isr_Pin_buttDown.c **** * Summary:
 183:Generated_Source\PSoC5/isr_Pin_buttDown.c **** *   Change the ISR vector for the Interrupt. Note calling isr_Pin_buttDown_Start
 184:Generated_Source\PSoC5/isr_Pin_buttDown.c **** *   will override any effect this method would have had. To set the vector 
 185:Generated_Source\PSoC5/isr_Pin_buttDown.c **** *   before the component has been started use isr_Pin_buttDown_StartEx instead.
 186:Generated_Source\PSoC5/isr_Pin_buttDown.c **** * 
 187:Generated_Source\PSoC5/isr_Pin_buttDown.c **** *   When defining ISR functions, the CY_ISR and CY_ISR_PROTO macros should be 
 188:Generated_Source\PSoC5/isr_Pin_buttDown.c **** *   used to provide consistent definition across compilers:
 189:Generated_Source\PSoC5/isr_Pin_buttDown.c **** *
 190:Generated_Source\PSoC5/isr_Pin_buttDown.c **** *   Function definition example:
 191:Generated_Source\PSoC5/isr_Pin_buttDown.c **** *   CY_ISR(MyISR)
 192:Generated_Source\PSoC5/isr_Pin_buttDown.c **** *   {
 193:Generated_Source\PSoC5/isr_Pin_buttDown.c **** *   }
 194:Generated_Source\PSoC5/isr_Pin_buttDown.c **** *
 195:Generated_Source\PSoC5/isr_Pin_buttDown.c **** *   Function prototype example:
 196:Generated_Source\PSoC5/isr_Pin_buttDown.c **** *     CY_ISR_PROTO(MyISR);
 197:Generated_Source\PSoC5/isr_Pin_buttDown.c **** *
 198:Generated_Source\PSoC5/isr_Pin_buttDown.c **** * Parameters:
 199:Generated_Source\PSoC5/isr_Pin_buttDown.c **** *   address: Address of the ISR to set in the interrupt vector table.
 200:Generated_Source\PSoC5/isr_Pin_buttDown.c **** *
 201:Generated_Source\PSoC5/isr_Pin_buttDown.c **** * Return:
 202:Generated_Source\PSoC5/isr_Pin_buttDown.c **** *   None
 203:Generated_Source\PSoC5/isr_Pin_buttDown.c **** *
 204:Generated_Source\PSoC5/isr_Pin_buttDown.c **** *******************************************************************************/
 205:Generated_Source\PSoC5/isr_Pin_buttDown.c **** void isr_Pin_buttDown_SetVector(cyisraddress address)
 206:Generated_Source\PSoC5/isr_Pin_buttDown.c **** {
 207:Generated_Source\PSoC5/isr_Pin_buttDown.c ****     cyisraddress * ramVectorTable;
 208:Generated_Source\PSoC5/isr_Pin_buttDown.c **** 
 209:Generated_Source\PSoC5/isr_Pin_buttDown.c ****     ramVectorTable = (cyisraddress *) *CYINT_VECT_TABLE;
  65              		.loc 1 209 0
  66 0002 074B     		ldr	r3, .L6
  67              	.LBE23:
  68              	.LBE22:
  69              	.LBB26:
  70              	.LBB27:
 210:Generated_Source\PSoC5/isr_Pin_buttDown.c **** 
 211:Generated_Source\PSoC5/isr_Pin_buttDown.c ****     ramVectorTable[CYINT_IRQ_BASE + (uint32)isr_Pin_buttDown__INTC_NUMBER] = address;
 212:Generated_Source\PSoC5/isr_Pin_buttDown.c **** }
 213:Generated_Source\PSoC5/isr_Pin_buttDown.c **** 
 214:Generated_Source\PSoC5/isr_Pin_buttDown.c **** 
ARM GAS  C:\Users\larco\AppData\Local\Temp\ccoycSRe.s 			page 6


 215:Generated_Source\PSoC5/isr_Pin_buttDown.c **** /*******************************************************************************
 216:Generated_Source\PSoC5/isr_Pin_buttDown.c **** * Function Name: isr_Pin_buttDown_GetVector
 217:Generated_Source\PSoC5/isr_Pin_buttDown.c **** ********************************************************************************
 218:Generated_Source\PSoC5/isr_Pin_buttDown.c **** *
 219:Generated_Source\PSoC5/isr_Pin_buttDown.c **** * Summary:
 220:Generated_Source\PSoC5/isr_Pin_buttDown.c **** *   Gets the "address" of the current ISR vector for the Interrupt.
 221:Generated_Source\PSoC5/isr_Pin_buttDown.c **** *
 222:Generated_Source\PSoC5/isr_Pin_buttDown.c **** * Parameters:
 223:Generated_Source\PSoC5/isr_Pin_buttDown.c **** *   None
 224:Generated_Source\PSoC5/isr_Pin_buttDown.c **** *
 225:Generated_Source\PSoC5/isr_Pin_buttDown.c **** * Return:
 226:Generated_Source\PSoC5/isr_Pin_buttDown.c **** *   Address of the ISR in the interrupt vector table.
 227:Generated_Source\PSoC5/isr_Pin_buttDown.c **** *
 228:Generated_Source\PSoC5/isr_Pin_buttDown.c **** *******************************************************************************/
 229:Generated_Source\PSoC5/isr_Pin_buttDown.c **** cyisraddress isr_Pin_buttDown_GetVector(void)
 230:Generated_Source\PSoC5/isr_Pin_buttDown.c **** {
 231:Generated_Source\PSoC5/isr_Pin_buttDown.c ****     cyisraddress * ramVectorTable;
 232:Generated_Source\PSoC5/isr_Pin_buttDown.c **** 
 233:Generated_Source\PSoC5/isr_Pin_buttDown.c ****     ramVectorTable = (cyisraddress *) *CYINT_VECT_TABLE;
 234:Generated_Source\PSoC5/isr_Pin_buttDown.c **** 
 235:Generated_Source\PSoC5/isr_Pin_buttDown.c ****     return ramVectorTable[CYINT_IRQ_BASE + (uint32)isr_Pin_buttDown__INTC_NUMBER];
 236:Generated_Source\PSoC5/isr_Pin_buttDown.c **** }
 237:Generated_Source\PSoC5/isr_Pin_buttDown.c **** 
 238:Generated_Source\PSoC5/isr_Pin_buttDown.c **** 
 239:Generated_Source\PSoC5/isr_Pin_buttDown.c **** /*******************************************************************************
 240:Generated_Source\PSoC5/isr_Pin_buttDown.c **** * Function Name: isr_Pin_buttDown_SetPriority
 241:Generated_Source\PSoC5/isr_Pin_buttDown.c **** ********************************************************************************
 242:Generated_Source\PSoC5/isr_Pin_buttDown.c **** *
 243:Generated_Source\PSoC5/isr_Pin_buttDown.c **** * Summary:
 244:Generated_Source\PSoC5/isr_Pin_buttDown.c **** *   Sets the Priority of the Interrupt. 
 245:Generated_Source\PSoC5/isr_Pin_buttDown.c **** *
 246:Generated_Source\PSoC5/isr_Pin_buttDown.c **** *   Note calling isr_Pin_buttDown_Start or isr_Pin_buttDown_StartEx will 
 247:Generated_Source\PSoC5/isr_Pin_buttDown.c **** *   override any effect this API would have had. This API should only be called
 248:Generated_Source\PSoC5/isr_Pin_buttDown.c **** *   after isr_Pin_buttDown_Start or isr_Pin_buttDown_StartEx has been called. 
 249:Generated_Source\PSoC5/isr_Pin_buttDown.c **** *   To set the initial priority for the component, use the Design-Wide Resources
 250:Generated_Source\PSoC5/isr_Pin_buttDown.c **** *   Interrupt Editor.
 251:Generated_Source\PSoC5/isr_Pin_buttDown.c **** *
 252:Generated_Source\PSoC5/isr_Pin_buttDown.c **** *   Note This API has no effect on Non-maskable interrupt NMI).
 253:Generated_Source\PSoC5/isr_Pin_buttDown.c **** *
 254:Generated_Source\PSoC5/isr_Pin_buttDown.c **** * Parameters:
 255:Generated_Source\PSoC5/isr_Pin_buttDown.c **** *   priority: Priority of the interrupt, 0 being the highest priority
 256:Generated_Source\PSoC5/isr_Pin_buttDown.c **** *             PSoC 3 and PSoC 5LP: Priority is from 0 to 7.
 257:Generated_Source\PSoC5/isr_Pin_buttDown.c **** *             PSoC 4: Priority is from 0 to 3.
 258:Generated_Source\PSoC5/isr_Pin_buttDown.c **** *
 259:Generated_Source\PSoC5/isr_Pin_buttDown.c **** * Return:
 260:Generated_Source\PSoC5/isr_Pin_buttDown.c **** *   None
 261:Generated_Source\PSoC5/isr_Pin_buttDown.c **** *
 262:Generated_Source\PSoC5/isr_Pin_buttDown.c **** *******************************************************************************/
 263:Generated_Source\PSoC5/isr_Pin_buttDown.c **** void isr_Pin_buttDown_SetPriority(uint8 priority)
 264:Generated_Source\PSoC5/isr_Pin_buttDown.c **** {
 265:Generated_Source\PSoC5/isr_Pin_buttDown.c ****     *isr_Pin_buttDown_INTC_PRIOR = priority << 5;
 266:Generated_Source\PSoC5/isr_Pin_buttDown.c **** }
 267:Generated_Source\PSoC5/isr_Pin_buttDown.c **** 
 268:Generated_Source\PSoC5/isr_Pin_buttDown.c **** 
 269:Generated_Source\PSoC5/isr_Pin_buttDown.c **** /*******************************************************************************
 270:Generated_Source\PSoC5/isr_Pin_buttDown.c **** * Function Name: isr_Pin_buttDown_GetPriority
 271:Generated_Source\PSoC5/isr_Pin_buttDown.c **** ********************************************************************************
ARM GAS  C:\Users\larco\AppData\Local\Temp\ccoycSRe.s 			page 7


 272:Generated_Source\PSoC5/isr_Pin_buttDown.c **** *
 273:Generated_Source\PSoC5/isr_Pin_buttDown.c **** * Summary:
 274:Generated_Source\PSoC5/isr_Pin_buttDown.c **** *   Gets the Priority of the Interrupt.
 275:Generated_Source\PSoC5/isr_Pin_buttDown.c **** *
 276:Generated_Source\PSoC5/isr_Pin_buttDown.c **** * Parameters:
 277:Generated_Source\PSoC5/isr_Pin_buttDown.c **** *   None
 278:Generated_Source\PSoC5/isr_Pin_buttDown.c **** *
 279:Generated_Source\PSoC5/isr_Pin_buttDown.c **** * Return:
 280:Generated_Source\PSoC5/isr_Pin_buttDown.c **** *   Priority of the interrupt, 0 being the highest priority
 281:Generated_Source\PSoC5/isr_Pin_buttDown.c **** *    PSoC 3 and PSoC 5LP: Priority is from 0 to 7.
 282:Generated_Source\PSoC5/isr_Pin_buttDown.c **** *    PSoC 4: Priority is from 0 to 3.
 283:Generated_Source\PSoC5/isr_Pin_buttDown.c **** *
 284:Generated_Source\PSoC5/isr_Pin_buttDown.c **** *******************************************************************************/
 285:Generated_Source\PSoC5/isr_Pin_buttDown.c **** uint8 isr_Pin_buttDown_GetPriority(void)
 286:Generated_Source\PSoC5/isr_Pin_buttDown.c **** {
 287:Generated_Source\PSoC5/isr_Pin_buttDown.c ****     uint8 priority;
 288:Generated_Source\PSoC5/isr_Pin_buttDown.c **** 
 289:Generated_Source\PSoC5/isr_Pin_buttDown.c **** 
 290:Generated_Source\PSoC5/isr_Pin_buttDown.c ****     priority = *isr_Pin_buttDown_INTC_PRIOR >> 5;
 291:Generated_Source\PSoC5/isr_Pin_buttDown.c **** 
 292:Generated_Source\PSoC5/isr_Pin_buttDown.c ****     return priority;
 293:Generated_Source\PSoC5/isr_Pin_buttDown.c **** }
 294:Generated_Source\PSoC5/isr_Pin_buttDown.c **** 
 295:Generated_Source\PSoC5/isr_Pin_buttDown.c **** 
 296:Generated_Source\PSoC5/isr_Pin_buttDown.c **** /*******************************************************************************
 297:Generated_Source\PSoC5/isr_Pin_buttDown.c **** * Function Name: isr_Pin_buttDown_Enable
 298:Generated_Source\PSoC5/isr_Pin_buttDown.c **** ********************************************************************************
 299:Generated_Source\PSoC5/isr_Pin_buttDown.c **** *
 300:Generated_Source\PSoC5/isr_Pin_buttDown.c **** * Summary:
 301:Generated_Source\PSoC5/isr_Pin_buttDown.c **** *   Enables the interrupt to the interrupt controller. Do not call this function
 302:Generated_Source\PSoC5/isr_Pin_buttDown.c **** *   unless ISR_Start() has been called or the functionality of the ISR_Start() 
 303:Generated_Source\PSoC5/isr_Pin_buttDown.c **** *   function, which sets the vector and the priority, has been called.
 304:Generated_Source\PSoC5/isr_Pin_buttDown.c **** *
 305:Generated_Source\PSoC5/isr_Pin_buttDown.c **** * Parameters:
 306:Generated_Source\PSoC5/isr_Pin_buttDown.c **** *   None
 307:Generated_Source\PSoC5/isr_Pin_buttDown.c **** *
 308:Generated_Source\PSoC5/isr_Pin_buttDown.c **** * Return:
 309:Generated_Source\PSoC5/isr_Pin_buttDown.c **** *   None
 310:Generated_Source\PSoC5/isr_Pin_buttDown.c **** *
 311:Generated_Source\PSoC5/isr_Pin_buttDown.c **** *******************************************************************************/
 312:Generated_Source\PSoC5/isr_Pin_buttDown.c **** void isr_Pin_buttDown_Enable(void)
 313:Generated_Source\PSoC5/isr_Pin_buttDown.c **** {
 314:Generated_Source\PSoC5/isr_Pin_buttDown.c ****     /* Enable the general interrupt. */
 315:Generated_Source\PSoC5/isr_Pin_buttDown.c ****     *isr_Pin_buttDown_INTC_SET_EN = isr_Pin_buttDown__INTC_MASK;
 316:Generated_Source\PSoC5/isr_Pin_buttDown.c **** }
 317:Generated_Source\PSoC5/isr_Pin_buttDown.c **** 
 318:Generated_Source\PSoC5/isr_Pin_buttDown.c **** 
 319:Generated_Source\PSoC5/isr_Pin_buttDown.c **** /*******************************************************************************
 320:Generated_Source\PSoC5/isr_Pin_buttDown.c **** * Function Name: isr_Pin_buttDown_GetState
 321:Generated_Source\PSoC5/isr_Pin_buttDown.c **** ********************************************************************************
 322:Generated_Source\PSoC5/isr_Pin_buttDown.c **** *
 323:Generated_Source\PSoC5/isr_Pin_buttDown.c **** * Summary:
 324:Generated_Source\PSoC5/isr_Pin_buttDown.c **** *   Gets the state (enabled, disabled) of the Interrupt.
 325:Generated_Source\PSoC5/isr_Pin_buttDown.c **** *
 326:Generated_Source\PSoC5/isr_Pin_buttDown.c **** * Parameters:
 327:Generated_Source\PSoC5/isr_Pin_buttDown.c **** *   None
 328:Generated_Source\PSoC5/isr_Pin_buttDown.c **** *
ARM GAS  C:\Users\larco\AppData\Local\Temp\ccoycSRe.s 			page 8


 329:Generated_Source\PSoC5/isr_Pin_buttDown.c **** * Return:
 330:Generated_Source\PSoC5/isr_Pin_buttDown.c **** *   1 if enabled, 0 if disabled.
 331:Generated_Source\PSoC5/isr_Pin_buttDown.c **** *
 332:Generated_Source\PSoC5/isr_Pin_buttDown.c **** *******************************************************************************/
 333:Generated_Source\PSoC5/isr_Pin_buttDown.c **** uint8 isr_Pin_buttDown_GetState(void)
 334:Generated_Source\PSoC5/isr_Pin_buttDown.c **** {
 335:Generated_Source\PSoC5/isr_Pin_buttDown.c ****     /* Get the state of the general interrupt. */
 336:Generated_Source\PSoC5/isr_Pin_buttDown.c ****     return ((*isr_Pin_buttDown_INTC_SET_EN & (uint32)isr_Pin_buttDown__INTC_MASK) != 0u) ? 1u:0u;
 337:Generated_Source\PSoC5/isr_Pin_buttDown.c **** }
 338:Generated_Source\PSoC5/isr_Pin_buttDown.c **** 
 339:Generated_Source\PSoC5/isr_Pin_buttDown.c **** 
 340:Generated_Source\PSoC5/isr_Pin_buttDown.c **** /*******************************************************************************
 341:Generated_Source\PSoC5/isr_Pin_buttDown.c **** * Function Name: isr_Pin_buttDown_Disable
 342:Generated_Source\PSoC5/isr_Pin_buttDown.c **** ********************************************************************************
 343:Generated_Source\PSoC5/isr_Pin_buttDown.c **** *
 344:Generated_Source\PSoC5/isr_Pin_buttDown.c **** * Summary:
 345:Generated_Source\PSoC5/isr_Pin_buttDown.c **** *   Disables the Interrupt in the interrupt controller.
 346:Generated_Source\PSoC5/isr_Pin_buttDown.c **** *
 347:Generated_Source\PSoC5/isr_Pin_buttDown.c **** * Parameters:
 348:Generated_Source\PSoC5/isr_Pin_buttDown.c **** *   None
 349:Generated_Source\PSoC5/isr_Pin_buttDown.c **** *
 350:Generated_Source\PSoC5/isr_Pin_buttDown.c **** * Return:
 351:Generated_Source\PSoC5/isr_Pin_buttDown.c **** *   None
 352:Generated_Source\PSoC5/isr_Pin_buttDown.c **** *
 353:Generated_Source\PSoC5/isr_Pin_buttDown.c **** *******************************************************************************/
 354:Generated_Source\PSoC5/isr_Pin_buttDown.c **** void isr_Pin_buttDown_Disable(void)
 355:Generated_Source\PSoC5/isr_Pin_buttDown.c **** {
 356:Generated_Source\PSoC5/isr_Pin_buttDown.c ****     /* Disable the general interrupt. */
 357:Generated_Source\PSoC5/isr_Pin_buttDown.c ****     *isr_Pin_buttDown_INTC_CLR_EN = isr_Pin_buttDown__INTC_MASK;
  71              		.loc 1 357 0
  72 0004 074E     		ldr	r6, .L6+4
  73              	.LBE27:
  74              	.LBE26:
  75              	.LBB30:
  76              	.LBB24:
 209:Generated_Source\PSoC5/isr_Pin_buttDown.c **** 
  77              		.loc 1 209 0
  78 0006 1C68     		ldr	r4, [r3]
 211:Generated_Source\PSoC5/isr_Pin_buttDown.c **** }
  79              		.loc 1 211 0
  80 0008 074D     		ldr	r5, .L6+8
  81              	.LBE24:
  82              	.LBE30:
  83              	.LBB31:
  84              	.LBB32:
 265:Generated_Source\PSoC5/isr_Pin_buttDown.c **** }
  85              		.loc 1 265 0
  86 000a 0849     		ldr	r1, .L6+12
  87              	.LBE32:
  88              	.LBE31:
  89              	.LBB35:
  90              	.LBB28:
  91              		.loc 1 357 0
  92 000c 0123     		movs	r3, #1
  93              	.LBE28:
  94              	.LBE35:
  95              	.LBB36:
ARM GAS  C:\Users\larco\AppData\Local\Temp\ccoycSRe.s 			page 9


  96              	.LBB37:
 315:Generated_Source\PSoC5/isr_Pin_buttDown.c **** }
  97              		.loc 1 315 0
  98 000e 084A     		ldr	r2, .L6+16
  99              	.LBE37:
 100              	.LBE36:
 101              	.LBB39:
 102              	.LBB33:
 265:Generated_Source\PSoC5/isr_Pin_buttDown.c **** }
 103              		.loc 1 265 0
 104 0010 E020     		movs	r0, #224
 105              	.LBE33:
 106              	.LBE39:
 107              	.LBB40:
 108              	.LBB29:
 109              		.loc 1 357 0
 110 0012 3360     		str	r3, [r6]
 111              	.LVL0:
 112              	.LBE29:
 113              	.LBE40:
 114              	.LBB41:
 115              	.LBB25:
 211:Generated_Source\PSoC5/isr_Pin_buttDown.c **** }
 116              		.loc 1 211 0
 117 0014 2564     		str	r5, [r4, #64]
 118              	.LVL1:
 119              	.LBE25:
 120              	.LBE41:
 121              	.LBB42:
 122              	.LBB34:
 265:Generated_Source\PSoC5/isr_Pin_buttDown.c **** }
 123              		.loc 1 265 0
 124 0016 0870     		strb	r0, [r1]
 125              	.LVL2:
 126              	.LBE34:
 127              	.LBE42:
  74:Generated_Source\PSoC5/isr_Pin_buttDown.c **** 
 128              		.loc 1 74 0
 129 0018 70BC     		pop	{r4, r5, r6}
 130              		.cfi_restore 6
 131              		.cfi_restore 5
 132              		.cfi_restore 4
 133              		.cfi_def_cfa_offset 0
 134              	.LBB43:
 135              	.LBB38:
 315:Generated_Source\PSoC5/isr_Pin_buttDown.c **** }
 136              		.loc 1 315 0
 137 001a 1360     		str	r3, [r2]
 138              	.LBE38:
 139              	.LBE43:
  74:Generated_Source\PSoC5/isr_Pin_buttDown.c **** 
 140              		.loc 1 74 0
 141 001c 7047     		bx	lr
 142              	.L7:
 143 001e 00BF     		.align	2
 144              	.L6:
 145 0020 08ED00E0 		.word	-536810232
ARM GAS  C:\Users\larco\AppData\Local\Temp\ccoycSRe.s 			page 10


 146 0024 80E100E0 		.word	-536813184
 147 0028 00000000 		.word	isr_Pin_buttDown_Interrupt
 148 002c 00E400E0 		.word	-536812544
 149 0030 00E100E0 		.word	-536813312
 150              		.cfi_endproc
 151              	.LFE0:
 152              		.size	isr_Pin_buttDown_Start, .-isr_Pin_buttDown_Start
 153              		.section	.text.isr_Pin_buttDown_StartEx,"ax",%progbits
 154              		.align	2
 155              		.global	isr_Pin_buttDown_StartEx
 156              		.thumb
 157              		.thumb_func
 158              		.type	isr_Pin_buttDown_StartEx, %function
 159              	isr_Pin_buttDown_StartEx:
 160              	.LFB1:
 105:Generated_Source\PSoC5/isr_Pin_buttDown.c ****     /* For all we know the interrupt is active. */
 161              		.loc 1 105 0
 162              		.cfi_startproc
 163              		@ args = 0, pretend = 0, frame = 0
 164              		@ frame_needed = 0, uses_anonymous_args = 0
 165              		@ link register save eliminated.
 166              	.LVL3:
 167 0000 70B4     		push	{r4, r5, r6}
 168              		.cfi_def_cfa_offset 12
 169              		.cfi_offset 4, -12
 170              		.cfi_offset 5, -8
 171              		.cfi_offset 6, -4
 172              	.LBB44:
 173              	.LBB45:
 209:Generated_Source\PSoC5/isr_Pin_buttDown.c **** 
 174              		.loc 1 209 0
 175 0002 064B     		ldr	r3, .L10
 176              	.LBE45:
 177              	.LBE44:
 178              	.LBB48:
 179              	.LBB49:
 180              		.loc 1 357 0
 181 0004 064E     		ldr	r6, .L10+4
 182              	.LBE49:
 183              	.LBE48:
 184              	.LBB52:
 185              	.LBB46:
 209:Generated_Source\PSoC5/isr_Pin_buttDown.c **** 
 186              		.loc 1 209 0
 187 0006 1D68     		ldr	r5, [r3]
 188              	.LBE46:
 189              	.LBE52:
 190              	.LBB53:
 191              	.LBB54:
 265:Generated_Source\PSoC5/isr_Pin_buttDown.c **** }
 192              		.loc 1 265 0
 193 0008 0649     		ldr	r1, .L10+8
 194              	.LBE54:
 195              	.LBE53:
 196              	.LBB57:
 197              	.LBB50:
 198              		.loc 1 357 0
ARM GAS  C:\Users\larco\AppData\Local\Temp\ccoycSRe.s 			page 11


 199 000a 0123     		movs	r3, #1
 200              	.LBE50:
 201              	.LBE57:
 202              	.LBB58:
 203              	.LBB55:
 265:Generated_Source\PSoC5/isr_Pin_buttDown.c **** }
 204              		.loc 1 265 0
 205 000c E024     		movs	r4, #224
 206              	.LBE55:
 207              	.LBE58:
 208              	.LBB59:
 209              	.LBB60:
 315:Generated_Source\PSoC5/isr_Pin_buttDown.c **** }
 210              		.loc 1 315 0
 211 000e 064A     		ldr	r2, .L10+12
 212              	.LBE60:
 213              	.LBE59:
 214              	.LBB62:
 215              	.LBB51:
 216              		.loc 1 357 0
 217 0010 3360     		str	r3, [r6]
 218              	.LVL4:
 219              	.LBE51:
 220              	.LBE62:
 221              	.LBB63:
 222              	.LBB47:
 211:Generated_Source\PSoC5/isr_Pin_buttDown.c **** }
 223              		.loc 1 211 0
 224 0012 2864     		str	r0, [r5, #64]
 225              	.LVL5:
 226              	.LBE47:
 227              	.LBE63:
 228              	.LBB64:
 229              	.LBB56:
 265:Generated_Source\PSoC5/isr_Pin_buttDown.c **** }
 230              		.loc 1 265 0
 231 0014 0C70     		strb	r4, [r1]
 232              	.LVL6:
 233              	.LBE56:
 234              	.LBE64:
 117:Generated_Source\PSoC5/isr_Pin_buttDown.c **** 
 235              		.loc 1 117 0
 236 0016 70BC     		pop	{r4, r5, r6}
 237              		.cfi_restore 6
 238              		.cfi_restore 5
 239              		.cfi_restore 4
 240              		.cfi_def_cfa_offset 0
 241              	.LBB65:
 242              	.LBB61:
 315:Generated_Source\PSoC5/isr_Pin_buttDown.c **** }
 243              		.loc 1 315 0
 244 0018 1360     		str	r3, [r2]
 245              	.LBE61:
 246              	.LBE65:
 117:Generated_Source\PSoC5/isr_Pin_buttDown.c **** 
 247              		.loc 1 117 0
 248 001a 7047     		bx	lr
ARM GAS  C:\Users\larco\AppData\Local\Temp\ccoycSRe.s 			page 12


 249              	.L11:
 250              		.align	2
 251              	.L10:
 252 001c 08ED00E0 		.word	-536810232
 253 0020 80E100E0 		.word	-536813184
 254 0024 00E400E0 		.word	-536812544
 255 0028 00E100E0 		.word	-536813312
 256              		.cfi_endproc
 257              	.LFE1:
 258              		.size	isr_Pin_buttDown_StartEx, .-isr_Pin_buttDown_StartEx
 259              		.section	.text.isr_Pin_buttDown_Stop,"ax",%progbits
 260              		.align	2
 261              		.global	isr_Pin_buttDown_Stop
 262              		.thumb
 263              		.thumb_func
 264              		.type	isr_Pin_buttDown_Stop, %function
 265              	isr_Pin_buttDown_Stop:
 266              	.LFB2:
 135:Generated_Source\PSoC5/isr_Pin_buttDown.c ****     /* Disable this interrupt. */
 267              		.loc 1 135 0
 268              		.cfi_startproc
 269              		@ args = 0, pretend = 0, frame = 0
 270              		@ frame_needed = 0, uses_anonymous_args = 0
 271              		@ link register save eliminated.
 272              	.LBB66:
 273              	.LBB67:
 209:Generated_Source\PSoC5/isr_Pin_buttDown.c **** 
 274              		.loc 1 209 0
 275 0000 034B     		ldr	r3, .L13
 276              	.LBE67:
 277              	.LBE66:
 278              	.LBB70:
 279              	.LBB71:
 280              		.loc 1 357 0
 281 0002 0449     		ldr	r1, .L13+4
 282              	.LBE71:
 283              	.LBE70:
 284              	.LBB73:
 285              	.LBB68:
 209:Generated_Source\PSoC5/isr_Pin_buttDown.c **** 
 286              		.loc 1 209 0
 287 0004 1B68     		ldr	r3, [r3]
 211:Generated_Source\PSoC5/isr_Pin_buttDown.c **** }
 288              		.loc 1 211 0
 289 0006 044A     		ldr	r2, .L13+8
 290              	.LBE68:
 291              	.LBE73:
 292              	.LBB74:
 293              	.LBB72:
 294              		.loc 1 357 0
 295 0008 0120     		movs	r0, #1
 296 000a 0860     		str	r0, [r1]
 297              	.LVL7:
 298              	.LBE72:
 299              	.LBE74:
 300              	.LBB75:
 301              	.LBB69:
ARM GAS  C:\Users\larco\AppData\Local\Temp\ccoycSRe.s 			page 13


 211:Generated_Source\PSoC5/isr_Pin_buttDown.c **** }
 302              		.loc 1 211 0
 303 000c 1A64     		str	r2, [r3, #64]
 304              	.LVL8:
 305 000e 7047     		bx	lr
 306              	.L14:
 307              		.align	2
 308              	.L13:
 309 0010 08ED00E0 		.word	-536810232
 310 0014 80E100E0 		.word	-536813184
 311 0018 00000000 		.word	IntDefaultHandler
 312              	.LBE69:
 313              	.LBE75:
 314              		.cfi_endproc
 315              	.LFE2:
 316              		.size	isr_Pin_buttDown_Stop, .-isr_Pin_buttDown_Stop
 317              		.section	.text.isr_Pin_buttDown_SetVector,"ax",%progbits
 318              		.align	2
 319              		.global	isr_Pin_buttDown_SetVector
 320              		.thumb
 321              		.thumb_func
 322              		.type	isr_Pin_buttDown_SetVector, %function
 323              	isr_Pin_buttDown_SetVector:
 324              	.LFB4:
 206:Generated_Source\PSoC5/isr_Pin_buttDown.c ****     cyisraddress * ramVectorTable;
 325              		.loc 1 206 0
 326              		.cfi_startproc
 327              		@ args = 0, pretend = 0, frame = 0
 328              		@ frame_needed = 0, uses_anonymous_args = 0
 329              		@ link register save eliminated.
 330              	.LVL9:
 209:Generated_Source\PSoC5/isr_Pin_buttDown.c **** 
 331              		.loc 1 209 0
 332 0000 014B     		ldr	r3, .L16
 333 0002 1B68     		ldr	r3, [r3]
 334              	.LVL10:
 211:Generated_Source\PSoC5/isr_Pin_buttDown.c **** }
 335              		.loc 1 211 0
 336 0004 1864     		str	r0, [r3, #64]
 337 0006 7047     		bx	lr
 338              	.L17:
 339              		.align	2
 340              	.L16:
 341 0008 08ED00E0 		.word	-536810232
 342              		.cfi_endproc
 343              	.LFE4:
 344              		.size	isr_Pin_buttDown_SetVector, .-isr_Pin_buttDown_SetVector
 345              		.section	.text.isr_Pin_buttDown_GetVector,"ax",%progbits
 346              		.align	2
 347              		.global	isr_Pin_buttDown_GetVector
 348              		.thumb
 349              		.thumb_func
 350              		.type	isr_Pin_buttDown_GetVector, %function
 351              	isr_Pin_buttDown_GetVector:
 352              	.LFB5:
 230:Generated_Source\PSoC5/isr_Pin_buttDown.c ****     cyisraddress * ramVectorTable;
 353              		.loc 1 230 0
ARM GAS  C:\Users\larco\AppData\Local\Temp\ccoycSRe.s 			page 14


 354              		.cfi_startproc
 355              		@ args = 0, pretend = 0, frame = 0
 356              		@ frame_needed = 0, uses_anonymous_args = 0
 357              		@ link register save eliminated.
 358              	.LVL11:
 233:Generated_Source\PSoC5/isr_Pin_buttDown.c **** 
 359              		.loc 1 233 0
 360 0000 014B     		ldr	r3, .L19
 361              	.LVL12:
 235:Generated_Source\PSoC5/isr_Pin_buttDown.c **** }
 362              		.loc 1 235 0
 363 0002 1B68     		ldr	r3, [r3]
 364              	.LVL13:
 236:Generated_Source\PSoC5/isr_Pin_buttDown.c **** 
 365              		.loc 1 236 0
 366 0004 186C     		ldr	r0, [r3, #64]
 367 0006 7047     		bx	lr
 368              	.L20:
 369              		.align	2
 370              	.L19:
 371 0008 08ED00E0 		.word	-536810232
 372              		.cfi_endproc
 373              	.LFE5:
 374              		.size	isr_Pin_buttDown_GetVector, .-isr_Pin_buttDown_GetVector
 375              		.section	.text.isr_Pin_buttDown_SetPriority,"ax",%progbits
 376              		.align	2
 377              		.global	isr_Pin_buttDown_SetPriority
 378              		.thumb
 379              		.thumb_func
 380              		.type	isr_Pin_buttDown_SetPriority, %function
 381              	isr_Pin_buttDown_SetPriority:
 382              	.LFB6:
 264:Generated_Source\PSoC5/isr_Pin_buttDown.c ****     *isr_Pin_buttDown_INTC_PRIOR = priority << 5;
 383              		.loc 1 264 0
 384              		.cfi_startproc
 385              		@ args = 0, pretend = 0, frame = 0
 386              		@ frame_needed = 0, uses_anonymous_args = 0
 387              		@ link register save eliminated.
 388              	.LVL14:
 265:Generated_Source\PSoC5/isr_Pin_buttDown.c **** }
 389              		.loc 1 265 0
 390 0000 4001     		lsls	r0, r0, #5
 391              	.LVL15:
 392 0002 024B     		ldr	r3, .L22
 393 0004 C0B2     		uxtb	r0, r0
 394 0006 1870     		strb	r0, [r3]
 395 0008 7047     		bx	lr
 396              	.L23:
 397 000a 00BF     		.align	2
 398              	.L22:
 399 000c 00E400E0 		.word	-536812544
 400              		.cfi_endproc
 401              	.LFE6:
 402              		.size	isr_Pin_buttDown_SetPriority, .-isr_Pin_buttDown_SetPriority
 403              		.section	.text.isr_Pin_buttDown_GetPriority,"ax",%progbits
 404              		.align	2
 405              		.global	isr_Pin_buttDown_GetPriority
ARM GAS  C:\Users\larco\AppData\Local\Temp\ccoycSRe.s 			page 15


 406              		.thumb
 407              		.thumb_func
 408              		.type	isr_Pin_buttDown_GetPriority, %function
 409              	isr_Pin_buttDown_GetPriority:
 410              	.LFB7:
 286:Generated_Source\PSoC5/isr_Pin_buttDown.c ****     uint8 priority;
 411              		.loc 1 286 0
 412              		.cfi_startproc
 413              		@ args = 0, pretend = 0, frame = 0
 414              		@ frame_needed = 0, uses_anonymous_args = 0
 415              		@ link register save eliminated.
 290:Generated_Source\PSoC5/isr_Pin_buttDown.c **** 
 416              		.loc 1 290 0
 417 0000 014B     		ldr	r3, .L25
 418 0002 1878     		ldrb	r0, [r3]	@ zero_extendqisi2
 419              	.LVL16:
 293:Generated_Source\PSoC5/isr_Pin_buttDown.c **** 
 420              		.loc 1 293 0
 421 0004 4009     		lsrs	r0, r0, #5
 422              	.LVL17:
 423 0006 7047     		bx	lr
 424              	.L26:
 425              		.align	2
 426              	.L25:
 427 0008 00E400E0 		.word	-536812544
 428              		.cfi_endproc
 429              	.LFE7:
 430              		.size	isr_Pin_buttDown_GetPriority, .-isr_Pin_buttDown_GetPriority
 431              		.section	.text.isr_Pin_buttDown_Enable,"ax",%progbits
 432              		.align	2
 433              		.global	isr_Pin_buttDown_Enable
 434              		.thumb
 435              		.thumb_func
 436              		.type	isr_Pin_buttDown_Enable, %function
 437              	isr_Pin_buttDown_Enable:
 438              	.LFB8:
 313:Generated_Source\PSoC5/isr_Pin_buttDown.c ****     /* Enable the general interrupt. */
 439              		.loc 1 313 0
 440              		.cfi_startproc
 441              		@ args = 0, pretend = 0, frame = 0
 442              		@ frame_needed = 0, uses_anonymous_args = 0
 443              		@ link register save eliminated.
 315:Generated_Source\PSoC5/isr_Pin_buttDown.c **** }
 444              		.loc 1 315 0
 445 0000 014B     		ldr	r3, .L28
 446 0002 0122     		movs	r2, #1
 447 0004 1A60     		str	r2, [r3]
 448 0006 7047     		bx	lr
 449              	.L29:
 450              		.align	2
 451              	.L28:
 452 0008 00E100E0 		.word	-536813312
 453              		.cfi_endproc
 454              	.LFE8:
 455              		.size	isr_Pin_buttDown_Enable, .-isr_Pin_buttDown_Enable
 456              		.section	.text.isr_Pin_buttDown_GetState,"ax",%progbits
 457              		.align	2
ARM GAS  C:\Users\larco\AppData\Local\Temp\ccoycSRe.s 			page 16


 458              		.global	isr_Pin_buttDown_GetState
 459              		.thumb
 460              		.thumb_func
 461              		.type	isr_Pin_buttDown_GetState, %function
 462              	isr_Pin_buttDown_GetState:
 463              	.LFB9:
 334:Generated_Source\PSoC5/isr_Pin_buttDown.c ****     /* Get the state of the general interrupt. */
 464              		.loc 1 334 0
 465              		.cfi_startproc
 466              		@ args = 0, pretend = 0, frame = 0
 467              		@ frame_needed = 0, uses_anonymous_args = 0
 468              		@ link register save eliminated.
 336:Generated_Source\PSoC5/isr_Pin_buttDown.c **** }
 469              		.loc 1 336 0
 470 0000 024B     		ldr	r3, .L31
 471 0002 1868     		ldr	r0, [r3]
 337:Generated_Source\PSoC5/isr_Pin_buttDown.c **** 
 472              		.loc 1 337 0
 473 0004 00F00100 		and	r0, r0, #1
 474 0008 7047     		bx	lr
 475              	.L32:
 476 000a 00BF     		.align	2
 477              	.L31:
 478 000c 00E100E0 		.word	-536813312
 479              		.cfi_endproc
 480              	.LFE9:
 481              		.size	isr_Pin_buttDown_GetState, .-isr_Pin_buttDown_GetState
 482              		.section	.text.isr_Pin_buttDown_Disable,"ax",%progbits
 483              		.align	2
 484              		.global	isr_Pin_buttDown_Disable
 485              		.thumb
 486              		.thumb_func
 487              		.type	isr_Pin_buttDown_Disable, %function
 488              	isr_Pin_buttDown_Disable:
 489              	.LFB10:
 355:Generated_Source\PSoC5/isr_Pin_buttDown.c ****     /* Disable the general interrupt. */
 490              		.loc 1 355 0
 491              		.cfi_startproc
 492              		@ args = 0, pretend = 0, frame = 0
 493              		@ frame_needed = 0, uses_anonymous_args = 0
 494              		@ link register save eliminated.
 495              		.loc 1 357 0
 496 0000 014B     		ldr	r3, .L34
 497 0002 0122     		movs	r2, #1
 498 0004 1A60     		str	r2, [r3]
 499 0006 7047     		bx	lr
 500              	.L35:
 501              		.align	2
 502              	.L34:
 503 0008 80E100E0 		.word	-536813184
 504              		.cfi_endproc
 505              	.LFE10:
 506              		.size	isr_Pin_buttDown_Disable, .-isr_Pin_buttDown_Disable
 507              		.section	.text.isr_Pin_buttDown_SetPending,"ax",%progbits
 508              		.align	2
 509              		.global	isr_Pin_buttDown_SetPending
 510              		.thumb
ARM GAS  C:\Users\larco\AppData\Local\Temp\ccoycSRe.s 			page 17


 511              		.thumb_func
 512              		.type	isr_Pin_buttDown_SetPending, %function
 513              	isr_Pin_buttDown_SetPending:
 514              	.LFB11:
 358:Generated_Source\PSoC5/isr_Pin_buttDown.c **** }
 359:Generated_Source\PSoC5/isr_Pin_buttDown.c **** 
 360:Generated_Source\PSoC5/isr_Pin_buttDown.c **** 
 361:Generated_Source\PSoC5/isr_Pin_buttDown.c **** /*******************************************************************************
 362:Generated_Source\PSoC5/isr_Pin_buttDown.c **** * Function Name: isr_Pin_buttDown_SetPending
 363:Generated_Source\PSoC5/isr_Pin_buttDown.c **** ********************************************************************************
 364:Generated_Source\PSoC5/isr_Pin_buttDown.c **** *
 365:Generated_Source\PSoC5/isr_Pin_buttDown.c **** * Summary:
 366:Generated_Source\PSoC5/isr_Pin_buttDown.c **** *   Causes the Interrupt to enter the pending state, a software method of
 367:Generated_Source\PSoC5/isr_Pin_buttDown.c **** *   generating the interrupt.
 368:Generated_Source\PSoC5/isr_Pin_buttDown.c **** *
 369:Generated_Source\PSoC5/isr_Pin_buttDown.c **** * Parameters:
 370:Generated_Source\PSoC5/isr_Pin_buttDown.c **** *   None
 371:Generated_Source\PSoC5/isr_Pin_buttDown.c **** *
 372:Generated_Source\PSoC5/isr_Pin_buttDown.c **** * Return:
 373:Generated_Source\PSoC5/isr_Pin_buttDown.c **** *   None
 374:Generated_Source\PSoC5/isr_Pin_buttDown.c **** *
 375:Generated_Source\PSoC5/isr_Pin_buttDown.c **** * Side Effects:
 376:Generated_Source\PSoC5/isr_Pin_buttDown.c **** *   If interrupts are enabled and the interrupt is set up properly, the ISR is
 377:Generated_Source\PSoC5/isr_Pin_buttDown.c **** *   entered (depending on the priority of this interrupt and other pending 
 378:Generated_Source\PSoC5/isr_Pin_buttDown.c **** *   interrupts).
 379:Generated_Source\PSoC5/isr_Pin_buttDown.c **** *
 380:Generated_Source\PSoC5/isr_Pin_buttDown.c **** *******************************************************************************/
 381:Generated_Source\PSoC5/isr_Pin_buttDown.c **** void isr_Pin_buttDown_SetPending(void)
 382:Generated_Source\PSoC5/isr_Pin_buttDown.c **** {
 515              		.loc 1 382 0
 516              		.cfi_startproc
 517              		@ args = 0, pretend = 0, frame = 0
 518              		@ frame_needed = 0, uses_anonymous_args = 0
 519              		@ link register save eliminated.
 383:Generated_Source\PSoC5/isr_Pin_buttDown.c ****     *isr_Pin_buttDown_INTC_SET_PD = isr_Pin_buttDown__INTC_MASK;
 520              		.loc 1 383 0
 521 0000 014B     		ldr	r3, .L37
 522 0002 0122     		movs	r2, #1
 523 0004 1A60     		str	r2, [r3]
 524 0006 7047     		bx	lr
 525              	.L38:
 526              		.align	2
 527              	.L37:
 528 0008 00E200E0 		.word	-536813056
 529              		.cfi_endproc
 530              	.LFE11:
 531              		.size	isr_Pin_buttDown_SetPending, .-isr_Pin_buttDown_SetPending
 532              		.section	.text.isr_Pin_buttDown_ClearPending,"ax",%progbits
 533              		.align	2
 534              		.global	isr_Pin_buttDown_ClearPending
 535              		.thumb
 536              		.thumb_func
 537              		.type	isr_Pin_buttDown_ClearPending, %function
 538              	isr_Pin_buttDown_ClearPending:
 539              	.LFB12:
 384:Generated_Source\PSoC5/isr_Pin_buttDown.c **** }
 385:Generated_Source\PSoC5/isr_Pin_buttDown.c **** 
ARM GAS  C:\Users\larco\AppData\Local\Temp\ccoycSRe.s 			page 18


 386:Generated_Source\PSoC5/isr_Pin_buttDown.c **** 
 387:Generated_Source\PSoC5/isr_Pin_buttDown.c **** /*******************************************************************************
 388:Generated_Source\PSoC5/isr_Pin_buttDown.c **** * Function Name: isr_Pin_buttDown_ClearPending
 389:Generated_Source\PSoC5/isr_Pin_buttDown.c **** ********************************************************************************
 390:Generated_Source\PSoC5/isr_Pin_buttDown.c **** *
 391:Generated_Source\PSoC5/isr_Pin_buttDown.c **** * Summary:
 392:Generated_Source\PSoC5/isr_Pin_buttDown.c **** *   Clears a pending interrupt in the interrupt controller.
 393:Generated_Source\PSoC5/isr_Pin_buttDown.c **** *
 394:Generated_Source\PSoC5/isr_Pin_buttDown.c **** *   Note Some interrupt sources are clear-on-read and require the block 
 395:Generated_Source\PSoC5/isr_Pin_buttDown.c **** *   interrupt/status register to be read/cleared with the appropriate block API 
 396:Generated_Source\PSoC5/isr_Pin_buttDown.c **** *   (GPIO, UART, and so on). Otherwise the ISR will continue to remain in 
 397:Generated_Source\PSoC5/isr_Pin_buttDown.c **** *   pending state even though the interrupt itself is cleared using this API.
 398:Generated_Source\PSoC5/isr_Pin_buttDown.c **** *
 399:Generated_Source\PSoC5/isr_Pin_buttDown.c **** * Parameters:
 400:Generated_Source\PSoC5/isr_Pin_buttDown.c **** *   None
 401:Generated_Source\PSoC5/isr_Pin_buttDown.c **** *
 402:Generated_Source\PSoC5/isr_Pin_buttDown.c **** * Return:
 403:Generated_Source\PSoC5/isr_Pin_buttDown.c **** *   None
 404:Generated_Source\PSoC5/isr_Pin_buttDown.c **** *
 405:Generated_Source\PSoC5/isr_Pin_buttDown.c **** *******************************************************************************/
 406:Generated_Source\PSoC5/isr_Pin_buttDown.c **** void isr_Pin_buttDown_ClearPending(void)
 407:Generated_Source\PSoC5/isr_Pin_buttDown.c **** {
 540              		.loc 1 407 0
 541              		.cfi_startproc
 542              		@ args = 0, pretend = 0, frame = 0
 543              		@ frame_needed = 0, uses_anonymous_args = 0
 544              		@ link register save eliminated.
 408:Generated_Source\PSoC5/isr_Pin_buttDown.c ****     *isr_Pin_buttDown_INTC_CLR_PD = isr_Pin_buttDown__INTC_MASK;
 545              		.loc 1 408 0
 546 0000 014B     		ldr	r3, .L40
 547 0002 0122     		movs	r2, #1
 548 0004 1A60     		str	r2, [r3]
 549 0006 7047     		bx	lr
 550              	.L41:
 551              		.align	2
 552              	.L40:
 553 0008 80E200E0 		.word	-536812928
 554              		.cfi_endproc
 555              	.LFE12:
 556              		.size	isr_Pin_buttDown_ClearPending, .-isr_Pin_buttDown_ClearPending
 557              		.text
 558              	.Letext0:
 559              		.file 2 "Generated_Source\\PSoC5/cytypes.h"