ARM GAS  C:\Users\larco\AppData\Local\Temp\ccNDjgfx.s 			page 1


   1              		.syntax unified
   2              		.cpu cortex-m3
   3              		.fpu softvfp
   4              		.eabi_attribute 20, 1
   5              		.eabi_attribute 21, 1
   6              		.eabi_attribute 23, 3
   7              		.eabi_attribute 24, 1
   8              		.eabi_attribute 25, 1
   9              		.eabi_attribute 26, 1
  10              		.eabi_attribute 30, 2
  11              		.eabi_attribute 34, 1
  12              		.eabi_attribute 18, 4
  13              		.thumb
  14              		.syntax unified
  15              		.file	"led_object.c"
  16              		.text
  17              	.Ltext0:
  18              		.cfi_sections	.debug_frame
  19              		.section	.text.led_init,"ax",%progbits
  20              		.align	2
  21              		.global	led_init
  22              		.thumb
  23              		.thumb_func
  24              		.type	led_init, %function
  25              	led_init:
  26              	.LFB0:
  27              		.file 1 "led_object.c"
   1:led_object.c  **** /* ========================================
   2:led_object.c  ****  *
   3:led_object.c  ****  * Copyright YOUR COMPANY, THE YEAR
   4:led_object.c  ****  * All Rights Reserved
   5:led_object.c  ****  * UNPUBLISHED, LICENSED SOFTWARE.
   6:led_object.c  ****  *
   7:led_object.c  ****  * CONFIDENTIAL AND PROPRIETARY INFORMATION
   8:led_object.c  ****  * WHICH IS THE PROPERTY OF your company.
   9:led_object.c  ****  *
  10:led_object.c  ****  * ========================================
  11:led_object.c  **** */
  12:led_object.c  **** #include    <led_object.h>
  13:led_object.c  **** 
  14:led_object.c  **** // define the functions
  15:led_object.c  **** void led_init(led *data, char brightness, char blue, char green, char red)
  16:led_object.c  **** {
  28              		.loc 1 16 0
  29              		.cfi_startproc
  30              		@ args = 4, pretend = 0, frame = 0
  31              		@ frame_needed = 0, uses_anonymous_args = 0
  32              		@ link register save eliminated.
  33              	.LVL0:
  34 0000 10B4     		push	{r4}
  35              		.cfi_def_cfa_offset 4
  36              		.cfi_offset 4, -4
  37              		.loc 1 16 0
  38 0002 9DF80440 		ldrb	r4, [sp, #4]	@ zero_extendqisi2
  17:led_object.c  ****     data->brightness = 0xe0 | brightness;
  39              		.loc 1 17 0
  40 0006 61F01F01 		orn	r1, r1, #31
ARM GAS  C:\Users\larco\AppData\Local\Temp\ccNDjgfx.s 			page 2


  41              	.LVL1:
  18:led_object.c  ****     data->blue = blue;
  19:led_object.c  ****     data->green = green;
  20:led_object.c  ****     data->red = red;
  42              		.loc 1 20 0
  43 000a 0471     		strb	r4, [r0, #4]
  18:led_object.c  ****     data->blue = blue;
  44              		.loc 1 18 0
  45 000c 8270     		strb	r2, [r0, #2]
  19:led_object.c  ****     data->red = red;
  46              		.loc 1 19 0
  47 000e C370     		strb	r3, [r0, #3]
  17:led_object.c  ****     data->brightness = 0xe0 | brightness;
  48              		.loc 1 17 0
  49 0010 4170     		strb	r1, [r0, #1]
  21:led_object.c  **** }
  50              		.loc 1 21 0
  51 0012 10BC     		pop	{r4}
  52              		.cfi_restore 4
  53              		.cfi_def_cfa_offset 0
  54              	.LVL2:
  55 0014 7047     		bx	lr
  56              		.cfi_endproc
  57              	.LFE0:
  58              		.size	led_init, .-led_init
  59 0016 00BF     		.section	.text.led_id_read,"ax",%progbits
  60              		.align	2
  61              		.global	led_id_read
  62              		.thumb
  63              		.thumb_func
  64              		.type	led_id_read, %function
  65              	led_id_read:
  66              	.LFB1:
  22:led_object.c  **** 
  23:led_object.c  **** 
  24:led_object.c  **** char led_id_read(led *data)
  25:led_object.c  **** {
  67              		.loc 1 25 0
  68              		.cfi_startproc
  69              		@ args = 0, pretend = 0, frame = 0
  70              		@ frame_needed = 0, uses_anonymous_args = 0
  71              		@ link register save eliminated.
  72              	.LVL3:
  26:led_object.c  ****     return data-> id;
  27:led_object.c  **** }
  73              		.loc 1 27 0
  74 0000 0078     		ldrb	r0, [r0]	@ zero_extendqisi2
  75              	.LVL4:
  76 0002 7047     		bx	lr
  77              		.cfi_endproc
  78              	.LFE1:
  79              		.size	led_id_read, .-led_id_read
  80              		.section	.text.led_id_write,"ax",%progbits
  81              		.align	2
  82              		.global	led_id_write
  83              		.thumb
  84              		.thumb_func
ARM GAS  C:\Users\larco\AppData\Local\Temp\ccNDjgfx.s 			page 3


  85              		.type	led_id_write, %function
  86              	led_id_write:
  87              	.LFB2:
  28:led_object.c  **** 
  29:led_object.c  **** void led_id_write(led *data, char id)
  30:led_object.c  **** {
  88              		.loc 1 30 0
  89              		.cfi_startproc
  90              		@ args = 0, pretend = 0, frame = 0
  91              		@ frame_needed = 0, uses_anonymous_args = 0
  92              		@ link register save eliminated.
  93              	.LVL5:
  31:led_object.c  ****     data->id = id;
  94              		.loc 1 31 0
  95 0000 0170     		strb	r1, [r0]
  96 0002 7047     		bx	lr
  97              		.cfi_endproc
  98              	.LFE2:
  99              		.size	led_id_write, .-led_id_write
 100              		.section	.text.led_brightness_read,"ax",%progbits
 101              		.align	2
 102              		.global	led_brightness_read
 103              		.thumb
 104              		.thumb_func
 105              		.type	led_brightness_read, %function
 106              	led_brightness_read:
 107              	.LFB3:
  32:led_object.c  **** }
  33:led_object.c  **** 
  34:led_object.c  **** char led_brightness_read(led *data)
  35:led_object.c  **** {
 108              		.loc 1 35 0
 109              		.cfi_startproc
 110              		@ args = 0, pretend = 0, frame = 0
 111              		@ frame_needed = 0, uses_anonymous_args = 0
 112              		@ link register save eliminated.
 113              	.LVL6:
  36:led_object.c  ****     return (data->brightness & 0x1f);
 114              		.loc 1 36 0
 115 0000 4078     		ldrb	r0, [r0, #1]	@ zero_extendqisi2
 116              	.LVL7:
  37:led_object.c  **** }
 117              		.loc 1 37 0
 118 0002 00F01F00 		and	r0, r0, #31
 119 0006 7047     		bx	lr
 120              		.cfi_endproc
 121              	.LFE3:
 122              		.size	led_brightness_read, .-led_brightness_read
 123              		.section	.text.led_brightness_write,"ax",%progbits
 124              		.align	2
 125              		.global	led_brightness_write
 126              		.thumb
 127              		.thumb_func
 128              		.type	led_brightness_write, %function
 129              	led_brightness_write:
 130              	.LFB4:
  38:led_object.c  **** 
ARM GAS  C:\Users\larco\AppData\Local\Temp\ccNDjgfx.s 			page 4


  39:led_object.c  **** void led_brightness_write(led *data, char brightness)
  40:led_object.c  **** {
 131              		.loc 1 40 0
 132              		.cfi_startproc
 133              		@ args = 0, pretend = 0, frame = 0
 134              		@ frame_needed = 0, uses_anonymous_args = 0
 135              		@ link register save eliminated.
 136              	.LVL8:
  41:led_object.c  ****     data->brightness = 0xe0 | brightness;
 137              		.loc 1 41 0
 138 0000 61F01F01 		orn	r1, r1, #31
 139              	.LVL9:
 140 0004 4170     		strb	r1, [r0, #1]
 141 0006 7047     		bx	lr
 142              		.cfi_endproc
 143              	.LFE4:
 144              		.size	led_brightness_write, .-led_brightness_write
 145              		.section	.text.led_blue_read,"ax",%progbits
 146              		.align	2
 147              		.global	led_blue_read
 148              		.thumb
 149              		.thumb_func
 150              		.type	led_blue_read, %function
 151              	led_blue_read:
 152              	.LFB5:
  42:led_object.c  **** }
  43:led_object.c  **** 
  44:led_object.c  **** char led_blue_read(led *data)
  45:led_object.c  **** {
 153              		.loc 1 45 0
 154              		.cfi_startproc
 155              		@ args = 0, pretend = 0, frame = 0
 156              		@ frame_needed = 0, uses_anonymous_args = 0
 157              		@ link register save eliminated.
 158              	.LVL10:
  46:led_object.c  ****     return data->blue;
  47:led_object.c  **** }
 159              		.loc 1 47 0
 160 0000 8078     		ldrb	r0, [r0, #2]	@ zero_extendqisi2
 161              	.LVL11:
 162 0002 7047     		bx	lr
 163              		.cfi_endproc
 164              	.LFE5:
 165              		.size	led_blue_read, .-led_blue_read
 166              		.section	.text.led_blue_write,"ax",%progbits
 167              		.align	2
 168              		.global	led_blue_write
 169              		.thumb
 170              		.thumb_func
 171              		.type	led_blue_write, %function
 172              	led_blue_write:
 173              	.LFB6:
  48:led_object.c  **** 
  49:led_object.c  **** void led_blue_write(led *data, char value)
  50:led_object.c  **** {
 174              		.loc 1 50 0
 175              		.cfi_startproc
ARM GAS  C:\Users\larco\AppData\Local\Temp\ccNDjgfx.s 			page 5


 176              		@ args = 0, pretend = 0, frame = 0
 177              		@ frame_needed = 0, uses_anonymous_args = 0
 178              		@ link register save eliminated.
 179              	.LVL12:
  51:led_object.c  ****     data->blue = value;
 180              		.loc 1 51 0
 181 0000 8170     		strb	r1, [r0, #2]
 182 0002 7047     		bx	lr
 183              		.cfi_endproc
 184              	.LFE6:
 185              		.size	led_blue_write, .-led_blue_write
 186              		.section	.text.led_green_read,"ax",%progbits
 187              		.align	2
 188              		.global	led_green_read
 189              		.thumb
 190              		.thumb_func
 191              		.type	led_green_read, %function
 192              	led_green_read:
 193              	.LFB7:
  52:led_object.c  **** }
  53:led_object.c  **** 
  54:led_object.c  **** char led_green_read(led *data)
  55:led_object.c  **** {
 194              		.loc 1 55 0
 195              		.cfi_startproc
 196              		@ args = 0, pretend = 0, frame = 0
 197              		@ frame_needed = 0, uses_anonymous_args = 0
 198              		@ link register save eliminated.
 199              	.LVL13:
  56:led_object.c  ****     return data->green;
  57:led_object.c  **** }
 200              		.loc 1 57 0
 201 0000 C078     		ldrb	r0, [r0, #3]	@ zero_extendqisi2
 202              	.LVL14:
 203 0002 7047     		bx	lr
 204              		.cfi_endproc
 205              	.LFE7:
 206              		.size	led_green_read, .-led_green_read
 207              		.section	.text.led_green_write,"ax",%progbits
 208              		.align	2
 209              		.global	led_green_write
 210              		.thumb
 211              		.thumb_func
 212              		.type	led_green_write, %function
 213              	led_green_write:
 214              	.LFB8:
  58:led_object.c  **** 
  59:led_object.c  **** void led_green_write(led *data, char value)
  60:led_object.c  **** {
 215              		.loc 1 60 0
 216              		.cfi_startproc
 217              		@ args = 0, pretend = 0, frame = 0
 218              		@ frame_needed = 0, uses_anonymous_args = 0
 219              		@ link register save eliminated.
 220              	.LVL15:
  61:led_object.c  ****      data->green = value;
 221              		.loc 1 61 0
ARM GAS  C:\Users\larco\AppData\Local\Temp\ccNDjgfx.s 			page 6


 222 0000 C170     		strb	r1, [r0, #3]
 223 0002 7047     		bx	lr
 224              		.cfi_endproc
 225              	.LFE8:
 226              		.size	led_green_write, .-led_green_write
 227              		.section	.text.led_red_read,"ax",%progbits
 228              		.align	2
 229              		.global	led_red_read
 230              		.thumb
 231              		.thumb_func
 232              		.type	led_red_read, %function
 233              	led_red_read:
 234              	.LFB9:
  62:led_object.c  **** }
  63:led_object.c  **** 
  64:led_object.c  **** char led_red_read(led *data)
  65:led_object.c  **** {
 235              		.loc 1 65 0
 236              		.cfi_startproc
 237              		@ args = 0, pretend = 0, frame = 0
 238              		@ frame_needed = 0, uses_anonymous_args = 0
 239              		@ link register save eliminated.
 240              	.LVL16:
  66:led_object.c  ****     return data->red;
  67:led_object.c  **** }
 241              		.loc 1 67 0
 242 0000 0079     		ldrb	r0, [r0, #4]	@ zero_extendqisi2
 243              	.LVL17:
 244 0002 7047     		bx	lr
 245              		.cfi_endproc
 246              	.LFE9:
 247              		.size	led_red_read, .-led_red_read
 248              		.section	.text.led_red_write,"ax",%progbits
 249              		.align	2
 250              		.global	led_red_write
 251              		.thumb
 252              		.thumb_func
 253              		.type	led_red_write, %function
 254              	led_red_write:
 255              	.LFB10:
  68:led_object.c  **** 
  69:led_object.c  **** void led_red_write(led *data, char value)
  70:led_object.c  **** {
 256              		.loc 1 70 0
 257              		.cfi_startproc
 258              		@ args = 0, pretend = 0, frame = 0
 259              		@ frame_needed = 0, uses_anonymous_args = 0
 260              		@ link register save eliminated.
 261              	.LVL18:
  71:led_object.c  ****     data->red = value;
 262              		.loc 1 71 0
 263 0000 0171     		strb	r1, [r0, #4]
 264 0002 7047     		bx	lr
 265              		.cfi_endproc
 266              	.LFE10:
 267              		.size	led_red_write, .-led_red_write
 268              		.text
ARM GAS  C:\Users\larco\AppData\Local\Temp\ccNDjgfx.s 			page 7


 269              	.Letext0:
 270              		.file 2 "./led_object.h"