ARM GAS  C:\Users\larco\AppData\Local\Temp\cccTufIC.s 			page 1


   1              		.syntax unified
   2              		.cpu cortex-m3
   3              		.fpu softvfp
   4              		.eabi_attribute 20, 1
   5              		.eabi_attribute 21, 1
   6              		.eabi_attribute 23, 3
   7              		.eabi_attribute 24, 1
   8              		.eabi_attribute 25, 1
   9              		.eabi_attribute 26, 1
  10              		.eabi_attribute 30, 2
  11              		.eabi_attribute 34, 1
  12              		.eabi_attribute 18, 4
  13              		.thumb
  14              		.syntax unified
  15              		.file	"SPI_led.c"
  16              		.text
  17              	.Ltext0:
  18              		.cfi_sections	.debug_frame
  19              		.section	.text.SPI_led_Init,"ax",%progbits
  20              		.align	2
  21              		.global	SPI_led_Init
  22              		.thumb
  23              		.thumb_func
  24              		.type	SPI_led_Init, %function
  25              	SPI_led_Init:
  26              	.LFB0:
  27              		.file 1 "Generated_Source\\PSoC5\\SPI_led.c"
   1:Generated_Source\PSoC5/SPI_led.c **** /*******************************************************************************
   2:Generated_Source\PSoC5/SPI_led.c **** * File Name: SPI_led.c
   3:Generated_Source\PSoC5/SPI_led.c **** * Version 2.50
   4:Generated_Source\PSoC5/SPI_led.c **** *
   5:Generated_Source\PSoC5/SPI_led.c **** * Description:
   6:Generated_Source\PSoC5/SPI_led.c **** *  This file provides all API functionality of the SPI Master component.
   7:Generated_Source\PSoC5/SPI_led.c **** *
   8:Generated_Source\PSoC5/SPI_led.c **** * Note:
   9:Generated_Source\PSoC5/SPI_led.c **** *  None.
  10:Generated_Source\PSoC5/SPI_led.c **** *
  11:Generated_Source\PSoC5/SPI_led.c **** ********************************************************************************
  12:Generated_Source\PSoC5/SPI_led.c **** * Copyright 2008-2015, Cypress Semiconductor Corporation.  All rights reserved.
  13:Generated_Source\PSoC5/SPI_led.c **** * You may use this file only in accordance with the license, terms, conditions,
  14:Generated_Source\PSoC5/SPI_led.c **** * disclaimers, and limitations in the end user license agreement accompanying
  15:Generated_Source\PSoC5/SPI_led.c **** * the software package with which this file was provided.
  16:Generated_Source\PSoC5/SPI_led.c **** *******************************************************************************/
  17:Generated_Source\PSoC5/SPI_led.c **** 
  18:Generated_Source\PSoC5/SPI_led.c **** #include "SPI_led_PVT.h"
  19:Generated_Source\PSoC5/SPI_led.c **** 
  20:Generated_Source\PSoC5/SPI_led.c **** #if(SPI_led_TX_SOFTWARE_BUF_ENABLED)
  21:Generated_Source\PSoC5/SPI_led.c ****     volatile uint8 SPI_led_txBuffer[SPI_led_TX_BUFFER_SIZE];
  22:Generated_Source\PSoC5/SPI_led.c ****     volatile uint8 SPI_led_txBufferFull;
  23:Generated_Source\PSoC5/SPI_led.c ****     volatile uint8 SPI_led_txBufferRead;
  24:Generated_Source\PSoC5/SPI_led.c ****     volatile uint8 SPI_led_txBufferWrite;
  25:Generated_Source\PSoC5/SPI_led.c **** #endif /* (SPI_led_TX_SOFTWARE_BUF_ENABLED) */
  26:Generated_Source\PSoC5/SPI_led.c **** 
  27:Generated_Source\PSoC5/SPI_led.c **** #if(SPI_led_RX_SOFTWARE_BUF_ENABLED)
  28:Generated_Source\PSoC5/SPI_led.c ****     volatile uint8 SPI_led_rxBuffer[SPI_led_RX_BUFFER_SIZE];
  29:Generated_Source\PSoC5/SPI_led.c ****     volatile uint8 SPI_led_rxBufferFull;
  30:Generated_Source\PSoC5/SPI_led.c ****     volatile uint8 SPI_led_rxBufferRead;
ARM GAS  C:\Users\larco\AppData\Local\Temp\cccTufIC.s 			page 2


  31:Generated_Source\PSoC5/SPI_led.c ****     volatile uint8 SPI_led_rxBufferWrite;
  32:Generated_Source\PSoC5/SPI_led.c **** #endif /* (SPI_led_RX_SOFTWARE_BUF_ENABLED) */
  33:Generated_Source\PSoC5/SPI_led.c **** 
  34:Generated_Source\PSoC5/SPI_led.c **** uint8 SPI_led_initVar = 0u;
  35:Generated_Source\PSoC5/SPI_led.c **** 
  36:Generated_Source\PSoC5/SPI_led.c **** volatile uint8 SPI_led_swStatusTx;
  37:Generated_Source\PSoC5/SPI_led.c **** volatile uint8 SPI_led_swStatusRx;
  38:Generated_Source\PSoC5/SPI_led.c **** 
  39:Generated_Source\PSoC5/SPI_led.c **** 
  40:Generated_Source\PSoC5/SPI_led.c **** /*******************************************************************************
  41:Generated_Source\PSoC5/SPI_led.c **** * Function Name: SPI_led_Init
  42:Generated_Source\PSoC5/SPI_led.c **** ********************************************************************************
  43:Generated_Source\PSoC5/SPI_led.c **** *
  44:Generated_Source\PSoC5/SPI_led.c **** * Summary:
  45:Generated_Source\PSoC5/SPI_led.c **** *  Inits/Restores default SPIM configuration provided with customizer.
  46:Generated_Source\PSoC5/SPI_led.c **** *
  47:Generated_Source\PSoC5/SPI_led.c **** * Parameters:
  48:Generated_Source\PSoC5/SPI_led.c **** *  None.
  49:Generated_Source\PSoC5/SPI_led.c **** *
  50:Generated_Source\PSoC5/SPI_led.c **** * Return:
  51:Generated_Source\PSoC5/SPI_led.c **** *  None.
  52:Generated_Source\PSoC5/SPI_led.c **** *
  53:Generated_Source\PSoC5/SPI_led.c **** * Side Effects:
  54:Generated_Source\PSoC5/SPI_led.c **** *  When this function is called it initializes all of the necessary parameters
  55:Generated_Source\PSoC5/SPI_led.c **** *  for execution. i.e. setting the initial interrupt mask, configuring the
  56:Generated_Source\PSoC5/SPI_led.c **** *  interrupt service routine, configuring the bit-counter parameters and
  57:Generated_Source\PSoC5/SPI_led.c **** *  clearing the FIFO and Status Register.
  58:Generated_Source\PSoC5/SPI_led.c **** *
  59:Generated_Source\PSoC5/SPI_led.c **** * Reentrant:
  60:Generated_Source\PSoC5/SPI_led.c **** *  No.
  61:Generated_Source\PSoC5/SPI_led.c **** *
  62:Generated_Source\PSoC5/SPI_led.c **** *******************************************************************************/
  63:Generated_Source\PSoC5/SPI_led.c **** void SPI_led_Init(void) 
  64:Generated_Source\PSoC5/SPI_led.c **** {
  28              		.loc 1 64 0
  29              		.cfi_startproc
  30              		@ args = 0, pretend = 0, frame = 0
  31              		@ frame_needed = 0, uses_anonymous_args = 0
  32 0000 10B5     		push	{r4, lr}
  33              		.cfi_def_cfa_offset 8
  34              		.cfi_offset 4, -8
  35              		.cfi_offset 14, -4
  65:Generated_Source\PSoC5/SPI_led.c ****     /* Initialize the Bit counter */
  66:Generated_Source\PSoC5/SPI_led.c ****     SPI_led_COUNTER_PERIOD_REG = SPI_led_BITCTR_INIT;
  36              		.loc 1 66 0
  37 0002 114B     		ldr	r3, .L11
  38 0004 0F21     		movs	r1, #15
  39              	.LBB36:
  40              	.LBB37:
  67:Generated_Source\PSoC5/SPI_led.c **** 
  68:Generated_Source\PSoC5/SPI_led.c ****     /* Init TX ISR  */
  69:Generated_Source\PSoC5/SPI_led.c ****     #if(0u != SPI_led_INTERNAL_TX_INT_ENABLED)
  70:Generated_Source\PSoC5/SPI_led.c ****         CyIntDisable         (SPI_led_TX_ISR_NUMBER);
  71:Generated_Source\PSoC5/SPI_led.c ****         CyIntSetPriority     (SPI_led_TX_ISR_NUMBER,  SPI_led_TX_ISR_PRIORITY);
  72:Generated_Source\PSoC5/SPI_led.c ****         (void) CyIntSetVector(SPI_led_TX_ISR_NUMBER, &SPI_led_TX_ISR);
  73:Generated_Source\PSoC5/SPI_led.c ****     #endif /* (0u != SPI_led_INTERNAL_TX_INT_ENABLED) */
  74:Generated_Source\PSoC5/SPI_led.c **** 
ARM GAS  C:\Users\larco\AppData\Local\Temp\cccTufIC.s 			page 3


  75:Generated_Source\PSoC5/SPI_led.c ****     /* Init RX ISR  */
  76:Generated_Source\PSoC5/SPI_led.c ****     #if(0u != SPI_led_INTERNAL_RX_INT_ENABLED)
  77:Generated_Source\PSoC5/SPI_led.c ****         CyIntDisable         (SPI_led_RX_ISR_NUMBER);
  78:Generated_Source\PSoC5/SPI_led.c ****         CyIntSetPriority     (SPI_led_RX_ISR_NUMBER,  SPI_led_RX_ISR_PRIORITY);
  79:Generated_Source\PSoC5/SPI_led.c ****         (void) CyIntSetVector(SPI_led_RX_ISR_NUMBER, &SPI_led_RX_ISR);
  80:Generated_Source\PSoC5/SPI_led.c ****     #endif /* (0u != SPI_led_INTERNAL_RX_INT_ENABLED) */
  81:Generated_Source\PSoC5/SPI_led.c **** 
  82:Generated_Source\PSoC5/SPI_led.c ****     /* Clear any stray data from the RX and TX FIFO */
  83:Generated_Source\PSoC5/SPI_led.c ****     SPI_led_ClearFIFO();
  84:Generated_Source\PSoC5/SPI_led.c **** 
  85:Generated_Source\PSoC5/SPI_led.c ****     #if(SPI_led_RX_SOFTWARE_BUF_ENABLED)
  86:Generated_Source\PSoC5/SPI_led.c ****         SPI_led_rxBufferFull  = 0u;
  87:Generated_Source\PSoC5/SPI_led.c ****         SPI_led_rxBufferRead  = 0u;
  88:Generated_Source\PSoC5/SPI_led.c ****         SPI_led_rxBufferWrite = 0u;
  89:Generated_Source\PSoC5/SPI_led.c ****     #endif /* (SPI_led_RX_SOFTWARE_BUF_ENABLED) */
  90:Generated_Source\PSoC5/SPI_led.c **** 
  91:Generated_Source\PSoC5/SPI_led.c ****     #if(SPI_led_TX_SOFTWARE_BUF_ENABLED)
  92:Generated_Source\PSoC5/SPI_led.c ****         SPI_led_txBufferFull  = 0u;
  93:Generated_Source\PSoC5/SPI_led.c ****         SPI_led_txBufferRead  = 0u;
  94:Generated_Source\PSoC5/SPI_led.c ****         SPI_led_txBufferWrite = 0u;
  95:Generated_Source\PSoC5/SPI_led.c ****     #endif /* (SPI_led_TX_SOFTWARE_BUF_ENABLED) */
  96:Generated_Source\PSoC5/SPI_led.c **** 
  97:Generated_Source\PSoC5/SPI_led.c ****     (void) SPI_led_ReadTxStatus(); /* Clear Tx status and swStatusTx */
  98:Generated_Source\PSoC5/SPI_led.c ****     (void) SPI_led_ReadRxStatus(); /* Clear Rx status and swStatusRx */
  99:Generated_Source\PSoC5/SPI_led.c **** 
 100:Generated_Source\PSoC5/SPI_led.c ****     /* Configure TX and RX interrupt mask */
 101:Generated_Source\PSoC5/SPI_led.c ****     SPI_led_TX_STATUS_MASK_REG = SPI_led_TX_INIT_INTERRUPTS_MASK;
 102:Generated_Source\PSoC5/SPI_led.c ****     SPI_led_RX_STATUS_MASK_REG = SPI_led_RX_INIT_INTERRUPTS_MASK;
 103:Generated_Source\PSoC5/SPI_led.c **** }
 104:Generated_Source\PSoC5/SPI_led.c **** 
 105:Generated_Source\PSoC5/SPI_led.c **** 
 106:Generated_Source\PSoC5/SPI_led.c **** /*******************************************************************************
 107:Generated_Source\PSoC5/SPI_led.c **** * Function Name: SPI_led_Enable
 108:Generated_Source\PSoC5/SPI_led.c **** ********************************************************************************
 109:Generated_Source\PSoC5/SPI_led.c **** *
 110:Generated_Source\PSoC5/SPI_led.c **** * Summary:
 111:Generated_Source\PSoC5/SPI_led.c **** *  Enable SPIM component.
 112:Generated_Source\PSoC5/SPI_led.c **** *
 113:Generated_Source\PSoC5/SPI_led.c **** * Parameters:
 114:Generated_Source\PSoC5/SPI_led.c **** *  None.
 115:Generated_Source\PSoC5/SPI_led.c **** *
 116:Generated_Source\PSoC5/SPI_led.c **** * Return:
 117:Generated_Source\PSoC5/SPI_led.c **** *  None.
 118:Generated_Source\PSoC5/SPI_led.c **** *
 119:Generated_Source\PSoC5/SPI_led.c **** *******************************************************************************/
 120:Generated_Source\PSoC5/SPI_led.c **** void SPI_led_Enable(void) 
 121:Generated_Source\PSoC5/SPI_led.c **** {
 122:Generated_Source\PSoC5/SPI_led.c ****     uint8 enableInterrupts;
 123:Generated_Source\PSoC5/SPI_led.c **** 
 124:Generated_Source\PSoC5/SPI_led.c ****     enableInterrupts = CyEnterCriticalSection();
 125:Generated_Source\PSoC5/SPI_led.c ****     SPI_led_COUNTER_CONTROL_REG |= SPI_led_CNTR_ENABLE;
 126:Generated_Source\PSoC5/SPI_led.c ****     SPI_led_TX_STATUS_ACTL_REG  |= SPI_led_INT_ENABLE;
 127:Generated_Source\PSoC5/SPI_led.c ****     SPI_led_RX_STATUS_ACTL_REG  |= SPI_led_INT_ENABLE;
 128:Generated_Source\PSoC5/SPI_led.c ****     CyExitCriticalSection(enableInterrupts);
 129:Generated_Source\PSoC5/SPI_led.c **** 
 130:Generated_Source\PSoC5/SPI_led.c ****     #if(0u != SPI_led_INTERNAL_CLOCK)
 131:Generated_Source\PSoC5/SPI_led.c ****         SPI_led_IntClock_Enable();
ARM GAS  C:\Users\larco\AppData\Local\Temp\cccTufIC.s 			page 4


 132:Generated_Source\PSoC5/SPI_led.c ****     #endif /* (0u != SPI_led_INTERNAL_CLOCK) */
 133:Generated_Source\PSoC5/SPI_led.c **** 
 134:Generated_Source\PSoC5/SPI_led.c ****     SPI_led_EnableTxInt();
 135:Generated_Source\PSoC5/SPI_led.c ****     SPI_led_EnableRxInt();
 136:Generated_Source\PSoC5/SPI_led.c **** }
 137:Generated_Source\PSoC5/SPI_led.c **** 
 138:Generated_Source\PSoC5/SPI_led.c **** 
 139:Generated_Source\PSoC5/SPI_led.c **** /*******************************************************************************
 140:Generated_Source\PSoC5/SPI_led.c **** * Function Name: SPI_led_Start
 141:Generated_Source\PSoC5/SPI_led.c **** ********************************************************************************
 142:Generated_Source\PSoC5/SPI_led.c **** *
 143:Generated_Source\PSoC5/SPI_led.c **** * Summary:
 144:Generated_Source\PSoC5/SPI_led.c **** *  Initialize and Enable the SPI Master component.
 145:Generated_Source\PSoC5/SPI_led.c **** *
 146:Generated_Source\PSoC5/SPI_led.c **** * Parameters:
 147:Generated_Source\PSoC5/SPI_led.c **** *  None.
 148:Generated_Source\PSoC5/SPI_led.c **** *
 149:Generated_Source\PSoC5/SPI_led.c **** * Return:
 150:Generated_Source\PSoC5/SPI_led.c **** *  None.
 151:Generated_Source\PSoC5/SPI_led.c **** *
 152:Generated_Source\PSoC5/SPI_led.c **** * Global variables:
 153:Generated_Source\PSoC5/SPI_led.c **** *  SPI_led_initVar - used to check initial configuration, modified on
 154:Generated_Source\PSoC5/SPI_led.c **** *  first function call.
 155:Generated_Source\PSoC5/SPI_led.c **** *
 156:Generated_Source\PSoC5/SPI_led.c **** * Theory:
 157:Generated_Source\PSoC5/SPI_led.c **** *  Enable the clock input to enable operation.
 158:Generated_Source\PSoC5/SPI_led.c **** *
 159:Generated_Source\PSoC5/SPI_led.c **** * Reentrant:
 160:Generated_Source\PSoC5/SPI_led.c **** *  No.
 161:Generated_Source\PSoC5/SPI_led.c **** *
 162:Generated_Source\PSoC5/SPI_led.c **** *******************************************************************************/
 163:Generated_Source\PSoC5/SPI_led.c **** void SPI_led_Start(void) 
 164:Generated_Source\PSoC5/SPI_led.c **** {
 165:Generated_Source\PSoC5/SPI_led.c ****     if(0u == SPI_led_initVar)
 166:Generated_Source\PSoC5/SPI_led.c ****     {
 167:Generated_Source\PSoC5/SPI_led.c ****         SPI_led_Init();
 168:Generated_Source\PSoC5/SPI_led.c ****         SPI_led_initVar = 1u;
 169:Generated_Source\PSoC5/SPI_led.c ****     }
 170:Generated_Source\PSoC5/SPI_led.c **** 
 171:Generated_Source\PSoC5/SPI_led.c ****     SPI_led_Enable();
 172:Generated_Source\PSoC5/SPI_led.c **** }
 173:Generated_Source\PSoC5/SPI_led.c **** 
 174:Generated_Source\PSoC5/SPI_led.c **** 
 175:Generated_Source\PSoC5/SPI_led.c **** /*******************************************************************************
 176:Generated_Source\PSoC5/SPI_led.c **** * Function Name: SPI_led_Stop
 177:Generated_Source\PSoC5/SPI_led.c **** ********************************************************************************
 178:Generated_Source\PSoC5/SPI_led.c **** *
 179:Generated_Source\PSoC5/SPI_led.c **** * Summary:
 180:Generated_Source\PSoC5/SPI_led.c **** *  Disable the SPI Master component.
 181:Generated_Source\PSoC5/SPI_led.c **** *
 182:Generated_Source\PSoC5/SPI_led.c **** * Parameters:
 183:Generated_Source\PSoC5/SPI_led.c **** *  None.
 184:Generated_Source\PSoC5/SPI_led.c **** *
 185:Generated_Source\PSoC5/SPI_led.c **** * Return:
 186:Generated_Source\PSoC5/SPI_led.c **** *  None.
 187:Generated_Source\PSoC5/SPI_led.c **** *
 188:Generated_Source\PSoC5/SPI_led.c **** * Theory:
ARM GAS  C:\Users\larco\AppData\Local\Temp\cccTufIC.s 			page 5


 189:Generated_Source\PSoC5/SPI_led.c **** *  Disable the clock input to enable operation.
 190:Generated_Source\PSoC5/SPI_led.c **** *
 191:Generated_Source\PSoC5/SPI_led.c **** *******************************************************************************/
 192:Generated_Source\PSoC5/SPI_led.c **** void SPI_led_Stop(void) 
 193:Generated_Source\PSoC5/SPI_led.c **** {
 194:Generated_Source\PSoC5/SPI_led.c ****     uint8 enableInterrupts;
 195:Generated_Source\PSoC5/SPI_led.c **** 
 196:Generated_Source\PSoC5/SPI_led.c ****     enableInterrupts = CyEnterCriticalSection();
 197:Generated_Source\PSoC5/SPI_led.c ****     SPI_led_TX_STATUS_ACTL_REG &= ((uint8) ~SPI_led_INT_ENABLE);
 198:Generated_Source\PSoC5/SPI_led.c ****     SPI_led_RX_STATUS_ACTL_REG &= ((uint8) ~SPI_led_INT_ENABLE);
 199:Generated_Source\PSoC5/SPI_led.c ****     CyExitCriticalSection(enableInterrupts);
 200:Generated_Source\PSoC5/SPI_led.c **** 
 201:Generated_Source\PSoC5/SPI_led.c ****     #if(0u != SPI_led_INTERNAL_CLOCK)
 202:Generated_Source\PSoC5/SPI_led.c ****         SPI_led_IntClock_Disable();
 203:Generated_Source\PSoC5/SPI_led.c ****     #endif /* (0u != SPI_led_INTERNAL_CLOCK) */
 204:Generated_Source\PSoC5/SPI_led.c **** 
 205:Generated_Source\PSoC5/SPI_led.c ****     SPI_led_DisableTxInt();
 206:Generated_Source\PSoC5/SPI_led.c ****     SPI_led_DisableRxInt();
 207:Generated_Source\PSoC5/SPI_led.c **** }
 208:Generated_Source\PSoC5/SPI_led.c **** 
 209:Generated_Source\PSoC5/SPI_led.c **** 
 210:Generated_Source\PSoC5/SPI_led.c **** /*******************************************************************************
 211:Generated_Source\PSoC5/SPI_led.c **** * Function Name: SPI_led_EnableTxInt
 212:Generated_Source\PSoC5/SPI_led.c **** ********************************************************************************
 213:Generated_Source\PSoC5/SPI_led.c **** *
 214:Generated_Source\PSoC5/SPI_led.c **** * Summary:
 215:Generated_Source\PSoC5/SPI_led.c **** *  Enable internal Tx interrupt generation.
 216:Generated_Source\PSoC5/SPI_led.c **** *
 217:Generated_Source\PSoC5/SPI_led.c **** * Parameters:
 218:Generated_Source\PSoC5/SPI_led.c **** *  None.
 219:Generated_Source\PSoC5/SPI_led.c **** *
 220:Generated_Source\PSoC5/SPI_led.c **** * Return:
 221:Generated_Source\PSoC5/SPI_led.c **** *  None.
 222:Generated_Source\PSoC5/SPI_led.c **** *
 223:Generated_Source\PSoC5/SPI_led.c **** * Theory:
 224:Generated_Source\PSoC5/SPI_led.c **** *  Enable the internal Tx interrupt output -or- the interrupt component itself.
 225:Generated_Source\PSoC5/SPI_led.c **** *
 226:Generated_Source\PSoC5/SPI_led.c **** *******************************************************************************/
 227:Generated_Source\PSoC5/SPI_led.c **** void SPI_led_EnableTxInt(void) 
 228:Generated_Source\PSoC5/SPI_led.c **** {
 229:Generated_Source\PSoC5/SPI_led.c ****     #if(0u != SPI_led_INTERNAL_TX_INT_ENABLED)
 230:Generated_Source\PSoC5/SPI_led.c ****         CyIntEnable(SPI_led_TX_ISR_NUMBER);
 231:Generated_Source\PSoC5/SPI_led.c ****     #endif /* (0u != SPI_led_INTERNAL_TX_INT_ENABLED) */
 232:Generated_Source\PSoC5/SPI_led.c **** }
 233:Generated_Source\PSoC5/SPI_led.c **** 
 234:Generated_Source\PSoC5/SPI_led.c **** 
 235:Generated_Source\PSoC5/SPI_led.c **** /*******************************************************************************
 236:Generated_Source\PSoC5/SPI_led.c **** * Function Name: SPI_led_EnableRxInt
 237:Generated_Source\PSoC5/SPI_led.c **** ********************************************************************************
 238:Generated_Source\PSoC5/SPI_led.c **** *
 239:Generated_Source\PSoC5/SPI_led.c **** * Summary:
 240:Generated_Source\PSoC5/SPI_led.c **** *  Enable internal Rx interrupt generation.
 241:Generated_Source\PSoC5/SPI_led.c **** *
 242:Generated_Source\PSoC5/SPI_led.c **** * Parameters:
 243:Generated_Source\PSoC5/SPI_led.c **** *  None.
 244:Generated_Source\PSoC5/SPI_led.c **** *
 245:Generated_Source\PSoC5/SPI_led.c **** * Return:
ARM GAS  C:\Users\larco\AppData\Local\Temp\cccTufIC.s 			page 6


 246:Generated_Source\PSoC5/SPI_led.c **** *  None.
 247:Generated_Source\PSoC5/SPI_led.c **** *
 248:Generated_Source\PSoC5/SPI_led.c **** * Theory:
 249:Generated_Source\PSoC5/SPI_led.c **** *  Enable the internal Rx interrupt output -or- the interrupt component itself.
 250:Generated_Source\PSoC5/SPI_led.c **** *
 251:Generated_Source\PSoC5/SPI_led.c **** *******************************************************************************/
 252:Generated_Source\PSoC5/SPI_led.c **** void SPI_led_EnableRxInt(void) 
 253:Generated_Source\PSoC5/SPI_led.c **** {
 254:Generated_Source\PSoC5/SPI_led.c ****     #if(0u != SPI_led_INTERNAL_RX_INT_ENABLED)
 255:Generated_Source\PSoC5/SPI_led.c ****         CyIntEnable(SPI_led_RX_ISR_NUMBER);
 256:Generated_Source\PSoC5/SPI_led.c ****     #endif /* (0u != SPI_led_INTERNAL_RX_INT_ENABLED) */
 257:Generated_Source\PSoC5/SPI_led.c **** }
 258:Generated_Source\PSoC5/SPI_led.c **** 
 259:Generated_Source\PSoC5/SPI_led.c **** 
 260:Generated_Source\PSoC5/SPI_led.c **** /*******************************************************************************
 261:Generated_Source\PSoC5/SPI_led.c **** * Function Name: SPI_led_DisableTxInt
 262:Generated_Source\PSoC5/SPI_led.c **** ********************************************************************************
 263:Generated_Source\PSoC5/SPI_led.c **** *
 264:Generated_Source\PSoC5/SPI_led.c **** * Summary:
 265:Generated_Source\PSoC5/SPI_led.c **** *  Disable internal Tx interrupt generation.
 266:Generated_Source\PSoC5/SPI_led.c **** *
 267:Generated_Source\PSoC5/SPI_led.c **** * Parameters:
 268:Generated_Source\PSoC5/SPI_led.c **** *  None.
 269:Generated_Source\PSoC5/SPI_led.c **** *
 270:Generated_Source\PSoC5/SPI_led.c **** * Return:
 271:Generated_Source\PSoC5/SPI_led.c **** *  None.
 272:Generated_Source\PSoC5/SPI_led.c **** *
 273:Generated_Source\PSoC5/SPI_led.c **** * Theory:
 274:Generated_Source\PSoC5/SPI_led.c **** *  Disable the internal Tx interrupt output -or- the interrupt component itself.
 275:Generated_Source\PSoC5/SPI_led.c **** *
 276:Generated_Source\PSoC5/SPI_led.c **** *******************************************************************************/
 277:Generated_Source\PSoC5/SPI_led.c **** void SPI_led_DisableTxInt(void) 
 278:Generated_Source\PSoC5/SPI_led.c **** {
 279:Generated_Source\PSoC5/SPI_led.c ****     #if(0u != SPI_led_INTERNAL_TX_INT_ENABLED)
 280:Generated_Source\PSoC5/SPI_led.c ****         CyIntDisable(SPI_led_TX_ISR_NUMBER);
 281:Generated_Source\PSoC5/SPI_led.c ****     #endif /* (0u != SPI_led_INTERNAL_TX_INT_ENABLED) */
 282:Generated_Source\PSoC5/SPI_led.c **** }
 283:Generated_Source\PSoC5/SPI_led.c **** 
 284:Generated_Source\PSoC5/SPI_led.c **** 
 285:Generated_Source\PSoC5/SPI_led.c **** /*******************************************************************************
 286:Generated_Source\PSoC5/SPI_led.c **** * Function Name: SPI_led_DisableRxInt
 287:Generated_Source\PSoC5/SPI_led.c **** ********************************************************************************
 288:Generated_Source\PSoC5/SPI_led.c **** *
 289:Generated_Source\PSoC5/SPI_led.c **** * Summary:
 290:Generated_Source\PSoC5/SPI_led.c **** *  Disable internal Rx interrupt generation.
 291:Generated_Source\PSoC5/SPI_led.c **** *
 292:Generated_Source\PSoC5/SPI_led.c **** * Parameters:
 293:Generated_Source\PSoC5/SPI_led.c **** *  None.
 294:Generated_Source\PSoC5/SPI_led.c **** *
 295:Generated_Source\PSoC5/SPI_led.c **** * Return:
 296:Generated_Source\PSoC5/SPI_led.c **** *  None.
 297:Generated_Source\PSoC5/SPI_led.c **** *
 298:Generated_Source\PSoC5/SPI_led.c **** * Theory:
 299:Generated_Source\PSoC5/SPI_led.c **** *  Disable the internal Rx interrupt output -or- the interrupt component itself.
 300:Generated_Source\PSoC5/SPI_led.c **** *
 301:Generated_Source\PSoC5/SPI_led.c **** *******************************************************************************/
 302:Generated_Source\PSoC5/SPI_led.c **** void SPI_led_DisableRxInt(void) 
ARM GAS  C:\Users\larco\AppData\Local\Temp\cccTufIC.s 			page 7


 303:Generated_Source\PSoC5/SPI_led.c **** {
 304:Generated_Source\PSoC5/SPI_led.c ****     #if(0u != SPI_led_INTERNAL_RX_INT_ENABLED)
 305:Generated_Source\PSoC5/SPI_led.c ****         CyIntDisable(SPI_led_RX_ISR_NUMBER);
 306:Generated_Source\PSoC5/SPI_led.c ****     #endif /* (0u != SPI_led_INTERNAL_RX_INT_ENABLED) */
 307:Generated_Source\PSoC5/SPI_led.c **** }
 308:Generated_Source\PSoC5/SPI_led.c **** 
 309:Generated_Source\PSoC5/SPI_led.c **** 
 310:Generated_Source\PSoC5/SPI_led.c **** /*******************************************************************************
 311:Generated_Source\PSoC5/SPI_led.c **** * Function Name: SPI_led_SetTxInterruptMode
 312:Generated_Source\PSoC5/SPI_led.c **** ********************************************************************************
 313:Generated_Source\PSoC5/SPI_led.c **** *
 314:Generated_Source\PSoC5/SPI_led.c **** * Summary:
 315:Generated_Source\PSoC5/SPI_led.c **** *  Configure which status bits trigger an interrupt event.
 316:Generated_Source\PSoC5/SPI_led.c **** *
 317:Generated_Source\PSoC5/SPI_led.c **** * Parameters:
 318:Generated_Source\PSoC5/SPI_led.c **** *  intSrc: An or'd combination of the desired status bit masks (defined in the
 319:Generated_Source\PSoC5/SPI_led.c **** *  header file).
 320:Generated_Source\PSoC5/SPI_led.c **** *
 321:Generated_Source\PSoC5/SPI_led.c **** * Return:
 322:Generated_Source\PSoC5/SPI_led.c **** *  None.
 323:Generated_Source\PSoC5/SPI_led.c **** *
 324:Generated_Source\PSoC5/SPI_led.c **** * Theory:
 325:Generated_Source\PSoC5/SPI_led.c **** *  Enables the output of specific status bits to the interrupt controller.
 326:Generated_Source\PSoC5/SPI_led.c **** *
 327:Generated_Source\PSoC5/SPI_led.c **** *******************************************************************************/
 328:Generated_Source\PSoC5/SPI_led.c **** void SPI_led_SetTxInterruptMode(uint8 intSrc) 
 329:Generated_Source\PSoC5/SPI_led.c **** {
 330:Generated_Source\PSoC5/SPI_led.c ****     SPI_led_TX_STATUS_MASK_REG = intSrc;
 331:Generated_Source\PSoC5/SPI_led.c **** }
 332:Generated_Source\PSoC5/SPI_led.c **** 
 333:Generated_Source\PSoC5/SPI_led.c **** 
 334:Generated_Source\PSoC5/SPI_led.c **** /*******************************************************************************
 335:Generated_Source\PSoC5/SPI_led.c **** * Function Name: SPI_led_SetRxInterruptMode
 336:Generated_Source\PSoC5/SPI_led.c **** ********************************************************************************
 337:Generated_Source\PSoC5/SPI_led.c **** *
 338:Generated_Source\PSoC5/SPI_led.c **** * Summary:
 339:Generated_Source\PSoC5/SPI_led.c **** *  Configure which status bits trigger an interrupt event.
 340:Generated_Source\PSoC5/SPI_led.c **** *
 341:Generated_Source\PSoC5/SPI_led.c **** * Parameters:
 342:Generated_Source\PSoC5/SPI_led.c **** *  intSrc: An or'd combination of the desired status bit masks (defined in the
 343:Generated_Source\PSoC5/SPI_led.c **** *  header file).
 344:Generated_Source\PSoC5/SPI_led.c **** *
 345:Generated_Source\PSoC5/SPI_led.c **** * Return:
 346:Generated_Source\PSoC5/SPI_led.c **** *  None.
 347:Generated_Source\PSoC5/SPI_led.c **** *
 348:Generated_Source\PSoC5/SPI_led.c **** * Theory:
 349:Generated_Source\PSoC5/SPI_led.c **** *  Enables the output of specific status bits to the interrupt controller.
 350:Generated_Source\PSoC5/SPI_led.c **** *
 351:Generated_Source\PSoC5/SPI_led.c **** *******************************************************************************/
 352:Generated_Source\PSoC5/SPI_led.c **** void SPI_led_SetRxInterruptMode(uint8 intSrc) 
 353:Generated_Source\PSoC5/SPI_led.c **** {
 354:Generated_Source\PSoC5/SPI_led.c ****     SPI_led_RX_STATUS_MASK_REG  = intSrc;
 355:Generated_Source\PSoC5/SPI_led.c **** }
 356:Generated_Source\PSoC5/SPI_led.c **** 
 357:Generated_Source\PSoC5/SPI_led.c **** 
 358:Generated_Source\PSoC5/SPI_led.c **** /*******************************************************************************
 359:Generated_Source\PSoC5/SPI_led.c **** * Function Name: SPI_led_ReadTxStatus
ARM GAS  C:\Users\larco\AppData\Local\Temp\cccTufIC.s 			page 8


 360:Generated_Source\PSoC5/SPI_led.c **** ********************************************************************************
 361:Generated_Source\PSoC5/SPI_led.c **** *
 362:Generated_Source\PSoC5/SPI_led.c **** * Summary:
 363:Generated_Source\PSoC5/SPI_led.c **** *  Read the Tx status register for the component.
 364:Generated_Source\PSoC5/SPI_led.c **** *
 365:Generated_Source\PSoC5/SPI_led.c **** * Parameters:
 366:Generated_Source\PSoC5/SPI_led.c **** *  None.
 367:Generated_Source\PSoC5/SPI_led.c **** *
 368:Generated_Source\PSoC5/SPI_led.c **** * Return:
 369:Generated_Source\PSoC5/SPI_led.c **** *  Contents of the Tx status register.
 370:Generated_Source\PSoC5/SPI_led.c **** *
 371:Generated_Source\PSoC5/SPI_led.c **** * Global variables:
 372:Generated_Source\PSoC5/SPI_led.c **** *  SPI_led_swStatusTx - used to store in software status register,
 373:Generated_Source\PSoC5/SPI_led.c **** *  modified every function call - resets to zero.
 374:Generated_Source\PSoC5/SPI_led.c **** *
 375:Generated_Source\PSoC5/SPI_led.c **** * Theory:
 376:Generated_Source\PSoC5/SPI_led.c **** *  Allows the user and the API to read the Tx status register for error
 377:Generated_Source\PSoC5/SPI_led.c **** *  detection and flow control.
 378:Generated_Source\PSoC5/SPI_led.c **** *
 379:Generated_Source\PSoC5/SPI_led.c **** * Side Effects:
 380:Generated_Source\PSoC5/SPI_led.c **** *  Clear Tx status register of the component.
 381:Generated_Source\PSoC5/SPI_led.c **** *
 382:Generated_Source\PSoC5/SPI_led.c **** * Reentrant:
 383:Generated_Source\PSoC5/SPI_led.c **** *  No.
 384:Generated_Source\PSoC5/SPI_led.c **** *
 385:Generated_Source\PSoC5/SPI_led.c **** *******************************************************************************/
 386:Generated_Source\PSoC5/SPI_led.c **** uint8 SPI_led_ReadTxStatus(void) 
 387:Generated_Source\PSoC5/SPI_led.c **** {
 388:Generated_Source\PSoC5/SPI_led.c ****     uint8 tmpStatus;
 389:Generated_Source\PSoC5/SPI_led.c **** 
 390:Generated_Source\PSoC5/SPI_led.c ****     #if(SPI_led_TX_SOFTWARE_BUF_ENABLED)
 391:Generated_Source\PSoC5/SPI_led.c ****         /* Disable TX interrupt to protect global veriables */
 392:Generated_Source\PSoC5/SPI_led.c ****         SPI_led_DisableTxInt();
 393:Generated_Source\PSoC5/SPI_led.c **** 
 394:Generated_Source\PSoC5/SPI_led.c ****         tmpStatus = SPI_led_GET_STATUS_TX(SPI_led_swStatusTx);
 395:Generated_Source\PSoC5/SPI_led.c ****         SPI_led_swStatusTx = 0u;
 396:Generated_Source\PSoC5/SPI_led.c **** 
 397:Generated_Source\PSoC5/SPI_led.c ****         SPI_led_EnableTxInt();
 398:Generated_Source\PSoC5/SPI_led.c **** 
 399:Generated_Source\PSoC5/SPI_led.c ****     #else
 400:Generated_Source\PSoC5/SPI_led.c **** 
 401:Generated_Source\PSoC5/SPI_led.c ****         tmpStatus = SPI_led_TX_STATUS_REG;
 402:Generated_Source\PSoC5/SPI_led.c **** 
 403:Generated_Source\PSoC5/SPI_led.c ****     #endif /* (SPI_led_TX_SOFTWARE_BUF_ENABLED) */
 404:Generated_Source\PSoC5/SPI_led.c **** 
 405:Generated_Source\PSoC5/SPI_led.c ****     return(tmpStatus);
 406:Generated_Source\PSoC5/SPI_led.c **** }
 407:Generated_Source\PSoC5/SPI_led.c **** 
 408:Generated_Source\PSoC5/SPI_led.c **** 
 409:Generated_Source\PSoC5/SPI_led.c **** /*******************************************************************************
 410:Generated_Source\PSoC5/SPI_led.c **** * Function Name: SPI_led_ReadRxStatus
 411:Generated_Source\PSoC5/SPI_led.c **** ********************************************************************************
 412:Generated_Source\PSoC5/SPI_led.c **** *
 413:Generated_Source\PSoC5/SPI_led.c **** * Summary:
 414:Generated_Source\PSoC5/SPI_led.c **** *  Read the Rx status register for the component.
 415:Generated_Source\PSoC5/SPI_led.c **** *
 416:Generated_Source\PSoC5/SPI_led.c **** * Parameters:
ARM GAS  C:\Users\larco\AppData\Local\Temp\cccTufIC.s 			page 9


 417:Generated_Source\PSoC5/SPI_led.c **** *  None.
 418:Generated_Source\PSoC5/SPI_led.c **** *
 419:Generated_Source\PSoC5/SPI_led.c **** * Return:
 420:Generated_Source\PSoC5/SPI_led.c **** *  Contents of the Rx status register.
 421:Generated_Source\PSoC5/SPI_led.c **** *
 422:Generated_Source\PSoC5/SPI_led.c **** * Global variables:
 423:Generated_Source\PSoC5/SPI_led.c **** *  SPI_led_swStatusRx - used to store in software Rx status register,
 424:Generated_Source\PSoC5/SPI_led.c **** *  modified every function call - resets to zero.
 425:Generated_Source\PSoC5/SPI_led.c **** *
 426:Generated_Source\PSoC5/SPI_led.c **** * Theory:
 427:Generated_Source\PSoC5/SPI_led.c **** *  Allows the user and the API to read the Rx status register for error
 428:Generated_Source\PSoC5/SPI_led.c **** *  detection and flow control.
 429:Generated_Source\PSoC5/SPI_led.c **** *
 430:Generated_Source\PSoC5/SPI_led.c **** * Side Effects:
 431:Generated_Source\PSoC5/SPI_led.c **** *  Clear Rx status register of the component.
 432:Generated_Source\PSoC5/SPI_led.c **** *
 433:Generated_Source\PSoC5/SPI_led.c **** * Reentrant:
 434:Generated_Source\PSoC5/SPI_led.c **** *  No.
 435:Generated_Source\PSoC5/SPI_led.c **** *
 436:Generated_Source\PSoC5/SPI_led.c **** *******************************************************************************/
 437:Generated_Source\PSoC5/SPI_led.c **** uint8 SPI_led_ReadRxStatus(void) 
 438:Generated_Source\PSoC5/SPI_led.c **** {
 439:Generated_Source\PSoC5/SPI_led.c ****     uint8 tmpStatus;
 440:Generated_Source\PSoC5/SPI_led.c **** 
 441:Generated_Source\PSoC5/SPI_led.c ****     #if(SPI_led_RX_SOFTWARE_BUF_ENABLED)
 442:Generated_Source\PSoC5/SPI_led.c ****         /* Disable RX interrupt to protect global veriables */
 443:Generated_Source\PSoC5/SPI_led.c ****         SPI_led_DisableRxInt();
 444:Generated_Source\PSoC5/SPI_led.c **** 
 445:Generated_Source\PSoC5/SPI_led.c ****         tmpStatus = SPI_led_GET_STATUS_RX(SPI_led_swStatusRx);
 446:Generated_Source\PSoC5/SPI_led.c ****         SPI_led_swStatusRx = 0u;
 447:Generated_Source\PSoC5/SPI_led.c **** 
 448:Generated_Source\PSoC5/SPI_led.c ****         SPI_led_EnableRxInt();
 449:Generated_Source\PSoC5/SPI_led.c **** 
 450:Generated_Source\PSoC5/SPI_led.c ****     #else
 451:Generated_Source\PSoC5/SPI_led.c **** 
 452:Generated_Source\PSoC5/SPI_led.c ****         tmpStatus = SPI_led_RX_STATUS_REG;
 453:Generated_Source\PSoC5/SPI_led.c **** 
 454:Generated_Source\PSoC5/SPI_led.c ****     #endif /* (SPI_led_RX_SOFTWARE_BUF_ENABLED) */
 455:Generated_Source\PSoC5/SPI_led.c **** 
 456:Generated_Source\PSoC5/SPI_led.c ****     return(tmpStatus);
 457:Generated_Source\PSoC5/SPI_led.c **** }
 458:Generated_Source\PSoC5/SPI_led.c **** 
 459:Generated_Source\PSoC5/SPI_led.c **** 
 460:Generated_Source\PSoC5/SPI_led.c **** /*******************************************************************************
 461:Generated_Source\PSoC5/SPI_led.c **** * Function Name: SPI_led_WriteTxData
 462:Generated_Source\PSoC5/SPI_led.c **** ********************************************************************************
 463:Generated_Source\PSoC5/SPI_led.c **** *
 464:Generated_Source\PSoC5/SPI_led.c **** * Summary:
 465:Generated_Source\PSoC5/SPI_led.c **** *  Write a byte of data to be sent across the SPI.
 466:Generated_Source\PSoC5/SPI_led.c **** *
 467:Generated_Source\PSoC5/SPI_led.c **** * Parameters:
 468:Generated_Source\PSoC5/SPI_led.c **** *  txDataByte: The data value to send across the SPI.
 469:Generated_Source\PSoC5/SPI_led.c **** *
 470:Generated_Source\PSoC5/SPI_led.c **** * Return:
 471:Generated_Source\PSoC5/SPI_led.c **** *  None.
 472:Generated_Source\PSoC5/SPI_led.c **** *
 473:Generated_Source\PSoC5/SPI_led.c **** * Global variables:
ARM GAS  C:\Users\larco\AppData\Local\Temp\cccTufIC.s 			page 10


 474:Generated_Source\PSoC5/SPI_led.c **** *  SPI_led_txBufferWrite - used for the account of the bytes which
 475:Generated_Source\PSoC5/SPI_led.c **** *  have been written down in the TX software buffer, modified every function
 476:Generated_Source\PSoC5/SPI_led.c **** *  call if TX Software Buffer is used.
 477:Generated_Source\PSoC5/SPI_led.c **** *  SPI_led_txBufferRead - used for the account of the bytes which
 478:Generated_Source\PSoC5/SPI_led.c **** *  have been read from the TX software buffer.
 479:Generated_Source\PSoC5/SPI_led.c **** *  SPI_led_txBuffer[SPI_led_TX_BUFFER_SIZE] - used to store
 480:Generated_Source\PSoC5/SPI_led.c **** *  data to sending, modified every function call if TX Software Buffer is used.
 481:Generated_Source\PSoC5/SPI_led.c **** *
 482:Generated_Source\PSoC5/SPI_led.c **** * Theory:
 483:Generated_Source\PSoC5/SPI_led.c **** *  Allows the user to transmit any byte of data in a single transfer.
 484:Generated_Source\PSoC5/SPI_led.c **** *
 485:Generated_Source\PSoC5/SPI_led.c **** * Side Effects:
 486:Generated_Source\PSoC5/SPI_led.c **** *  If this function is called again before the previous byte is finished then
 487:Generated_Source\PSoC5/SPI_led.c **** *  the next byte will be appended to the transfer with no time between
 488:Generated_Source\PSoC5/SPI_led.c **** *  the byte transfers. Clear Tx status register of the component.
 489:Generated_Source\PSoC5/SPI_led.c **** *
 490:Generated_Source\PSoC5/SPI_led.c **** * Reentrant:
 491:Generated_Source\PSoC5/SPI_led.c **** *  No.
 492:Generated_Source\PSoC5/SPI_led.c **** *
 493:Generated_Source\PSoC5/SPI_led.c **** *******************************************************************************/
 494:Generated_Source\PSoC5/SPI_led.c **** void SPI_led_WriteTxData(uint8 txData) 
 495:Generated_Source\PSoC5/SPI_led.c **** {
 496:Generated_Source\PSoC5/SPI_led.c ****     #if(SPI_led_TX_SOFTWARE_BUF_ENABLED)
 497:Generated_Source\PSoC5/SPI_led.c **** 
 498:Generated_Source\PSoC5/SPI_led.c ****         uint8 tempStatus;
 499:Generated_Source\PSoC5/SPI_led.c ****         uint8 tmpTxBufferRead;
 500:Generated_Source\PSoC5/SPI_led.c **** 
 501:Generated_Source\PSoC5/SPI_led.c ****         /* Block if TX buffer is FULL: don't overwrite */
 502:Generated_Source\PSoC5/SPI_led.c ****         do
 503:Generated_Source\PSoC5/SPI_led.c ****         {
 504:Generated_Source\PSoC5/SPI_led.c ****             tmpTxBufferRead = SPI_led_txBufferRead;
 505:Generated_Source\PSoC5/SPI_led.c ****             if(0u == tmpTxBufferRead)
 506:Generated_Source\PSoC5/SPI_led.c ****             {
 507:Generated_Source\PSoC5/SPI_led.c ****                 tmpTxBufferRead = (SPI_led_TX_BUFFER_SIZE - 1u);
 508:Generated_Source\PSoC5/SPI_led.c ****             }
 509:Generated_Source\PSoC5/SPI_led.c ****             else
 510:Generated_Source\PSoC5/SPI_led.c ****             {
 511:Generated_Source\PSoC5/SPI_led.c ****                 tmpTxBufferRead--;
 512:Generated_Source\PSoC5/SPI_led.c ****             }
 513:Generated_Source\PSoC5/SPI_led.c **** 
 514:Generated_Source\PSoC5/SPI_led.c ****         }while(tmpTxBufferRead == SPI_led_txBufferWrite);
 515:Generated_Source\PSoC5/SPI_led.c **** 
 516:Generated_Source\PSoC5/SPI_led.c ****         /* Disable TX interrupt to protect global veriables */
 517:Generated_Source\PSoC5/SPI_led.c ****         SPI_led_DisableTxInt();
 518:Generated_Source\PSoC5/SPI_led.c **** 
 519:Generated_Source\PSoC5/SPI_led.c ****         tempStatus = SPI_led_GET_STATUS_TX(SPI_led_swStatusTx);
 520:Generated_Source\PSoC5/SPI_led.c ****         SPI_led_swStatusTx = tempStatus;
 521:Generated_Source\PSoC5/SPI_led.c **** 
 522:Generated_Source\PSoC5/SPI_led.c **** 
 523:Generated_Source\PSoC5/SPI_led.c ****         if((SPI_led_txBufferRead == SPI_led_txBufferWrite) &&
 524:Generated_Source\PSoC5/SPI_led.c ****            (0u != (SPI_led_swStatusTx & SPI_led_STS_TX_FIFO_NOT_FULL)))
 525:Generated_Source\PSoC5/SPI_led.c ****         {
 526:Generated_Source\PSoC5/SPI_led.c ****             /* Put data element into the TX FIFO */
 527:Generated_Source\PSoC5/SPI_led.c ****             CY_SET_REG8(SPI_led_TXDATA_PTR, txData);
 528:Generated_Source\PSoC5/SPI_led.c ****         }
 529:Generated_Source\PSoC5/SPI_led.c ****         else
 530:Generated_Source\PSoC5/SPI_led.c ****         {
ARM GAS  C:\Users\larco\AppData\Local\Temp\cccTufIC.s 			page 11


 531:Generated_Source\PSoC5/SPI_led.c ****             /* Add to the TX software buffer */
 532:Generated_Source\PSoC5/SPI_led.c ****             SPI_led_txBufferWrite++;
 533:Generated_Source\PSoC5/SPI_led.c ****             if(SPI_led_txBufferWrite >= SPI_led_TX_BUFFER_SIZE)
 534:Generated_Source\PSoC5/SPI_led.c ****             {
 535:Generated_Source\PSoC5/SPI_led.c ****                 SPI_led_txBufferWrite = 0u;
 536:Generated_Source\PSoC5/SPI_led.c ****             }
 537:Generated_Source\PSoC5/SPI_led.c **** 
 538:Generated_Source\PSoC5/SPI_led.c ****             if(SPI_led_txBufferWrite == SPI_led_txBufferRead)
 539:Generated_Source\PSoC5/SPI_led.c ****             {
 540:Generated_Source\PSoC5/SPI_led.c ****                 SPI_led_txBufferRead++;
 541:Generated_Source\PSoC5/SPI_led.c ****                 if(SPI_led_txBufferRead >= SPI_led_TX_BUFFER_SIZE)
 542:Generated_Source\PSoC5/SPI_led.c ****                 {
 543:Generated_Source\PSoC5/SPI_led.c ****                     SPI_led_txBufferRead = 0u;
 544:Generated_Source\PSoC5/SPI_led.c ****                 }
 545:Generated_Source\PSoC5/SPI_led.c ****                 SPI_led_txBufferFull = 1u;
 546:Generated_Source\PSoC5/SPI_led.c ****             }
 547:Generated_Source\PSoC5/SPI_led.c **** 
 548:Generated_Source\PSoC5/SPI_led.c ****             SPI_led_txBuffer[SPI_led_txBufferWrite] = txData;
 549:Generated_Source\PSoC5/SPI_led.c **** 
 550:Generated_Source\PSoC5/SPI_led.c ****             SPI_led_TX_STATUS_MASK_REG |= SPI_led_STS_TX_FIFO_NOT_FULL;
 551:Generated_Source\PSoC5/SPI_led.c ****         }
 552:Generated_Source\PSoC5/SPI_led.c **** 
 553:Generated_Source\PSoC5/SPI_led.c ****         SPI_led_EnableTxInt();
 554:Generated_Source\PSoC5/SPI_led.c **** 
 555:Generated_Source\PSoC5/SPI_led.c ****     #else
 556:Generated_Source\PSoC5/SPI_led.c ****         /* Wait until TX FIFO has a place */
 557:Generated_Source\PSoC5/SPI_led.c ****         while(0u == (SPI_led_TX_STATUS_REG & SPI_led_STS_TX_FIFO_NOT_FULL))
 558:Generated_Source\PSoC5/SPI_led.c ****         {
 559:Generated_Source\PSoC5/SPI_led.c ****         }
 560:Generated_Source\PSoC5/SPI_led.c **** 
 561:Generated_Source\PSoC5/SPI_led.c ****         /* Put data element into the TX FIFO */
 562:Generated_Source\PSoC5/SPI_led.c ****         CY_SET_REG8(SPI_led_TXDATA_PTR, txData);
 563:Generated_Source\PSoC5/SPI_led.c **** 
 564:Generated_Source\PSoC5/SPI_led.c ****     #endif /* (SPI_led_TX_SOFTWARE_BUF_ENABLED) */
 565:Generated_Source\PSoC5/SPI_led.c **** }
 566:Generated_Source\PSoC5/SPI_led.c **** 
 567:Generated_Source\PSoC5/SPI_led.c **** 
 568:Generated_Source\PSoC5/SPI_led.c **** /*******************************************************************************
 569:Generated_Source\PSoC5/SPI_led.c **** * Function Name: SPI_led_ReadRxData
 570:Generated_Source\PSoC5/SPI_led.c **** ********************************************************************************
 571:Generated_Source\PSoC5/SPI_led.c **** *
 572:Generated_Source\PSoC5/SPI_led.c **** * Summary:
 573:Generated_Source\PSoC5/SPI_led.c **** *  Read the next byte of data received across the SPI.
 574:Generated_Source\PSoC5/SPI_led.c **** *
 575:Generated_Source\PSoC5/SPI_led.c **** * Parameters:
 576:Generated_Source\PSoC5/SPI_led.c **** *  None.
 577:Generated_Source\PSoC5/SPI_led.c **** *
 578:Generated_Source\PSoC5/SPI_led.c **** * Return:
 579:Generated_Source\PSoC5/SPI_led.c **** *  The next byte of data read from the FIFO.
 580:Generated_Source\PSoC5/SPI_led.c **** *
 581:Generated_Source\PSoC5/SPI_led.c **** * Global variables:
 582:Generated_Source\PSoC5/SPI_led.c **** *  SPI_led_rxBufferWrite - used for the account of the bytes which
 583:Generated_Source\PSoC5/SPI_led.c **** *  have been written down in the RX software buffer.
 584:Generated_Source\PSoC5/SPI_led.c **** *  SPI_led_rxBufferRead - used for the account of the bytes which
 585:Generated_Source\PSoC5/SPI_led.c **** *  have been read from the RX software buffer, modified every function
 586:Generated_Source\PSoC5/SPI_led.c **** *  call if RX Software Buffer is used.
 587:Generated_Source\PSoC5/SPI_led.c **** *  SPI_led_rxBuffer[SPI_led_RX_BUFFER_SIZE] - used to store
ARM GAS  C:\Users\larco\AppData\Local\Temp\cccTufIC.s 			page 12


 588:Generated_Source\PSoC5/SPI_led.c **** *  received data.
 589:Generated_Source\PSoC5/SPI_led.c **** *
 590:Generated_Source\PSoC5/SPI_led.c **** * Theory:
 591:Generated_Source\PSoC5/SPI_led.c **** *  Allows the user to read a byte of data received.
 592:Generated_Source\PSoC5/SPI_led.c **** *
 593:Generated_Source\PSoC5/SPI_led.c **** * Side Effects:
 594:Generated_Source\PSoC5/SPI_led.c **** *  Will return invalid data if the FIFO is empty. The user should Call
 595:Generated_Source\PSoC5/SPI_led.c **** *  GetRxBufferSize() and if it returns a non-zero value then it is safe to call
 596:Generated_Source\PSoC5/SPI_led.c **** *  ReadByte() function.
 597:Generated_Source\PSoC5/SPI_led.c **** *
 598:Generated_Source\PSoC5/SPI_led.c **** * Reentrant:
 599:Generated_Source\PSoC5/SPI_led.c **** *  No.
 600:Generated_Source\PSoC5/SPI_led.c **** *
 601:Generated_Source\PSoC5/SPI_led.c **** *******************************************************************************/
 602:Generated_Source\PSoC5/SPI_led.c **** uint8 SPI_led_ReadRxData(void) 
 603:Generated_Source\PSoC5/SPI_led.c **** {
 604:Generated_Source\PSoC5/SPI_led.c ****     uint8 rxData;
 605:Generated_Source\PSoC5/SPI_led.c **** 
 606:Generated_Source\PSoC5/SPI_led.c ****     #if(SPI_led_RX_SOFTWARE_BUF_ENABLED)
 607:Generated_Source\PSoC5/SPI_led.c **** 
 608:Generated_Source\PSoC5/SPI_led.c ****         /* Disable RX interrupt to protect global veriables */
 609:Generated_Source\PSoC5/SPI_led.c ****         SPI_led_DisableRxInt();
 610:Generated_Source\PSoC5/SPI_led.c **** 
 611:Generated_Source\PSoC5/SPI_led.c ****         if(SPI_led_rxBufferRead != SPI_led_rxBufferWrite)
 612:Generated_Source\PSoC5/SPI_led.c ****         {
 613:Generated_Source\PSoC5/SPI_led.c ****             if(0u == SPI_led_rxBufferFull)
 614:Generated_Source\PSoC5/SPI_led.c ****             {
 615:Generated_Source\PSoC5/SPI_led.c ****                 SPI_led_rxBufferRead++;
 616:Generated_Source\PSoC5/SPI_led.c ****                 if(SPI_led_rxBufferRead >= SPI_led_RX_BUFFER_SIZE)
 617:Generated_Source\PSoC5/SPI_led.c ****                 {
 618:Generated_Source\PSoC5/SPI_led.c ****                     SPI_led_rxBufferRead = 0u;
 619:Generated_Source\PSoC5/SPI_led.c ****                 }
 620:Generated_Source\PSoC5/SPI_led.c ****             }
 621:Generated_Source\PSoC5/SPI_led.c ****             else
 622:Generated_Source\PSoC5/SPI_led.c ****             {
 623:Generated_Source\PSoC5/SPI_led.c ****                 SPI_led_rxBufferFull = 0u;
 624:Generated_Source\PSoC5/SPI_led.c ****             }
 625:Generated_Source\PSoC5/SPI_led.c ****         }
 626:Generated_Source\PSoC5/SPI_led.c **** 
 627:Generated_Source\PSoC5/SPI_led.c ****         rxData = SPI_led_rxBuffer[SPI_led_rxBufferRead];
 628:Generated_Source\PSoC5/SPI_led.c **** 
 629:Generated_Source\PSoC5/SPI_led.c ****         SPI_led_EnableRxInt();
 630:Generated_Source\PSoC5/SPI_led.c **** 
 631:Generated_Source\PSoC5/SPI_led.c ****     #else
 632:Generated_Source\PSoC5/SPI_led.c **** 
 633:Generated_Source\PSoC5/SPI_led.c ****         rxData = CY_GET_REG8(SPI_led_RXDATA_PTR);
 634:Generated_Source\PSoC5/SPI_led.c **** 
 635:Generated_Source\PSoC5/SPI_led.c ****     #endif /* (SPI_led_RX_SOFTWARE_BUF_ENABLED) */
 636:Generated_Source\PSoC5/SPI_led.c **** 
 637:Generated_Source\PSoC5/SPI_led.c ****     return(rxData);
 638:Generated_Source\PSoC5/SPI_led.c **** }
 639:Generated_Source\PSoC5/SPI_led.c **** 
 640:Generated_Source\PSoC5/SPI_led.c **** 
 641:Generated_Source\PSoC5/SPI_led.c **** /*******************************************************************************
 642:Generated_Source\PSoC5/SPI_led.c **** * Function Name: SPI_led_GetRxBufferSize
 643:Generated_Source\PSoC5/SPI_led.c **** ********************************************************************************
 644:Generated_Source\PSoC5/SPI_led.c **** *
ARM GAS  C:\Users\larco\AppData\Local\Temp\cccTufIC.s 			page 13


 645:Generated_Source\PSoC5/SPI_led.c **** * Summary:
 646:Generated_Source\PSoC5/SPI_led.c **** *  Returns the number of bytes/words of data currently held in the RX buffer.
 647:Generated_Source\PSoC5/SPI_led.c **** *  If RX Software Buffer not used then function return 0 if FIFO empty or 1 if
 648:Generated_Source\PSoC5/SPI_led.c **** *  FIFO not empty. In another case function return size of RX Software Buffer.
 649:Generated_Source\PSoC5/SPI_led.c **** *
 650:Generated_Source\PSoC5/SPI_led.c **** * Parameters:
 651:Generated_Source\PSoC5/SPI_led.c **** *  None.
 652:Generated_Source\PSoC5/SPI_led.c **** *
 653:Generated_Source\PSoC5/SPI_led.c **** * Return:
 654:Generated_Source\PSoC5/SPI_led.c **** *  Integer count of the number of bytes/words in the RX buffer.
 655:Generated_Source\PSoC5/SPI_led.c **** *
 656:Generated_Source\PSoC5/SPI_led.c **** * Global variables:
 657:Generated_Source\PSoC5/SPI_led.c **** *  SPI_led_rxBufferWrite - used for the account of the bytes which
 658:Generated_Source\PSoC5/SPI_led.c **** *  have been written down in the RX software buffer.
 659:Generated_Source\PSoC5/SPI_led.c **** *  SPI_led_rxBufferRead - used for the account of the bytes which
 660:Generated_Source\PSoC5/SPI_led.c **** *  have been read from the RX software buffer.
 661:Generated_Source\PSoC5/SPI_led.c **** *
 662:Generated_Source\PSoC5/SPI_led.c **** * Side Effects:
 663:Generated_Source\PSoC5/SPI_led.c **** *  Clear status register of the component.
 664:Generated_Source\PSoC5/SPI_led.c **** *
 665:Generated_Source\PSoC5/SPI_led.c **** *******************************************************************************/
 666:Generated_Source\PSoC5/SPI_led.c **** uint8 SPI_led_GetRxBufferSize(void) 
 667:Generated_Source\PSoC5/SPI_led.c **** {
 668:Generated_Source\PSoC5/SPI_led.c ****     uint8 size;
 669:Generated_Source\PSoC5/SPI_led.c **** 
 670:Generated_Source\PSoC5/SPI_led.c ****     #if(SPI_led_RX_SOFTWARE_BUF_ENABLED)
 671:Generated_Source\PSoC5/SPI_led.c **** 
 672:Generated_Source\PSoC5/SPI_led.c ****         /* Disable RX interrupt to protect global veriables */
 673:Generated_Source\PSoC5/SPI_led.c ****         SPI_led_DisableRxInt();
 674:Generated_Source\PSoC5/SPI_led.c **** 
 675:Generated_Source\PSoC5/SPI_led.c ****         if(SPI_led_rxBufferRead == SPI_led_rxBufferWrite)
 676:Generated_Source\PSoC5/SPI_led.c ****         {
 677:Generated_Source\PSoC5/SPI_led.c ****             size = 0u;
 678:Generated_Source\PSoC5/SPI_led.c ****         }
 679:Generated_Source\PSoC5/SPI_led.c ****         else if(SPI_led_rxBufferRead < SPI_led_rxBufferWrite)
 680:Generated_Source\PSoC5/SPI_led.c ****         {
 681:Generated_Source\PSoC5/SPI_led.c ****             size = (SPI_led_rxBufferWrite - SPI_led_rxBufferRead);
 682:Generated_Source\PSoC5/SPI_led.c ****         }
 683:Generated_Source\PSoC5/SPI_led.c ****         else
 684:Generated_Source\PSoC5/SPI_led.c ****         {
 685:Generated_Source\PSoC5/SPI_led.c ****             size = (SPI_led_RX_BUFFER_SIZE - SPI_led_rxBufferRead) + SPI_led_rxBufferWrite;
 686:Generated_Source\PSoC5/SPI_led.c ****         }
 687:Generated_Source\PSoC5/SPI_led.c **** 
 688:Generated_Source\PSoC5/SPI_led.c ****         SPI_led_EnableRxInt();
 689:Generated_Source\PSoC5/SPI_led.c **** 
 690:Generated_Source\PSoC5/SPI_led.c ****     #else
 691:Generated_Source\PSoC5/SPI_led.c **** 
 692:Generated_Source\PSoC5/SPI_led.c ****         /* We can only know if there is data in the RX FIFO */
 693:Generated_Source\PSoC5/SPI_led.c ****         size = (0u != (SPI_led_RX_STATUS_REG & SPI_led_STS_RX_FIFO_NOT_EMPTY)) ? 1u : 0u;
 694:Generated_Source\PSoC5/SPI_led.c **** 
 695:Generated_Source\PSoC5/SPI_led.c ****     #endif /* (SPI_led_TX_SOFTWARE_BUF_ENABLED) */
 696:Generated_Source\PSoC5/SPI_led.c **** 
 697:Generated_Source\PSoC5/SPI_led.c ****     return(size);
 698:Generated_Source\PSoC5/SPI_led.c **** }
 699:Generated_Source\PSoC5/SPI_led.c **** 
 700:Generated_Source\PSoC5/SPI_led.c **** 
 701:Generated_Source\PSoC5/SPI_led.c **** /*******************************************************************************
ARM GAS  C:\Users\larco\AppData\Local\Temp\cccTufIC.s 			page 14


 702:Generated_Source\PSoC5/SPI_led.c **** * Function Name: SPI_led_GetTxBufferSize
 703:Generated_Source\PSoC5/SPI_led.c **** ********************************************************************************
 704:Generated_Source\PSoC5/SPI_led.c **** *
 705:Generated_Source\PSoC5/SPI_led.c **** * Summary:
 706:Generated_Source\PSoC5/SPI_led.c **** *  Returns the number of bytes/words of data currently held in the TX buffer.
 707:Generated_Source\PSoC5/SPI_led.c **** *  If TX Software Buffer not used then function return 0 - if FIFO empty, 1 - if
 708:Generated_Source\PSoC5/SPI_led.c **** *  FIFO not full, 4 - if FIFO full. In another case function return size of TX
 709:Generated_Source\PSoC5/SPI_led.c **** *  Software Buffer.
 710:Generated_Source\PSoC5/SPI_led.c **** *
 711:Generated_Source\PSoC5/SPI_led.c **** * Parameters:
 712:Generated_Source\PSoC5/SPI_led.c **** *  None.
 713:Generated_Source\PSoC5/SPI_led.c **** *
 714:Generated_Source\PSoC5/SPI_led.c **** * Return:
 715:Generated_Source\PSoC5/SPI_led.c **** *  Integer count of the number of bytes/words in the TX buffer.
 716:Generated_Source\PSoC5/SPI_led.c **** *
 717:Generated_Source\PSoC5/SPI_led.c **** * Global variables:
 718:Generated_Source\PSoC5/SPI_led.c **** *  SPI_led_txBufferWrite - used for the account of the bytes which
 719:Generated_Source\PSoC5/SPI_led.c **** *  have been written down in the TX software buffer.
 720:Generated_Source\PSoC5/SPI_led.c **** *  SPI_led_txBufferRead - used for the account of the bytes which
 721:Generated_Source\PSoC5/SPI_led.c **** *  have been read from the TX software buffer.
 722:Generated_Source\PSoC5/SPI_led.c **** *
 723:Generated_Source\PSoC5/SPI_led.c **** * Side Effects:
 724:Generated_Source\PSoC5/SPI_led.c **** *  Clear status register of the component.
 725:Generated_Source\PSoC5/SPI_led.c **** *
 726:Generated_Source\PSoC5/SPI_led.c **** *******************************************************************************/
 727:Generated_Source\PSoC5/SPI_led.c **** uint8  SPI_led_GetTxBufferSize(void) 
 728:Generated_Source\PSoC5/SPI_led.c **** {
 729:Generated_Source\PSoC5/SPI_led.c ****     uint8 size;
 730:Generated_Source\PSoC5/SPI_led.c **** 
 731:Generated_Source\PSoC5/SPI_led.c ****     #if(SPI_led_TX_SOFTWARE_BUF_ENABLED)
 732:Generated_Source\PSoC5/SPI_led.c ****         /* Disable TX interrupt to protect global veriables */
 733:Generated_Source\PSoC5/SPI_led.c ****         SPI_led_DisableTxInt();
 734:Generated_Source\PSoC5/SPI_led.c **** 
 735:Generated_Source\PSoC5/SPI_led.c ****         if(SPI_led_txBufferRead == SPI_led_txBufferWrite)
 736:Generated_Source\PSoC5/SPI_led.c ****         {
 737:Generated_Source\PSoC5/SPI_led.c ****             size = 0u;
 738:Generated_Source\PSoC5/SPI_led.c ****         }
 739:Generated_Source\PSoC5/SPI_led.c ****         else if(SPI_led_txBufferRead < SPI_led_txBufferWrite)
 740:Generated_Source\PSoC5/SPI_led.c ****         {
 741:Generated_Source\PSoC5/SPI_led.c ****             size = (SPI_led_txBufferWrite - SPI_led_txBufferRead);
 742:Generated_Source\PSoC5/SPI_led.c ****         }
 743:Generated_Source\PSoC5/SPI_led.c ****         else
 744:Generated_Source\PSoC5/SPI_led.c ****         {
 745:Generated_Source\PSoC5/SPI_led.c ****             size = (SPI_led_TX_BUFFER_SIZE - SPI_led_txBufferRead) + SPI_led_txBufferWrite;
 746:Generated_Source\PSoC5/SPI_led.c ****         }
 747:Generated_Source\PSoC5/SPI_led.c **** 
 748:Generated_Source\PSoC5/SPI_led.c ****         SPI_led_EnableTxInt();
 749:Generated_Source\PSoC5/SPI_led.c **** 
 750:Generated_Source\PSoC5/SPI_led.c ****     #else
 751:Generated_Source\PSoC5/SPI_led.c **** 
 752:Generated_Source\PSoC5/SPI_led.c ****         size = SPI_led_TX_STATUS_REG;
 753:Generated_Source\PSoC5/SPI_led.c **** 
 754:Generated_Source\PSoC5/SPI_led.c ****         if(0u != (size & SPI_led_STS_TX_FIFO_EMPTY))
 755:Generated_Source\PSoC5/SPI_led.c ****         {
 756:Generated_Source\PSoC5/SPI_led.c ****             size = 0u;
 757:Generated_Source\PSoC5/SPI_led.c ****         }
 758:Generated_Source\PSoC5/SPI_led.c ****         else if(0u != (size & SPI_led_STS_TX_FIFO_NOT_FULL))
ARM GAS  C:\Users\larco\AppData\Local\Temp\cccTufIC.s 			page 15


 759:Generated_Source\PSoC5/SPI_led.c ****         {
 760:Generated_Source\PSoC5/SPI_led.c ****             size = 1u;
 761:Generated_Source\PSoC5/SPI_led.c ****         }
 762:Generated_Source\PSoC5/SPI_led.c ****         else
 763:Generated_Source\PSoC5/SPI_led.c ****         {
 764:Generated_Source\PSoC5/SPI_led.c ****             size = SPI_led_FIFO_SIZE;
 765:Generated_Source\PSoC5/SPI_led.c ****         }
 766:Generated_Source\PSoC5/SPI_led.c **** 
 767:Generated_Source\PSoC5/SPI_led.c ****     #endif /* (SPI_led_TX_SOFTWARE_BUF_ENABLED) */
 768:Generated_Source\PSoC5/SPI_led.c **** 
 769:Generated_Source\PSoC5/SPI_led.c ****     return(size);
 770:Generated_Source\PSoC5/SPI_led.c **** }
 771:Generated_Source\PSoC5/SPI_led.c **** 
 772:Generated_Source\PSoC5/SPI_led.c **** 
 773:Generated_Source\PSoC5/SPI_led.c **** /*******************************************************************************
 774:Generated_Source\PSoC5/SPI_led.c **** * Function Name: SPI_led_ClearRxBuffer
 775:Generated_Source\PSoC5/SPI_led.c **** ********************************************************************************
 776:Generated_Source\PSoC5/SPI_led.c **** *
 777:Generated_Source\PSoC5/SPI_led.c **** * Summary:
 778:Generated_Source\PSoC5/SPI_led.c **** *  Clear the RX RAM buffer by setting the read and write pointers both to zero.
 779:Generated_Source\PSoC5/SPI_led.c **** *
 780:Generated_Source\PSoC5/SPI_led.c **** * Parameters:
 781:Generated_Source\PSoC5/SPI_led.c **** *  None.
 782:Generated_Source\PSoC5/SPI_led.c **** *
 783:Generated_Source\PSoC5/SPI_led.c **** * Return:
 784:Generated_Source\PSoC5/SPI_led.c **** *  None.
 785:Generated_Source\PSoC5/SPI_led.c **** *
 786:Generated_Source\PSoC5/SPI_led.c **** * Global variables:
 787:Generated_Source\PSoC5/SPI_led.c **** *  SPI_led_rxBufferWrite - used for the account of the bytes which
 788:Generated_Source\PSoC5/SPI_led.c **** *  have been written down in the RX software buffer, modified every function
 789:Generated_Source\PSoC5/SPI_led.c **** *  call - resets to zero.
 790:Generated_Source\PSoC5/SPI_led.c **** *  SPI_led_rxBufferRead - used for the account of the bytes which
 791:Generated_Source\PSoC5/SPI_led.c **** *  have been read from the RX software buffer, modified every function call -
 792:Generated_Source\PSoC5/SPI_led.c **** *  resets to zero.
 793:Generated_Source\PSoC5/SPI_led.c **** *
 794:Generated_Source\PSoC5/SPI_led.c **** * Theory:
 795:Generated_Source\PSoC5/SPI_led.c **** *  Setting the pointers to zero makes the system believe there is no data to
 796:Generated_Source\PSoC5/SPI_led.c **** *  read and writing will resume at address 0 overwriting any data that may have
 797:Generated_Source\PSoC5/SPI_led.c **** *  remained in the RAM.
 798:Generated_Source\PSoC5/SPI_led.c **** *
 799:Generated_Source\PSoC5/SPI_led.c **** * Side Effects:
 800:Generated_Source\PSoC5/SPI_led.c **** *  Any received data not read from the RAM buffer will be lost when overwritten.
 801:Generated_Source\PSoC5/SPI_led.c **** *
 802:Generated_Source\PSoC5/SPI_led.c **** * Reentrant:
 803:Generated_Source\PSoC5/SPI_led.c **** *  No.
 804:Generated_Source\PSoC5/SPI_led.c **** *
 805:Generated_Source\PSoC5/SPI_led.c **** *******************************************************************************/
 806:Generated_Source\PSoC5/SPI_led.c **** void SPI_led_ClearRxBuffer(void) 
 807:Generated_Source\PSoC5/SPI_led.c **** {
 808:Generated_Source\PSoC5/SPI_led.c ****     /* Clear Hardware RX FIFO */
 809:Generated_Source\PSoC5/SPI_led.c ****     while(0u !=(SPI_led_RX_STATUS_REG & SPI_led_STS_RX_FIFO_NOT_EMPTY))
 810:Generated_Source\PSoC5/SPI_led.c ****     {
 811:Generated_Source\PSoC5/SPI_led.c ****         (void) CY_GET_REG8(SPI_led_RXDATA_PTR);
 812:Generated_Source\PSoC5/SPI_led.c ****     }
 813:Generated_Source\PSoC5/SPI_led.c **** 
 814:Generated_Source\PSoC5/SPI_led.c ****     #if(SPI_led_RX_SOFTWARE_BUF_ENABLED)
 815:Generated_Source\PSoC5/SPI_led.c ****         /* Disable RX interrupt to protect global veriables */
ARM GAS  C:\Users\larco\AppData\Local\Temp\cccTufIC.s 			page 16


 816:Generated_Source\PSoC5/SPI_led.c ****         SPI_led_DisableRxInt();
 817:Generated_Source\PSoC5/SPI_led.c **** 
 818:Generated_Source\PSoC5/SPI_led.c ****         SPI_led_rxBufferFull  = 0u;
 819:Generated_Source\PSoC5/SPI_led.c ****         SPI_led_rxBufferRead  = 0u;
 820:Generated_Source\PSoC5/SPI_led.c ****         SPI_led_rxBufferWrite = 0u;
 821:Generated_Source\PSoC5/SPI_led.c **** 
 822:Generated_Source\PSoC5/SPI_led.c ****         SPI_led_EnableRxInt();
 823:Generated_Source\PSoC5/SPI_led.c ****     #endif /* (SPI_led_RX_SOFTWARE_BUF_ENABLED) */
 824:Generated_Source\PSoC5/SPI_led.c **** }
 825:Generated_Source\PSoC5/SPI_led.c **** 
 826:Generated_Source\PSoC5/SPI_led.c **** 
 827:Generated_Source\PSoC5/SPI_led.c **** /*******************************************************************************
 828:Generated_Source\PSoC5/SPI_led.c **** * Function Name: SPI_led_ClearTxBuffer
 829:Generated_Source\PSoC5/SPI_led.c **** ********************************************************************************
 830:Generated_Source\PSoC5/SPI_led.c **** *
 831:Generated_Source\PSoC5/SPI_led.c **** * Summary:
 832:Generated_Source\PSoC5/SPI_led.c **** *  Clear the TX RAM buffer by setting the read and write pointers both to zero.
 833:Generated_Source\PSoC5/SPI_led.c **** *
 834:Generated_Source\PSoC5/SPI_led.c **** * Parameters:
 835:Generated_Source\PSoC5/SPI_led.c **** *  None.
 836:Generated_Source\PSoC5/SPI_led.c **** *
 837:Generated_Source\PSoC5/SPI_led.c **** * Return:
 838:Generated_Source\PSoC5/SPI_led.c **** *  None.
 839:Generated_Source\PSoC5/SPI_led.c **** *
 840:Generated_Source\PSoC5/SPI_led.c **** * Global variables:
 841:Generated_Source\PSoC5/SPI_led.c **** *  SPI_led_txBufferWrite - used for the account of the bytes which
 842:Generated_Source\PSoC5/SPI_led.c **** *  have been written down in the TX software buffer, modified every function
 843:Generated_Source\PSoC5/SPI_led.c **** *  call - resets to zero.
 844:Generated_Source\PSoC5/SPI_led.c **** *  SPI_led_txBufferRead - used for the account of the bytes which
 845:Generated_Source\PSoC5/SPI_led.c **** *  have been read from the TX software buffer, modified every function call -
 846:Generated_Source\PSoC5/SPI_led.c **** *  resets to zero.
 847:Generated_Source\PSoC5/SPI_led.c **** *
 848:Generated_Source\PSoC5/SPI_led.c **** * Theory:
 849:Generated_Source\PSoC5/SPI_led.c **** *  Setting the pointers to zero makes the system believe there is no data to
 850:Generated_Source\PSoC5/SPI_led.c **** *  read and writing will resume at address 0 overwriting any data that may have
 851:Generated_Source\PSoC5/SPI_led.c **** *  remained in the RAM.
 852:Generated_Source\PSoC5/SPI_led.c **** *
 853:Generated_Source\PSoC5/SPI_led.c **** * Side Effects:
 854:Generated_Source\PSoC5/SPI_led.c **** *  Any data not yet transmitted from the RAM buffer will be lost when
 855:Generated_Source\PSoC5/SPI_led.c **** *  overwritten.
 856:Generated_Source\PSoC5/SPI_led.c **** *
 857:Generated_Source\PSoC5/SPI_led.c **** * Reentrant:
 858:Generated_Source\PSoC5/SPI_led.c **** *  No.
 859:Generated_Source\PSoC5/SPI_led.c **** *
 860:Generated_Source\PSoC5/SPI_led.c **** *******************************************************************************/
 861:Generated_Source\PSoC5/SPI_led.c **** void SPI_led_ClearTxBuffer(void) 
 862:Generated_Source\PSoC5/SPI_led.c **** {
 863:Generated_Source\PSoC5/SPI_led.c ****     uint8 enableInterrupts;
 864:Generated_Source\PSoC5/SPI_led.c **** 
 865:Generated_Source\PSoC5/SPI_led.c ****     enableInterrupts = CyEnterCriticalSection();
 866:Generated_Source\PSoC5/SPI_led.c ****     /* Clear TX FIFO */
 867:Generated_Source\PSoC5/SPI_led.c ****     SPI_led_AUX_CONTROL_DP0_REG |= ((uint8)  SPI_led_TX_FIFO_CLR);
 868:Generated_Source\PSoC5/SPI_led.c ****     SPI_led_AUX_CONTROL_DP0_REG &= ((uint8) ~SPI_led_TX_FIFO_CLR);
 869:Generated_Source\PSoC5/SPI_led.c **** 
 870:Generated_Source\PSoC5/SPI_led.c ****     #if(SPI_led_USE_SECOND_DATAPATH)
 871:Generated_Source\PSoC5/SPI_led.c ****         /* Clear TX FIFO for 2nd Datapath */
 872:Generated_Source\PSoC5/SPI_led.c ****         SPI_led_AUX_CONTROL_DP1_REG |= ((uint8)  SPI_led_TX_FIFO_CLR);
ARM GAS  C:\Users\larco\AppData\Local\Temp\cccTufIC.s 			page 17


 873:Generated_Source\PSoC5/SPI_led.c ****         SPI_led_AUX_CONTROL_DP1_REG &= ((uint8) ~SPI_led_TX_FIFO_CLR);
 874:Generated_Source\PSoC5/SPI_led.c ****     #endif /* (SPI_led_USE_SECOND_DATAPATH) */
 875:Generated_Source\PSoC5/SPI_led.c ****     CyExitCriticalSection(enableInterrupts);
 876:Generated_Source\PSoC5/SPI_led.c **** 
 877:Generated_Source\PSoC5/SPI_led.c ****     #if(SPI_led_TX_SOFTWARE_BUF_ENABLED)
 878:Generated_Source\PSoC5/SPI_led.c ****         /* Disable TX interrupt to protect global veriables */
 879:Generated_Source\PSoC5/SPI_led.c ****         SPI_led_DisableTxInt();
 880:Generated_Source\PSoC5/SPI_led.c **** 
 881:Generated_Source\PSoC5/SPI_led.c ****         SPI_led_txBufferFull  = 0u;
 882:Generated_Source\PSoC5/SPI_led.c ****         SPI_led_txBufferRead  = 0u;
 883:Generated_Source\PSoC5/SPI_led.c ****         SPI_led_txBufferWrite = 0u;
 884:Generated_Source\PSoC5/SPI_led.c **** 
 885:Generated_Source\PSoC5/SPI_led.c ****         /* Buffer is EMPTY: disable TX FIFO NOT FULL interrupt */
 886:Generated_Source\PSoC5/SPI_led.c ****         SPI_led_TX_STATUS_MASK_REG &= ((uint8) ~SPI_led_STS_TX_FIFO_NOT_FULL);
 887:Generated_Source\PSoC5/SPI_led.c **** 
 888:Generated_Source\PSoC5/SPI_led.c ****         SPI_led_EnableTxInt();
 889:Generated_Source\PSoC5/SPI_led.c ****     #endif /* (SPI_led_TX_SOFTWARE_BUF_ENABLED) */
 890:Generated_Source\PSoC5/SPI_led.c **** }
 891:Generated_Source\PSoC5/SPI_led.c **** 
 892:Generated_Source\PSoC5/SPI_led.c **** 
 893:Generated_Source\PSoC5/SPI_led.c **** #if(0u != SPI_led_BIDIRECTIONAL_MODE)
 894:Generated_Source\PSoC5/SPI_led.c ****     /*******************************************************************************
 895:Generated_Source\PSoC5/SPI_led.c ****     * Function Name: SPI_led_TxEnable
 896:Generated_Source\PSoC5/SPI_led.c ****     ********************************************************************************
 897:Generated_Source\PSoC5/SPI_led.c ****     *
 898:Generated_Source\PSoC5/SPI_led.c ****     * Summary:
 899:Generated_Source\PSoC5/SPI_led.c ****     *  If the SPI master is configured to use a single bi-directional pin then this
 900:Generated_Source\PSoC5/SPI_led.c ****     *  will set the bi-directional pin to transmit.
 901:Generated_Source\PSoC5/SPI_led.c ****     *
 902:Generated_Source\PSoC5/SPI_led.c ****     * Parameters:
 903:Generated_Source\PSoC5/SPI_led.c ****     *  None.
 904:Generated_Source\PSoC5/SPI_led.c ****     *
 905:Generated_Source\PSoC5/SPI_led.c ****     * Return:
 906:Generated_Source\PSoC5/SPI_led.c ****     *  None.
 907:Generated_Source\PSoC5/SPI_led.c ****     *
 908:Generated_Source\PSoC5/SPI_led.c ****     *******************************************************************************/
 909:Generated_Source\PSoC5/SPI_led.c ****     void SPI_led_TxEnable(void) 
 910:Generated_Source\PSoC5/SPI_led.c ****     {
 911:Generated_Source\PSoC5/SPI_led.c ****         SPI_led_CONTROL_REG |= SPI_led_CTRL_TX_SIGNAL_EN;
 912:Generated_Source\PSoC5/SPI_led.c ****     }
 913:Generated_Source\PSoC5/SPI_led.c **** 
 914:Generated_Source\PSoC5/SPI_led.c **** 
 915:Generated_Source\PSoC5/SPI_led.c ****     /*******************************************************************************
 916:Generated_Source\PSoC5/SPI_led.c ****     * Function Name: SPI_led_TxDisable
 917:Generated_Source\PSoC5/SPI_led.c ****     ********************************************************************************
 918:Generated_Source\PSoC5/SPI_led.c ****     *
 919:Generated_Source\PSoC5/SPI_led.c ****     * Summary:
 920:Generated_Source\PSoC5/SPI_led.c ****     *  If the SPI master is configured to use a single bi-directional pin then this
 921:Generated_Source\PSoC5/SPI_led.c ****     *  will set the bi-directional pin to receive.
 922:Generated_Source\PSoC5/SPI_led.c ****     *
 923:Generated_Source\PSoC5/SPI_led.c ****     * Parameters:
 924:Generated_Source\PSoC5/SPI_led.c ****     *  None.
 925:Generated_Source\PSoC5/SPI_led.c ****     *
 926:Generated_Source\PSoC5/SPI_led.c ****     * Return:
 927:Generated_Source\PSoC5/SPI_led.c ****     *  None.
 928:Generated_Source\PSoC5/SPI_led.c ****     *
 929:Generated_Source\PSoC5/SPI_led.c ****     *******************************************************************************/
ARM GAS  C:\Users\larco\AppData\Local\Temp\cccTufIC.s 			page 18


 930:Generated_Source\PSoC5/SPI_led.c ****     void SPI_led_TxDisable(void) 
 931:Generated_Source\PSoC5/SPI_led.c ****     {
 932:Generated_Source\PSoC5/SPI_led.c ****         SPI_led_CONTROL_REG &= ((uint8) ~SPI_led_CTRL_TX_SIGNAL_EN);
 933:Generated_Source\PSoC5/SPI_led.c ****     }
 934:Generated_Source\PSoC5/SPI_led.c **** 
 935:Generated_Source\PSoC5/SPI_led.c **** #endif /* (0u != SPI_led_BIDIRECTIONAL_MODE) */
 936:Generated_Source\PSoC5/SPI_led.c **** 
 937:Generated_Source\PSoC5/SPI_led.c **** 
 938:Generated_Source\PSoC5/SPI_led.c **** /*******************************************************************************
 939:Generated_Source\PSoC5/SPI_led.c **** * Function Name: SPI_led_PutArray
 940:Generated_Source\PSoC5/SPI_led.c **** ********************************************************************************
 941:Generated_Source\PSoC5/SPI_led.c **** *
 942:Generated_Source\PSoC5/SPI_led.c **** * Summary:
 943:Generated_Source\PSoC5/SPI_led.c **** *  Write available data from ROM/RAM to the TX buffer while space is available
 944:Generated_Source\PSoC5/SPI_led.c **** *  in the TX buffer. Keep trying until all data is passed to the TX buffer.
 945:Generated_Source\PSoC5/SPI_led.c **** *
 946:Generated_Source\PSoC5/SPI_led.c **** * Parameters:
 947:Generated_Source\PSoC5/SPI_led.c **** *  *buffer: Pointer to the location in RAM containing the data to send
 948:Generated_Source\PSoC5/SPI_led.c **** *  byteCount: The number of bytes to move to the transmit buffer.
 949:Generated_Source\PSoC5/SPI_led.c **** *
 950:Generated_Source\PSoC5/SPI_led.c **** * Return:
 951:Generated_Source\PSoC5/SPI_led.c **** *  None.
 952:Generated_Source\PSoC5/SPI_led.c **** *
 953:Generated_Source\PSoC5/SPI_led.c **** * Side Effects:
 954:Generated_Source\PSoC5/SPI_led.c **** *  Will stay in this routine until all data has been sent.  May get locked in
 955:Generated_Source\PSoC5/SPI_led.c **** *  this loop if data is not being initiated by the master if there is not
 956:Generated_Source\PSoC5/SPI_led.c **** *  enough room in the TX FIFO.
 957:Generated_Source\PSoC5/SPI_led.c **** *
 958:Generated_Source\PSoC5/SPI_led.c **** * Reentrant:
 959:Generated_Source\PSoC5/SPI_led.c **** *  No.
 960:Generated_Source\PSoC5/SPI_led.c **** *
 961:Generated_Source\PSoC5/SPI_led.c **** *******************************************************************************/
 962:Generated_Source\PSoC5/SPI_led.c **** void SPI_led_PutArray(const uint8 buffer[], uint8 byteCount)
 963:Generated_Source\PSoC5/SPI_led.c ****                                                                           
 964:Generated_Source\PSoC5/SPI_led.c **** {
 965:Generated_Source\PSoC5/SPI_led.c ****     uint8 bufIndex;
 966:Generated_Source\PSoC5/SPI_led.c **** 
 967:Generated_Source\PSoC5/SPI_led.c ****     bufIndex = 0u;
 968:Generated_Source\PSoC5/SPI_led.c **** 
 969:Generated_Source\PSoC5/SPI_led.c ****     while(byteCount > 0u)
 970:Generated_Source\PSoC5/SPI_led.c ****     {
 971:Generated_Source\PSoC5/SPI_led.c ****         SPI_led_WriteTxData(buffer[bufIndex]);
 972:Generated_Source\PSoC5/SPI_led.c ****         bufIndex++;
 973:Generated_Source\PSoC5/SPI_led.c ****         byteCount--;
 974:Generated_Source\PSoC5/SPI_led.c ****     }
 975:Generated_Source\PSoC5/SPI_led.c **** }
 976:Generated_Source\PSoC5/SPI_led.c **** 
 977:Generated_Source\PSoC5/SPI_led.c **** 
 978:Generated_Source\PSoC5/SPI_led.c **** /*******************************************************************************
 979:Generated_Source\PSoC5/SPI_led.c **** * Function Name: SPI_led_ClearFIFO
 980:Generated_Source\PSoC5/SPI_led.c **** ********************************************************************************
 981:Generated_Source\PSoC5/SPI_led.c **** *
 982:Generated_Source\PSoC5/SPI_led.c **** * Summary:
 983:Generated_Source\PSoC5/SPI_led.c **** *  Clear the RX and TX FIFO's of all data for a fresh start.
 984:Generated_Source\PSoC5/SPI_led.c **** *
 985:Generated_Source\PSoC5/SPI_led.c **** * Parameters:
 986:Generated_Source\PSoC5/SPI_led.c **** *  None.
ARM GAS  C:\Users\larco\AppData\Local\Temp\cccTufIC.s 			page 19


 987:Generated_Source\PSoC5/SPI_led.c **** *
 988:Generated_Source\PSoC5/SPI_led.c **** * Return:
 989:Generated_Source\PSoC5/SPI_led.c **** *  None.
 990:Generated_Source\PSoC5/SPI_led.c **** *
 991:Generated_Source\PSoC5/SPI_led.c **** * Side Effects:
 992:Generated_Source\PSoC5/SPI_led.c **** *  Clear status register of the component.
 993:Generated_Source\PSoC5/SPI_led.c **** *
 994:Generated_Source\PSoC5/SPI_led.c **** *******************************************************************************/
 995:Generated_Source\PSoC5/SPI_led.c **** void SPI_led_ClearFIFO(void) 
 996:Generated_Source\PSoC5/SPI_led.c **** {
 997:Generated_Source\PSoC5/SPI_led.c ****     uint8 enableInterrupts;
 998:Generated_Source\PSoC5/SPI_led.c **** 
 999:Generated_Source\PSoC5/SPI_led.c ****     /* Clear Hardware RX FIFO */
1000:Generated_Source\PSoC5/SPI_led.c ****     while(0u !=(SPI_led_RX_STATUS_REG & SPI_led_STS_RX_FIFO_NOT_EMPTY))
  41              		.loc 1 1000 0
  42 0006 114A     		ldr	r2, .L11+4
  43              	.LBE37:
  44              	.LBE36:
  66:Generated_Source\PSoC5/SPI_led.c **** 
  45              		.loc 1 66 0
  46 0008 1970     		strb	r1, [r3]
  47              	.LBB40:
  48              	.LBB38:
  49              		.loc 1 1000 0
  50 000a 1378     		ldrb	r3, [r2]	@ zero_extendqisi2
  51 000c 9906     		lsls	r1, r3, #26
  52 000e 04D5     		bpl	.L2
1001:Generated_Source\PSoC5/SPI_led.c ****     {
1002:Generated_Source\PSoC5/SPI_led.c ****         (void) CY_GET_REG8(SPI_led_RXDATA_PTR);
  53              		.loc 1 1002 0
  54 0010 0F49     		ldr	r1, .L11+8
  55              	.L6:
  56 0012 0B78     		ldrb	r3, [r1]	@ zero_extendqisi2
1000:Generated_Source\PSoC5/SPI_led.c ****     {
  57              		.loc 1 1000 0
  58 0014 1378     		ldrb	r3, [r2]	@ zero_extendqisi2
  59 0016 9B06     		lsls	r3, r3, #26
  60 0018 FBD4     		bmi	.L6
  61              	.L2:
1003:Generated_Source\PSoC5/SPI_led.c ****     }
1004:Generated_Source\PSoC5/SPI_led.c **** 
1005:Generated_Source\PSoC5/SPI_led.c ****     enableInterrupts = CyEnterCriticalSection();
  62              		.loc 1 1005 0
  63 001a FFF7FEFF 		bl	CyEnterCriticalSection
  64              	.LVL0:
1006:Generated_Source\PSoC5/SPI_led.c ****     /* Clear TX FIFO */
1007:Generated_Source\PSoC5/SPI_led.c ****     SPI_led_AUX_CONTROL_DP0_REG |= ((uint8)  SPI_led_TX_FIFO_CLR);
  65              		.loc 1 1007 0
  66 001e 0D4B     		ldr	r3, .L11+12
  67              	.LBE38:
  68              	.LBE40:
  69              	.LBB41:
  70              	.LBB42:
 401:Generated_Source\PSoC5/SPI_led.c **** 
  71              		.loc 1 401 0
  72 0020 0D4C     		ldr	r4, .L11+16
  73              	.LBE42:
ARM GAS  C:\Users\larco\AppData\Local\Temp\cccTufIC.s 			page 20


  74              	.LBE41:
  75              	.LBB44:
  76              	.LBB39:
  77              		.loc 1 1007 0
  78 0022 1A78     		ldrb	r2, [r3]	@ zero_extendqisi2
  79 0024 42F00102 		orr	r2, r2, #1
  80 0028 1A70     		strb	r2, [r3]
1008:Generated_Source\PSoC5/SPI_led.c ****     SPI_led_AUX_CONTROL_DP0_REG &= ((uint8) ~SPI_led_TX_FIFO_CLR);
  81              		.loc 1 1008 0
  82 002a 1A78     		ldrb	r2, [r3]	@ zero_extendqisi2
  83 002c 02F0FE02 		and	r2, r2, #254
  84 0030 1A70     		strb	r2, [r3]
1009:Generated_Source\PSoC5/SPI_led.c **** 
1010:Generated_Source\PSoC5/SPI_led.c ****     #if(SPI_led_USE_SECOND_DATAPATH)
1011:Generated_Source\PSoC5/SPI_led.c ****         /* Clear TX FIFO for 2nd Datapath */
1012:Generated_Source\PSoC5/SPI_led.c ****         SPI_led_AUX_CONTROL_DP1_REG |= ((uint8)  SPI_led_TX_FIFO_CLR);
1013:Generated_Source\PSoC5/SPI_led.c ****         SPI_led_AUX_CONTROL_DP1_REG &= ((uint8) ~SPI_led_TX_FIFO_CLR);
1014:Generated_Source\PSoC5/SPI_led.c ****     #endif /* (SPI_led_USE_SECOND_DATAPATH) */
1015:Generated_Source\PSoC5/SPI_led.c ****     CyExitCriticalSection(enableInterrupts);
  85              		.loc 1 1015 0
  86 0032 FFF7FEFF 		bl	CyExitCriticalSection
  87              	.LVL1:
  88              	.LBE39:
  89              	.LBE44:
  90              	.LBB45:
  91              	.LBB46:
 452:Generated_Source\PSoC5/SPI_led.c **** 
  92              		.loc 1 452 0
  93 0036 0548     		ldr	r0, .L11+4
  94              	.LBE46:
  95              	.LBE45:
 101:Generated_Source\PSoC5/SPI_led.c ****     SPI_led_RX_STATUS_MASK_REG = SPI_led_RX_INIT_INTERRUPTS_MASK;
  96              		.loc 1 101 0
  97 0038 0849     		ldr	r1, .L11+20
 102:Generated_Source\PSoC5/SPI_led.c **** }
  98              		.loc 1 102 0
  99 003a 094A     		ldr	r2, .L11+24
 101:Generated_Source\PSoC5/SPI_led.c ****     SPI_led_RX_STATUS_MASK_REG = SPI_led_RX_INIT_INTERRUPTS_MASK;
 100              		.loc 1 101 0
 101 003c 0023     		movs	r3, #0
 102              	.LBB48:
 103              	.LBB43:
 401:Generated_Source\PSoC5/SPI_led.c **** 
 104              		.loc 1 401 0
 105 003e 2478     		ldrb	r4, [r4]	@ zero_extendqisi2
 106              	.LBE43:
 107              	.LBE48:
 108              	.LBB49:
 109              	.LBB47:
 452:Generated_Source\PSoC5/SPI_led.c **** 
 110              		.loc 1 452 0
 111 0040 0078     		ldrb	r0, [r0]	@ zero_extendqisi2
 112              	.LBE47:
 113              	.LBE49:
 101:Generated_Source\PSoC5/SPI_led.c ****     SPI_led_RX_STATUS_MASK_REG = SPI_led_RX_INIT_INTERRUPTS_MASK;
 114              		.loc 1 101 0
 115 0042 0B70     		strb	r3, [r1]
ARM GAS  C:\Users\larco\AppData\Local\Temp\cccTufIC.s 			page 21


 102:Generated_Source\PSoC5/SPI_led.c **** }
 116              		.loc 1 102 0
 117 0044 1370     		strb	r3, [r2]
 118 0046 10BD     		pop	{r4, pc}
 119              	.L12:
 120              		.align	2
 121              	.L11:
 122 0048 85640040 		.word	1073767557
 123 004c 64640040 		.word	1073767524
 124 0050 55640040 		.word	1073767509
 125 0054 95640040 		.word	1073767573
 126 0058 66640040 		.word	1073767526
 127 005c 86640040 		.word	1073767558
 128 0060 84640040 		.word	1073767556
 129              		.cfi_endproc
 130              	.LFE0:
 131              		.size	SPI_led_Init, .-SPI_led_Init
 132              		.section	.text.SPI_led_Enable,"ax",%progbits
 133              		.align	2
 134              		.global	SPI_led_Enable
 135              		.thumb
 136              		.thumb_func
 137              		.type	SPI_led_Enable, %function
 138              	SPI_led_Enable:
 139              	.LFB1:
 121:Generated_Source\PSoC5/SPI_led.c ****     uint8 enableInterrupts;
 140              		.loc 1 121 0
 141              		.cfi_startproc
 142              		@ args = 0, pretend = 0, frame = 0
 143              		@ frame_needed = 0, uses_anonymous_args = 0
 144 0000 10B5     		push	{r4, lr}
 145              		.cfi_def_cfa_offset 8
 146              		.cfi_offset 4, -8
 147              		.cfi_offset 14, -4
 125:Generated_Source\PSoC5/SPI_led.c ****     SPI_led_TX_STATUS_ACTL_REG  |= SPI_led_INT_ENABLE;
 148              		.loc 1 125 0
 149 0002 0A4C     		ldr	r4, .L15
 124:Generated_Source\PSoC5/SPI_led.c ****     SPI_led_COUNTER_CONTROL_REG |= SPI_led_CNTR_ENABLE;
 150              		.loc 1 124 0
 151 0004 FFF7FEFF 		bl	CyEnterCriticalSection
 152              	.LVL2:
 125:Generated_Source\PSoC5/SPI_led.c ****     SPI_led_TX_STATUS_ACTL_REG  |= SPI_led_INT_ENABLE;
 153              		.loc 1 125 0
 154 0008 2378     		ldrb	r3, [r4]	@ zero_extendqisi2
 126:Generated_Source\PSoC5/SPI_led.c ****     SPI_led_RX_STATUS_ACTL_REG  |= SPI_led_INT_ENABLE;
 155              		.loc 1 126 0
 156 000a 0949     		ldr	r1, .L15+4
 125:Generated_Source\PSoC5/SPI_led.c ****     SPI_led_TX_STATUS_ACTL_REG  |= SPI_led_INT_ENABLE;
 157              		.loc 1 125 0
 158 000c 43F02003 		orr	r3, r3, #32
 159 0010 2370     		strb	r3, [r4]
 126:Generated_Source\PSoC5/SPI_led.c ****     SPI_led_RX_STATUS_ACTL_REG  |= SPI_led_INT_ENABLE;
 160              		.loc 1 126 0
 161 0012 0B78     		ldrb	r3, [r1]	@ zero_extendqisi2
 127:Generated_Source\PSoC5/SPI_led.c ****     CyExitCriticalSection(enableInterrupts);
 162              		.loc 1 127 0
 163 0014 074A     		ldr	r2, .L15+8
ARM GAS  C:\Users\larco\AppData\Local\Temp\cccTufIC.s 			page 22


 126:Generated_Source\PSoC5/SPI_led.c ****     SPI_led_RX_STATUS_ACTL_REG  |= SPI_led_INT_ENABLE;
 164              		.loc 1 126 0
 165 0016 43F01003 		orr	r3, r3, #16
 166 001a 0B70     		strb	r3, [r1]
 127:Generated_Source\PSoC5/SPI_led.c ****     CyExitCriticalSection(enableInterrupts);
 167              		.loc 1 127 0
 168 001c 1378     		ldrb	r3, [r2]	@ zero_extendqisi2
 169 001e 43F01003 		orr	r3, r3, #16
 170 0022 1370     		strb	r3, [r2]
 136:Generated_Source\PSoC5/SPI_led.c **** 
 171              		.loc 1 136 0
 172 0024 BDE81040 		pop	{r4, lr}
 173              		.cfi_restore 14
 174              		.cfi_restore 4
 175              		.cfi_def_cfa_offset 0
 128:Generated_Source\PSoC5/SPI_led.c **** 
 176              		.loc 1 128 0
 177 0028 FFF7FEBF 		b	CyExitCriticalSection
 178              	.LVL3:
 179              	.L16:
 180              		.align	2
 181              	.L15:
 182 002c 95640040 		.word	1073767573
 183 0030 96640040 		.word	1073767574
 184 0034 94640040 		.word	1073767572
 185              		.cfi_endproc
 186              	.LFE1:
 187              		.size	SPI_led_Enable, .-SPI_led_Enable
 188              		.section	.text.SPI_led_Start,"ax",%progbits
 189              		.align	2
 190              		.global	SPI_led_Start
 191              		.thumb
 192              		.thumb_func
 193              		.type	SPI_led_Start, %function
 194              	SPI_led_Start:
 195              	.LFB2:
 164:Generated_Source\PSoC5/SPI_led.c ****     if(0u == SPI_led_initVar)
 196              		.loc 1 164 0
 197              		.cfi_startproc
 198              		@ args = 0, pretend = 0, frame = 0
 199              		@ frame_needed = 0, uses_anonymous_args = 0
 200 0000 70B5     		push	{r4, r5, r6, lr}
 201              		.cfi_def_cfa_offset 16
 202              		.cfi_offset 4, -16
 203              		.cfi_offset 5, -12
 204              		.cfi_offset 6, -8
 205              		.cfi_offset 14, -4
 165:Generated_Source\PSoC5/SPI_led.c ****     {
 206              		.loc 1 165 0
 207 0002 1E4C     		ldr	r4, .L28
 208 0004 2378     		ldrb	r3, [r4]	@ zero_extendqisi2
 209 0006 A3B1     		cbz	r3, .L27
 210              	.L18:
 211              	.LBB60:
 212              	.LBB61:
 125:Generated_Source\PSoC5/SPI_led.c ****     SPI_led_TX_STATUS_ACTL_REG  |= SPI_led_INT_ENABLE;
 213              		.loc 1 125 0
ARM GAS  C:\Users\larco\AppData\Local\Temp\cccTufIC.s 			page 23


 214 0008 1D4C     		ldr	r4, .L28+4
 124:Generated_Source\PSoC5/SPI_led.c ****     SPI_led_COUNTER_CONTROL_REG |= SPI_led_CNTR_ENABLE;
 215              		.loc 1 124 0
 216 000a FFF7FEFF 		bl	CyEnterCriticalSection
 217              	.LVL4:
 125:Generated_Source\PSoC5/SPI_led.c ****     SPI_led_TX_STATUS_ACTL_REG  |= SPI_led_INT_ENABLE;
 218              		.loc 1 125 0
 219 000e 2378     		ldrb	r3, [r4]	@ zero_extendqisi2
 126:Generated_Source\PSoC5/SPI_led.c ****     SPI_led_RX_STATUS_ACTL_REG  |= SPI_led_INT_ENABLE;
 220              		.loc 1 126 0
 221 0010 1C49     		ldr	r1, .L28+8
 125:Generated_Source\PSoC5/SPI_led.c ****     SPI_led_TX_STATUS_ACTL_REG  |= SPI_led_INT_ENABLE;
 222              		.loc 1 125 0
 223 0012 43F02003 		orr	r3, r3, #32
 224 0016 2370     		strb	r3, [r4]
 126:Generated_Source\PSoC5/SPI_led.c ****     SPI_led_RX_STATUS_ACTL_REG  |= SPI_led_INT_ENABLE;
 225              		.loc 1 126 0
 226 0018 0B78     		ldrb	r3, [r1]	@ zero_extendqisi2
 127:Generated_Source\PSoC5/SPI_led.c ****     CyExitCriticalSection(enableInterrupts);
 227              		.loc 1 127 0
 228 001a 1B4A     		ldr	r2, .L28+12
 126:Generated_Source\PSoC5/SPI_led.c ****     SPI_led_RX_STATUS_ACTL_REG  |= SPI_led_INT_ENABLE;
 229              		.loc 1 126 0
 230 001c 43F01003 		orr	r3, r3, #16
 231 0020 0B70     		strb	r3, [r1]
 127:Generated_Source\PSoC5/SPI_led.c ****     CyExitCriticalSection(enableInterrupts);
 232              		.loc 1 127 0
 233 0022 1378     		ldrb	r3, [r2]	@ zero_extendqisi2
 234 0024 43F01003 		orr	r3, r3, #16
 235 0028 1370     		strb	r3, [r2]
 236              	.LBE61:
 237              	.LBE60:
 172:Generated_Source\PSoC5/SPI_led.c **** 
 238              		.loc 1 172 0
 239 002a BDE87040 		pop	{r4, r5, r6, lr}
 240              		.cfi_remember_state
 241              		.cfi_restore 14
 242              		.cfi_restore 6
 243              		.cfi_restore 5
 244              		.cfi_restore 4
 245              		.cfi_def_cfa_offset 0
 246              	.LBB63:
 247              	.LBB62:
 128:Generated_Source\PSoC5/SPI_led.c **** 
 248              		.loc 1 128 0
 249 002e FFF7FEBF 		b	CyExitCriticalSection
 250              	.LVL5:
 251              	.L27:
 252              		.cfi_restore_state
 253              	.LBE62:
 254              	.LBE63:
 255              	.LBB64:
 256              	.LBB65:
  66:Generated_Source\PSoC5/SPI_led.c **** 
 257              		.loc 1 66 0
 258 0032 164B     		ldr	r3, .L28+16
 259 0034 0F21     		movs	r1, #15
ARM GAS  C:\Users\larco\AppData\Local\Temp\cccTufIC.s 			page 24


 260              	.LBB66:
 261              	.LBB67:
1000:Generated_Source\PSoC5/SPI_led.c ****     {
 262              		.loc 1 1000 0
 263 0036 164A     		ldr	r2, .L28+20
 264              	.LBE67:
 265              	.LBE66:
  66:Generated_Source\PSoC5/SPI_led.c **** 
 266              		.loc 1 66 0
 267 0038 1970     		strb	r1, [r3]
 268              	.LBB71:
 269              	.LBB68:
1000:Generated_Source\PSoC5/SPI_led.c ****     {
 270              		.loc 1 1000 0
 271 003a 1378     		ldrb	r3, [r2]	@ zero_extendqisi2
 272 003c 9906     		lsls	r1, r3, #26
 273 003e 04D5     		bpl	.L19
1002:Generated_Source\PSoC5/SPI_led.c ****     }
 274              		.loc 1 1002 0
 275 0040 1449     		ldr	r1, .L28+24
 276              	.L23:
 277 0042 0B78     		ldrb	r3, [r1]	@ zero_extendqisi2
1000:Generated_Source\PSoC5/SPI_led.c ****     {
 278              		.loc 1 1000 0
 279 0044 1378     		ldrb	r3, [r2]	@ zero_extendqisi2
 280 0046 9B06     		lsls	r3, r3, #26
 281 0048 FBD4     		bmi	.L23
 282              	.L19:
1005:Generated_Source\PSoC5/SPI_led.c ****     /* Clear TX FIFO */
 283              		.loc 1 1005 0
 284 004a FFF7FEFF 		bl	CyEnterCriticalSection
 285              	.LVL6:
1007:Generated_Source\PSoC5/SPI_led.c ****     SPI_led_AUX_CONTROL_DP0_REG &= ((uint8) ~SPI_led_TX_FIFO_CLR);
 286              		.loc 1 1007 0
 287 004e 0C4B     		ldr	r3, .L28+4
 288              	.LBE68:
 289              	.LBE71:
 290              	.LBB72:
 291              	.LBB73:
 401:Generated_Source\PSoC5/SPI_led.c **** 
 292              		.loc 1 401 0
 293 0050 114E     		ldr	r6, .L28+28
 294              	.LBE73:
 295              	.LBE72:
 296              	.LBB75:
 297              	.LBB69:
1007:Generated_Source\PSoC5/SPI_led.c ****     SPI_led_AUX_CONTROL_DP0_REG &= ((uint8) ~SPI_led_TX_FIFO_CLR);
 298              		.loc 1 1007 0
 299 0052 1A78     		ldrb	r2, [r3]	@ zero_extendqisi2
 300              	.LBE69:
 301              	.LBE75:
 302              	.LBB76:
 303              	.LBB77:
 452:Generated_Source\PSoC5/SPI_led.c **** 
 304              		.loc 1 452 0
 305 0054 0E4D     		ldr	r5, .L28+20
 306              	.LBE77:
ARM GAS  C:\Users\larco\AppData\Local\Temp\cccTufIC.s 			page 25


 307              	.LBE76:
 308              	.LBB79:
 309              	.LBB70:
1007:Generated_Source\PSoC5/SPI_led.c ****     SPI_led_AUX_CONTROL_DP0_REG &= ((uint8) ~SPI_led_TX_FIFO_CLR);
 310              		.loc 1 1007 0
 311 0056 42F00102 		orr	r2, r2, #1
 312 005a 1A70     		strb	r2, [r3]
1008:Generated_Source\PSoC5/SPI_led.c **** 
 313              		.loc 1 1008 0
 314 005c 1A78     		ldrb	r2, [r3]	@ zero_extendqisi2
 315 005e 02F0FE02 		and	r2, r2, #254
 316 0062 1A70     		strb	r2, [r3]
 317              		.loc 1 1015 0
 318 0064 FFF7FEFF 		bl	CyExitCriticalSection
 319              	.LVL7:
 320              	.LBE70:
 321              	.LBE79:
 101:Generated_Source\PSoC5/SPI_led.c ****     SPI_led_RX_STATUS_MASK_REG = SPI_led_RX_INIT_INTERRUPTS_MASK;
 322              		.loc 1 101 0
 323 0068 0C48     		ldr	r0, .L28+32
 102:Generated_Source\PSoC5/SPI_led.c **** }
 324              		.loc 1 102 0
 325 006a 0D49     		ldr	r1, .L28+36
 101:Generated_Source\PSoC5/SPI_led.c ****     SPI_led_RX_STATUS_MASK_REG = SPI_led_RX_INIT_INTERRUPTS_MASK;
 326              		.loc 1 101 0
 327 006c 0023     		movs	r3, #0
 328              	.LBE65:
 329              	.LBE64:
 168:Generated_Source\PSoC5/SPI_led.c ****     }
 330              		.loc 1 168 0
 331 006e 0122     		movs	r2, #1
 332              	.LBB83:
 333              	.LBB82:
 334              	.LBB80:
 335              	.LBB74:
 401:Generated_Source\PSoC5/SPI_led.c **** 
 336              		.loc 1 401 0
 337 0070 3678     		ldrb	r6, [r6]	@ zero_extendqisi2
 338              	.LBE74:
 339              	.LBE80:
 340              	.LBB81:
 341              	.LBB78:
 452:Generated_Source\PSoC5/SPI_led.c **** 
 342              		.loc 1 452 0
 343 0072 2D78     		ldrb	r5, [r5]	@ zero_extendqisi2
 344              	.LBE78:
 345              	.LBE81:
 101:Generated_Source\PSoC5/SPI_led.c ****     SPI_led_RX_STATUS_MASK_REG = SPI_led_RX_INIT_INTERRUPTS_MASK;
 346              		.loc 1 101 0
 347 0074 0370     		strb	r3, [r0]
 102:Generated_Source\PSoC5/SPI_led.c **** }
 348              		.loc 1 102 0
 349 0076 0B70     		strb	r3, [r1]
 350              	.LBE82:
 351              	.LBE83:
 168:Generated_Source\PSoC5/SPI_led.c ****     }
 352              		.loc 1 168 0
ARM GAS  C:\Users\larco\AppData\Local\Temp\cccTufIC.s 			page 26


 353 0078 2270     		strb	r2, [r4]
 354 007a C5E7     		b	.L18
 355              	.L29:
 356              		.align	2
 357              	.L28:
 358 007c 00000000 		.word	.LANCHOR0
 359 0080 95640040 		.word	1073767573
 360 0084 96640040 		.word	1073767574
 361 0088 94640040 		.word	1073767572
 362 008c 85640040 		.word	1073767557
 363 0090 64640040 		.word	1073767524
 364 0094 55640040 		.word	1073767509
 365 0098 66640040 		.word	1073767526
 366 009c 86640040 		.word	1073767558
 367 00a0 84640040 		.word	1073767556
 368              		.cfi_endproc
 369              	.LFE2:
 370              		.size	SPI_led_Start, .-SPI_led_Start
 371              		.section	.text.SPI_led_Stop,"ax",%progbits
 372              		.align	2
 373              		.global	SPI_led_Stop
 374              		.thumb
 375              		.thumb_func
 376              		.type	SPI_led_Stop, %function
 377              	SPI_led_Stop:
 378              	.LFB3:
 193:Generated_Source\PSoC5/SPI_led.c ****     uint8 enableInterrupts;
 379              		.loc 1 193 0
 380              		.cfi_startproc
 381              		@ args = 0, pretend = 0, frame = 0
 382              		@ frame_needed = 0, uses_anonymous_args = 0
 383 0000 08B5     		push	{r3, lr}
 384              		.cfi_def_cfa_offset 8
 385              		.cfi_offset 3, -8
 386              		.cfi_offset 14, -4
 196:Generated_Source\PSoC5/SPI_led.c ****     SPI_led_TX_STATUS_ACTL_REG &= ((uint8) ~SPI_led_INT_ENABLE);
 387              		.loc 1 196 0
 388 0002 FFF7FEFF 		bl	CyEnterCriticalSection
 389              	.LVL8:
 197:Generated_Source\PSoC5/SPI_led.c ****     SPI_led_RX_STATUS_ACTL_REG &= ((uint8) ~SPI_led_INT_ENABLE);
 390              		.loc 1 197 0
 391 0006 0749     		ldr	r1, .L32
 198:Generated_Source\PSoC5/SPI_led.c ****     CyExitCriticalSection(enableInterrupts);
 392              		.loc 1 198 0
 393 0008 074A     		ldr	r2, .L32+4
 197:Generated_Source\PSoC5/SPI_led.c ****     SPI_led_RX_STATUS_ACTL_REG &= ((uint8) ~SPI_led_INT_ENABLE);
 394              		.loc 1 197 0
 395 000a 0B78     		ldrb	r3, [r1]	@ zero_extendqisi2
 396 000c 03F0EF03 		and	r3, r3, #239
 397 0010 0B70     		strb	r3, [r1]
 198:Generated_Source\PSoC5/SPI_led.c ****     CyExitCriticalSection(enableInterrupts);
 398              		.loc 1 198 0
 399 0012 1378     		ldrb	r3, [r2]	@ zero_extendqisi2
 400 0014 03F0EF03 		and	r3, r3, #239
 401 0018 1370     		strb	r3, [r2]
 207:Generated_Source\PSoC5/SPI_led.c **** 
 402              		.loc 1 207 0
ARM GAS  C:\Users\larco\AppData\Local\Temp\cccTufIC.s 			page 27


 403 001a BDE80840 		pop	{r3, lr}
 404              		.cfi_restore 14
 405              		.cfi_restore 3
 406              		.cfi_def_cfa_offset 0
 199:Generated_Source\PSoC5/SPI_led.c **** 
 407              		.loc 1 199 0
 408 001e FFF7FEBF 		b	CyExitCriticalSection
 409              	.LVL9:
 410              	.L33:
 411 0022 00BF     		.align	2
 412              	.L32:
 413 0024 96640040 		.word	1073767574
 414 0028 94640040 		.word	1073767572
 415              		.cfi_endproc
 416              	.LFE3:
 417              		.size	SPI_led_Stop, .-SPI_led_Stop
 418              		.section	.text.SPI_led_EnableTxInt,"ax",%progbits
 419              		.align	2
 420              		.global	SPI_led_EnableTxInt
 421              		.thumb
 422              		.thumb_func
 423              		.type	SPI_led_EnableTxInt, %function
 424              	SPI_led_EnableTxInt:
 425              	.LFB33:
 426              		.cfi_startproc
 427              		@ args = 0, pretend = 0, frame = 0
 428              		@ frame_needed = 0, uses_anonymous_args = 0
 429              		@ link register save eliminated.
 430 0000 7047     		bx	lr
 431              		.cfi_endproc
 432              	.LFE33:
 433              		.size	SPI_led_EnableTxInt, .-SPI_led_EnableTxInt
 434 0002 00BF     		.section	.text.SPI_led_EnableRxInt,"ax",%progbits
 435              		.align	2
 436              		.global	SPI_led_EnableRxInt
 437              		.thumb
 438              		.thumb_func
 439              		.type	SPI_led_EnableRxInt, %function
 440              	SPI_led_EnableRxInt:
 441              	.LFB31:
 442              		.cfi_startproc
 443              		@ args = 0, pretend = 0, frame = 0
 444              		@ frame_needed = 0, uses_anonymous_args = 0
 445              		@ link register save eliminated.
 446 0000 7047     		bx	lr
 447              		.cfi_endproc
 448              	.LFE31:
 449              		.size	SPI_led_EnableRxInt, .-SPI_led_EnableRxInt
 450 0002 00BF     		.section	.text.SPI_led_DisableTxInt,"ax",%progbits
 451              		.align	2
 452              		.global	SPI_led_DisableTxInt
 453              		.thumb
 454              		.thumb_func
 455              		.type	SPI_led_DisableTxInt, %function
 456              	SPI_led_DisableTxInt:
 457              	.LFB29:
 458              		.cfi_startproc
ARM GAS  C:\Users\larco\AppData\Local\Temp\cccTufIC.s 			page 28


 459              		@ args = 0, pretend = 0, frame = 0
 460              		@ frame_needed = 0, uses_anonymous_args = 0
 461              		@ link register save eliminated.
 462 0000 7047     		bx	lr
 463              		.cfi_endproc
 464              	.LFE29:
 465              		.size	SPI_led_DisableTxInt, .-SPI_led_DisableTxInt
 466 0002 00BF     		.section	.text.SPI_led_DisableRxInt,"ax",%progbits
 467              		.align	2
 468              		.global	SPI_led_DisableRxInt
 469              		.thumb
 470              		.thumb_func
 471              		.type	SPI_led_DisableRxInt, %function
 472              	SPI_led_DisableRxInt:
 473              	.LFB27:
 474              		.cfi_startproc
 475              		@ args = 0, pretend = 0, frame = 0
 476              		@ frame_needed = 0, uses_anonymous_args = 0
 477              		@ link register save eliminated.
 478 0000 7047     		bx	lr
 479              		.cfi_endproc
 480              	.LFE27:
 481              		.size	SPI_led_DisableRxInt, .-SPI_led_DisableRxInt
 482 0002 00BF     		.section	.text.SPI_led_SetTxInterruptMode,"ax",%progbits
 483              		.align	2
 484              		.global	SPI_led_SetTxInterruptMode
 485              		.thumb
 486              		.thumb_func
 487              		.type	SPI_led_SetTxInterruptMode, %function
 488              	SPI_led_SetTxInterruptMode:
 489              	.LFB8:
 329:Generated_Source\PSoC5/SPI_led.c ****     SPI_led_TX_STATUS_MASK_REG = intSrc;
 490              		.loc 1 329 0
 491              		.cfi_startproc
 492              		@ args = 0, pretend = 0, frame = 0
 493              		@ frame_needed = 0, uses_anonymous_args = 0
 494              		@ link register save eliminated.
 495              	.LVL10:
 330:Generated_Source\PSoC5/SPI_led.c **** }
 496              		.loc 1 330 0
 497 0000 014B     		ldr	r3, .L39
 498 0002 1870     		strb	r0, [r3]
 499 0004 7047     		bx	lr
 500              	.L40:
 501 0006 00BF     		.align	2
 502              	.L39:
 503 0008 86640040 		.word	1073767558
 504              		.cfi_endproc
 505              	.LFE8:
 506              		.size	SPI_led_SetTxInterruptMode, .-SPI_led_SetTxInterruptMode
 507              		.section	.text.SPI_led_SetRxInterruptMode,"ax",%progbits
 508              		.align	2
 509              		.global	SPI_led_SetRxInterruptMode
 510              		.thumb
 511              		.thumb_func
 512              		.type	SPI_led_SetRxInterruptMode, %function
 513              	SPI_led_SetRxInterruptMode:
ARM GAS  C:\Users\larco\AppData\Local\Temp\cccTufIC.s 			page 29


 514              	.LFB9:
 353:Generated_Source\PSoC5/SPI_led.c ****     SPI_led_RX_STATUS_MASK_REG  = intSrc;
 515              		.loc 1 353 0
 516              		.cfi_startproc
 517              		@ args = 0, pretend = 0, frame = 0
 518              		@ frame_needed = 0, uses_anonymous_args = 0
 519              		@ link register save eliminated.
 520              	.LVL11:
 354:Generated_Source\PSoC5/SPI_led.c **** }
 521              		.loc 1 354 0
 522 0000 014B     		ldr	r3, .L42
 523 0002 1870     		strb	r0, [r3]
 524 0004 7047     		bx	lr
 525              	.L43:
 526 0006 00BF     		.align	2
 527              	.L42:
 528 0008 84640040 		.word	1073767556
 529              		.cfi_endproc
 530              	.LFE9:
 531              		.size	SPI_led_SetRxInterruptMode, .-SPI_led_SetRxInterruptMode
 532              		.section	.text.SPI_led_ReadTxStatus,"ax",%progbits
 533              		.align	2
 534              		.global	SPI_led_ReadTxStatus
 535              		.thumb
 536              		.thumb_func
 537              		.type	SPI_led_ReadTxStatus, %function
 538              	SPI_led_ReadTxStatus:
 539              	.LFB10:
 387:Generated_Source\PSoC5/SPI_led.c ****     uint8 tmpStatus;
 540              		.loc 1 387 0
 541              		.cfi_startproc
 542              		@ args = 0, pretend = 0, frame = 0
 543              		@ frame_needed = 0, uses_anonymous_args = 0
 544              		@ link register save eliminated.
 401:Generated_Source\PSoC5/SPI_led.c **** 
 545              		.loc 1 401 0
 546 0000 014B     		ldr	r3, .L45
 547 0002 1878     		ldrb	r0, [r3]	@ zero_extendqisi2
 548              	.LVL12:
 406:Generated_Source\PSoC5/SPI_led.c **** 
 549              		.loc 1 406 0
 550 0004 7047     		bx	lr
 551              	.L46:
 552 0006 00BF     		.align	2
 553              	.L45:
 554 0008 66640040 		.word	1073767526
 555              		.cfi_endproc
 556              	.LFE10:
 557              		.size	SPI_led_ReadTxStatus, .-SPI_led_ReadTxStatus
 558              		.section	.text.SPI_led_ReadRxStatus,"ax",%progbits
 559              		.align	2
 560              		.global	SPI_led_ReadRxStatus
 561              		.thumb
 562              		.thumb_func
 563              		.type	SPI_led_ReadRxStatus, %function
 564              	SPI_led_ReadRxStatus:
 565              	.LFB11:
ARM GAS  C:\Users\larco\AppData\Local\Temp\cccTufIC.s 			page 30


 438:Generated_Source\PSoC5/SPI_led.c ****     uint8 tmpStatus;
 566              		.loc 1 438 0
 567              		.cfi_startproc
 568              		@ args = 0, pretend = 0, frame = 0
 569              		@ frame_needed = 0, uses_anonymous_args = 0
 570              		@ link register save eliminated.
 452:Generated_Source\PSoC5/SPI_led.c **** 
 571              		.loc 1 452 0
 572 0000 014B     		ldr	r3, .L48
 573 0002 1878     		ldrb	r0, [r3]	@ zero_extendqisi2
 574              	.LVL13:
 457:Generated_Source\PSoC5/SPI_led.c **** 
 575              		.loc 1 457 0
 576 0004 7047     		bx	lr
 577              	.L49:
 578 0006 00BF     		.align	2
 579              	.L48:
 580 0008 64640040 		.word	1073767524
 581              		.cfi_endproc
 582              	.LFE11:
 583              		.size	SPI_led_ReadRxStatus, .-SPI_led_ReadRxStatus
 584              		.section	.text.SPI_led_WriteTxData,"ax",%progbits
 585              		.align	2
 586              		.global	SPI_led_WriteTxData
 587              		.thumb
 588              		.thumb_func
 589              		.type	SPI_led_WriteTxData, %function
 590              	SPI_led_WriteTxData:
 591              	.LFB12:
 495:Generated_Source\PSoC5/SPI_led.c ****     #if(SPI_led_TX_SOFTWARE_BUF_ENABLED)
 592              		.loc 1 495 0
 593              		.cfi_startproc
 594              		@ args = 0, pretend = 0, frame = 0
 595              		@ frame_needed = 0, uses_anonymous_args = 0
 596              		@ link register save eliminated.
 597              	.LVL14:
 557:Generated_Source\PSoC5/SPI_led.c ****         {
 598              		.loc 1 557 0
 599 0000 034A     		ldr	r2, .L54
 600              	.L51:
 557:Generated_Source\PSoC5/SPI_led.c ****         {
 601              		.loc 1 557 0 is_stmt 0 discriminator 1
 602 0002 1378     		ldrb	r3, [r2]	@ zero_extendqisi2
 603 0004 5B07     		lsls	r3, r3, #29
 604 0006 FCD5     		bpl	.L51
 562:Generated_Source\PSoC5/SPI_led.c **** 
 605              		.loc 1 562 0 is_stmt 1
 606 0008 024B     		ldr	r3, .L54+4
 607 000a 1870     		strb	r0, [r3]
 608 000c 7047     		bx	lr
 609              	.L55:
 610 000e 00BF     		.align	2
 611              	.L54:
 612 0010 66640040 		.word	1073767526
 613 0014 45640040 		.word	1073767493
 614              		.cfi_endproc
 615              	.LFE12:
ARM GAS  C:\Users\larco\AppData\Local\Temp\cccTufIC.s 			page 31


 616              		.size	SPI_led_WriteTxData, .-SPI_led_WriteTxData
 617              		.section	.text.SPI_led_ReadRxData,"ax",%progbits
 618              		.align	2
 619              		.global	SPI_led_ReadRxData
 620              		.thumb
 621              		.thumb_func
 622              		.type	SPI_led_ReadRxData, %function
 623              	SPI_led_ReadRxData:
 624              	.LFB13:
 603:Generated_Source\PSoC5/SPI_led.c ****     uint8 rxData;
 625              		.loc 1 603 0
 626              		.cfi_startproc
 627              		@ args = 0, pretend = 0, frame = 0
 628              		@ frame_needed = 0, uses_anonymous_args = 0
 629              		@ link register save eliminated.
 633:Generated_Source\PSoC5/SPI_led.c **** 
 630              		.loc 1 633 0
 631 0000 014B     		ldr	r3, .L57
 632 0002 1878     		ldrb	r0, [r3]	@ zero_extendqisi2
 633              	.LVL15:
 638:Generated_Source\PSoC5/SPI_led.c **** 
 634              		.loc 1 638 0
 635 0004 7047     		bx	lr
 636              	.L58:
 637 0006 00BF     		.align	2
 638              	.L57:
 639 0008 55640040 		.word	1073767509
 640              		.cfi_endproc
 641              	.LFE13:
 642              		.size	SPI_led_ReadRxData, .-SPI_led_ReadRxData
 643              		.section	.text.SPI_led_GetRxBufferSize,"ax",%progbits
 644              		.align	2
 645              		.global	SPI_led_GetRxBufferSize
 646              		.thumb
 647              		.thumb_func
 648              		.type	SPI_led_GetRxBufferSize, %function
 649              	SPI_led_GetRxBufferSize:
 650              	.LFB14:
 667:Generated_Source\PSoC5/SPI_led.c ****     uint8 size;
 651              		.loc 1 667 0
 652              		.cfi_startproc
 653              		@ args = 0, pretend = 0, frame = 0
 654              		@ frame_needed = 0, uses_anonymous_args = 0
 655              		@ link register save eliminated.
 693:Generated_Source\PSoC5/SPI_led.c **** 
 656              		.loc 1 693 0
 657 0000 024B     		ldr	r3, .L60
 658 0002 1878     		ldrb	r0, [r3]	@ zero_extendqisi2
 659              	.LVL16:
 698:Generated_Source\PSoC5/SPI_led.c **** 
 660              		.loc 1 698 0
 661 0004 C0F34010 		ubfx	r0, r0, #5, #1
 662              	.LVL17:
 663 0008 7047     		bx	lr
 664              	.L61:
 665 000a 00BF     		.align	2
 666              	.L60:
ARM GAS  C:\Users\larco\AppData\Local\Temp\cccTufIC.s 			page 32


 667 000c 64640040 		.word	1073767524
 668              		.cfi_endproc
 669              	.LFE14:
 670              		.size	SPI_led_GetRxBufferSize, .-SPI_led_GetRxBufferSize
 671              		.section	.text.SPI_led_GetTxBufferSize,"ax",%progbits
 672              		.align	2
 673              		.global	SPI_led_GetTxBufferSize
 674              		.thumb
 675              		.thumb_func
 676              		.type	SPI_led_GetTxBufferSize, %function
 677              	SPI_led_GetTxBufferSize:
 678              	.LFB15:
 728:Generated_Source\PSoC5/SPI_led.c ****     uint8 size;
 679              		.loc 1 728 0
 680              		.cfi_startproc
 681              		@ args = 0, pretend = 0, frame = 0
 682              		@ frame_needed = 0, uses_anonymous_args = 0
 683              		@ link register save eliminated.
 752:Generated_Source\PSoC5/SPI_led.c **** 
 684              		.loc 1 752 0
 685 0000 064B     		ldr	r3, .L66
 686 0002 1B78     		ldrb	r3, [r3]	@ zero_extendqisi2
 687 0004 DBB2     		uxtb	r3, r3
 688              	.LVL18:
 754:Generated_Source\PSoC5/SPI_led.c ****         {
 689              		.loc 1 754 0
 690 0006 9A07     		lsls	r2, r3, #30
 691 0008 05D4     		bmi	.L64
 758:Generated_Source\PSoC5/SPI_led.c ****         {
 692              		.loc 1 758 0
 693 000a 13F0040F 		tst	r3, #4
 764:Generated_Source\PSoC5/SPI_led.c ****         }
 694              		.loc 1 764 0
 695 000e 14BF     		ite	ne
 696 0010 0120     		movne	r0, #1
 697 0012 0420     		moveq	r0, #4
 698 0014 7047     		bx	lr
 699              	.L64:
 756:Generated_Source\PSoC5/SPI_led.c ****         }
 700              		.loc 1 756 0
 701 0016 0020     		movs	r0, #0
 702              	.LVL19:
 770:Generated_Source\PSoC5/SPI_led.c **** 
 703              		.loc 1 770 0
 704 0018 7047     		bx	lr
 705              	.L67:
 706 001a 00BF     		.align	2
 707              	.L66:
 708 001c 66640040 		.word	1073767526
 709              		.cfi_endproc
 710              	.LFE15:
 711              		.size	SPI_led_GetTxBufferSize, .-SPI_led_GetTxBufferSize
 712              		.section	.text.SPI_led_ClearRxBuffer,"ax",%progbits
 713              		.align	2
 714              		.global	SPI_led_ClearRxBuffer
 715              		.thumb
 716              		.thumb_func
ARM GAS  C:\Users\larco\AppData\Local\Temp\cccTufIC.s 			page 33


 717              		.type	SPI_led_ClearRxBuffer, %function
 718              	SPI_led_ClearRxBuffer:
 719              	.LFB16:
 807:Generated_Source\PSoC5/SPI_led.c ****     /* Clear Hardware RX FIFO */
 720              		.loc 1 807 0
 721              		.cfi_startproc
 722              		@ args = 0, pretend = 0, frame = 0
 723              		@ frame_needed = 0, uses_anonymous_args = 0
 724              		@ link register save eliminated.
 809:Generated_Source\PSoC5/SPI_led.c ****     {
 725              		.loc 1 809 0
 726 0000 044A     		ldr	r2, .L76
 727 0002 1378     		ldrb	r3, [r2]	@ zero_extendqisi2
 728 0004 9906     		lsls	r1, r3, #26
 729 0006 04D5     		bpl	.L68
 811:Generated_Source\PSoC5/SPI_led.c ****     }
 730              		.loc 1 811 0
 731 0008 0349     		ldr	r1, .L76+4
 732              	.L73:
 733 000a 0B78     		ldrb	r3, [r1]	@ zero_extendqisi2
 809:Generated_Source\PSoC5/SPI_led.c ****     {
 734              		.loc 1 809 0
 735 000c 1378     		ldrb	r3, [r2]	@ zero_extendqisi2
 736 000e 9B06     		lsls	r3, r3, #26
 737 0010 FBD4     		bmi	.L73
 738              	.L68:
 739 0012 7047     		bx	lr
 740              	.L77:
 741              		.align	2
 742              	.L76:
 743 0014 64640040 		.word	1073767524
 744 0018 55640040 		.word	1073767509
 745              		.cfi_endproc
 746              	.LFE16:
 747              		.size	SPI_led_ClearRxBuffer, .-SPI_led_ClearRxBuffer
 748              		.section	.text.SPI_led_ClearTxBuffer,"ax",%progbits
 749              		.align	2
 750              		.global	SPI_led_ClearTxBuffer
 751              		.thumb
 752              		.thumb_func
 753              		.type	SPI_led_ClearTxBuffer, %function
 754              	SPI_led_ClearTxBuffer:
 755              	.LFB17:
 862:Generated_Source\PSoC5/SPI_led.c ****     uint8 enableInterrupts;
 756              		.loc 1 862 0
 757              		.cfi_startproc
 758              		@ args = 0, pretend = 0, frame = 0
 759              		@ frame_needed = 0, uses_anonymous_args = 0
 760 0000 08B5     		push	{r3, lr}
 761              		.cfi_def_cfa_offset 8
 762              		.cfi_offset 3, -8
 763              		.cfi_offset 14, -4
 865:Generated_Source\PSoC5/SPI_led.c ****     /* Clear TX FIFO */
 764              		.loc 1 865 0
 765 0002 FFF7FEFF 		bl	CyEnterCriticalSection
 766              	.LVL20:
 867:Generated_Source\PSoC5/SPI_led.c ****     SPI_led_AUX_CONTROL_DP0_REG &= ((uint8) ~SPI_led_TX_FIFO_CLR);
ARM GAS  C:\Users\larco\AppData\Local\Temp\cccTufIC.s 			page 34


 767              		.loc 1 867 0
 768 0006 064B     		ldr	r3, .L80
 769 0008 1A78     		ldrb	r2, [r3]	@ zero_extendqisi2
 770 000a 42F00102 		orr	r2, r2, #1
 771 000e 1A70     		strb	r2, [r3]
 868:Generated_Source\PSoC5/SPI_led.c **** 
 772              		.loc 1 868 0
 773 0010 1A78     		ldrb	r2, [r3]	@ zero_extendqisi2
 774 0012 02F0FE02 		and	r2, r2, #254
 775 0016 1A70     		strb	r2, [r3]
 890:Generated_Source\PSoC5/SPI_led.c **** 
 776              		.loc 1 890 0
 777 0018 BDE80840 		pop	{r3, lr}
 778              		.cfi_restore 14
 779              		.cfi_restore 3
 780              		.cfi_def_cfa_offset 0
 875:Generated_Source\PSoC5/SPI_led.c **** 
 781              		.loc 1 875 0
 782 001c FFF7FEBF 		b	CyExitCriticalSection
 783              	.LVL21:
 784              	.L81:
 785              		.align	2
 786              	.L80:
 787 0020 95640040 		.word	1073767573
 788              		.cfi_endproc
 789              	.LFE17:
 790              		.size	SPI_led_ClearTxBuffer, .-SPI_led_ClearTxBuffer
 791              		.section	.text.SPI_led_PutArray,"ax",%progbits
 792              		.align	2
 793              		.global	SPI_led_PutArray
 794              		.thumb
 795              		.thumb_func
 796              		.type	SPI_led_PutArray, %function
 797              	SPI_led_PutArray:
 798              	.LFB18:
 964:Generated_Source\PSoC5/SPI_led.c ****     uint8 bufIndex;
 799              		.loc 1 964 0
 800              		.cfi_startproc
 801              		@ args = 0, pretend = 0, frame = 0
 802              		@ frame_needed = 0, uses_anonymous_args = 0
 803              		@ link register save eliminated.
 804              	.LVL22:
 969:Generated_Source\PSoC5/SPI_led.c ****     {
 805              		.loc 1 969 0
 806 0000 69B1     		cbz	r1, .L92
 964:Generated_Source\PSoC5/SPI_led.c ****     uint8 bufIndex;
 807              		.loc 1 964 0
 808 0002 70B4     		push	{r4, r5, r6}
 809              		.cfi_def_cfa_offset 12
 810              		.cfi_offset 4, -12
 811              		.cfi_offset 5, -8
 812              		.cfi_offset 6, -4
 813              	.LBB84:
 814              	.LBB85:
 557:Generated_Source\PSoC5/SPI_led.c ****         {
 815              		.loc 1 557 0
 816 0004 064A     		ldr	r2, .L93
ARM GAS  C:\Users\larco\AppData\Local\Temp\cccTufIC.s 			page 35


 562:Generated_Source\PSoC5/SPI_led.c **** 
 817              		.loc 1 562 0
 818 0006 074E     		ldr	r6, .L93+4
 819              	.LBE85:
 820              	.LBE84:
 969:Generated_Source\PSoC5/SPI_led.c ****     {
 821              		.loc 1 969 0
 822 0008 0024     		movs	r4, #0
 823              	.LVL23:
 824              	.L85:
 971:Generated_Source\PSoC5/SPI_led.c ****         bufIndex++;
 825              		.loc 1 971 0
 826 000a 055D     		ldrb	r5, [r0, r4]	@ zero_extendqisi2
 827              	.LVL24:
 828              	.L84:
 829              	.LBB88:
 830              	.LBB86:
 557:Generated_Source\PSoC5/SPI_led.c ****         {
 831              		.loc 1 557 0
 832 000c 1378     		ldrb	r3, [r2]	@ zero_extendqisi2
 833 000e 5B07     		lsls	r3, r3, #29
 834 0010 FCD5     		bpl	.L84
 835              	.LBE86:
 836              	.LBE88:
 972:Generated_Source\PSoC5/SPI_led.c ****         byteCount--;
 837              		.loc 1 972 0
 838 0012 0134     		adds	r4, r4, #1
 839              	.LVL25:
 840 0014 E4B2     		uxtb	r4, r4
 969:Generated_Source\PSoC5/SPI_led.c ****     {
 841              		.loc 1 969 0
 842 0016 A142     		cmp	r1, r4
 843              	.LBB89:
 844              	.LBB87:
 562:Generated_Source\PSoC5/SPI_led.c **** 
 845              		.loc 1 562 0
 846 0018 3570     		strb	r5, [r6]
 847              	.LVL26:
 848              	.LBE87:
 849              	.LBE89:
 969:Generated_Source\PSoC5/SPI_led.c ****     {
 850              		.loc 1 969 0
 851 001a F6D1     		bne	.L85
 975:Generated_Source\PSoC5/SPI_led.c **** 
 852              		.loc 1 975 0
 853 001c 70BC     		pop	{r4, r5, r6}
 854              		.cfi_restore 6
 855              		.cfi_restore 5
 856              		.cfi_restore 4
 857              		.cfi_def_cfa_offset 0
 858              	.LVL27:
 859              	.L92:
 860 001e 7047     		bx	lr
 861              	.L94:
 862              		.align	2
 863              	.L93:
 864 0020 66640040 		.word	1073767526
ARM GAS  C:\Users\larco\AppData\Local\Temp\cccTufIC.s 			page 36


 865 0024 45640040 		.word	1073767493
 866              		.cfi_endproc
 867              	.LFE18:
 868              		.size	SPI_led_PutArray, .-SPI_led_PutArray
 869              		.section	.text.SPI_led_ClearFIFO,"ax",%progbits
 870              		.align	2
 871              		.global	SPI_led_ClearFIFO
 872              		.thumb
 873              		.thumb_func
 874              		.type	SPI_led_ClearFIFO, %function
 875              	SPI_led_ClearFIFO:
 876              	.LFB19:
 996:Generated_Source\PSoC5/SPI_led.c ****     uint8 enableInterrupts;
 877              		.loc 1 996 0
 878              		.cfi_startproc
 879              		@ args = 0, pretend = 0, frame = 0
 880              		@ frame_needed = 0, uses_anonymous_args = 0
 881 0000 08B5     		push	{r3, lr}
 882              		.cfi_def_cfa_offset 8
 883              		.cfi_offset 3, -8
 884              		.cfi_offset 14, -4
1000:Generated_Source\PSoC5/SPI_led.c ****     {
 885              		.loc 1 1000 0
 886 0002 0C4A     		ldr	r2, .L104
 887 0004 1378     		ldrb	r3, [r2]	@ zero_extendqisi2
 888 0006 9906     		lsls	r1, r3, #26
 889 0008 04D5     		bpl	.L96
1002:Generated_Source\PSoC5/SPI_led.c ****     }
 890              		.loc 1 1002 0
 891 000a 0B49     		ldr	r1, .L104+4
 892              	.L100:
 893 000c 0B78     		ldrb	r3, [r1]	@ zero_extendqisi2
1000:Generated_Source\PSoC5/SPI_led.c ****     {
 894              		.loc 1 1000 0
 895 000e 1378     		ldrb	r3, [r2]	@ zero_extendqisi2
 896 0010 9B06     		lsls	r3, r3, #26
 897 0012 FBD4     		bmi	.L100
 898              	.L96:
1005:Generated_Source\PSoC5/SPI_led.c ****     /* Clear TX FIFO */
 899              		.loc 1 1005 0
 900 0014 FFF7FEFF 		bl	CyEnterCriticalSection
 901              	.LVL28:
1007:Generated_Source\PSoC5/SPI_led.c ****     SPI_led_AUX_CONTROL_DP0_REG &= ((uint8) ~SPI_led_TX_FIFO_CLR);
 902              		.loc 1 1007 0
 903 0018 084B     		ldr	r3, .L104+8
 904 001a 1A78     		ldrb	r2, [r3]	@ zero_extendqisi2
 905 001c 42F00102 		orr	r2, r2, #1
 906 0020 1A70     		strb	r2, [r3]
1008:Generated_Source\PSoC5/SPI_led.c **** 
 907              		.loc 1 1008 0
 908 0022 1A78     		ldrb	r2, [r3]	@ zero_extendqisi2
 909 0024 02F0FE02 		and	r2, r2, #254
 910 0028 1A70     		strb	r2, [r3]
1016:Generated_Source\PSoC5/SPI_led.c **** }
 911              		.loc 1 1016 0
 912 002a BDE80840 		pop	{r3, lr}
 913              		.cfi_restore 14
ARM GAS  C:\Users\larco\AppData\Local\Temp\cccTufIC.s 			page 37


 914              		.cfi_restore 3
 915              		.cfi_def_cfa_offset 0
1015:Generated_Source\PSoC5/SPI_led.c **** }
 916              		.loc 1 1015 0
 917 002e FFF7FEBF 		b	CyExitCriticalSection
 918              	.LVL29:
 919              	.L105:
 920 0032 00BF     		.align	2
 921              	.L104:
 922 0034 64640040 		.word	1073767524
 923 0038 55640040 		.word	1073767509
 924 003c 95640040 		.word	1073767573
 925              		.cfi_endproc
 926              	.LFE19:
 927              		.size	SPI_led_ClearFIFO, .-SPI_led_ClearFIFO
 928              		.section	.text.SPI_led_EnableInt,"ax",%progbits
 929              		.align	2
 930              		.global	SPI_led_EnableInt
 931              		.thumb
 932              		.thumb_func
 933              		.type	SPI_led_EnableInt, %function
 934              	SPI_led_EnableInt:
 935              	.LFB25:
 936              		.cfi_startproc
 937              		@ args = 0, pretend = 0, frame = 0
 938              		@ frame_needed = 0, uses_anonymous_args = 0
 939              		@ link register save eliminated.
 940 0000 7047     		bx	lr
 941              		.cfi_endproc
 942              	.LFE25:
 943              		.size	SPI_led_EnableInt, .-SPI_led_EnableInt
 944 0002 00BF     		.section	.text.SPI_led_DisableInt,"ax",%progbits
 945              		.align	2
 946              		.global	SPI_led_DisableInt
 947              		.thumb
 948              		.thumb_func
 949              		.type	SPI_led_DisableInt, %function
 950              	SPI_led_DisableInt:
 951              	.LFB21:
1017:Generated_Source\PSoC5/SPI_led.c **** 
1018:Generated_Source\PSoC5/SPI_led.c **** 
1019:Generated_Source\PSoC5/SPI_led.c **** /* Following functions are for version Compatibility, they are obsolete.
1020:Generated_Source\PSoC5/SPI_led.c **** *  Please do not use it in new projects.
1021:Generated_Source\PSoC5/SPI_led.c **** */
1022:Generated_Source\PSoC5/SPI_led.c **** 
1023:Generated_Source\PSoC5/SPI_led.c **** 
1024:Generated_Source\PSoC5/SPI_led.c **** /*******************************************************************************
1025:Generated_Source\PSoC5/SPI_led.c **** * Function Name: SPI_led_EnableInt
1026:Generated_Source\PSoC5/SPI_led.c **** ********************************************************************************
1027:Generated_Source\PSoC5/SPI_led.c **** *
1028:Generated_Source\PSoC5/SPI_led.c **** * Summary:
1029:Generated_Source\PSoC5/SPI_led.c **** *  Enable internal interrupt generation.
1030:Generated_Source\PSoC5/SPI_led.c **** *
1031:Generated_Source\PSoC5/SPI_led.c **** * Parameters:
1032:Generated_Source\PSoC5/SPI_led.c **** *  None.
1033:Generated_Source\PSoC5/SPI_led.c **** *
1034:Generated_Source\PSoC5/SPI_led.c **** * Return:
ARM GAS  C:\Users\larco\AppData\Local\Temp\cccTufIC.s 			page 38


1035:Generated_Source\PSoC5/SPI_led.c **** *  None.
1036:Generated_Source\PSoC5/SPI_led.c **** *
1037:Generated_Source\PSoC5/SPI_led.c **** * Theory:
1038:Generated_Source\PSoC5/SPI_led.c **** *  Enable the internal interrupt output -or- the interrupt component itself.
1039:Generated_Source\PSoC5/SPI_led.c **** *
1040:Generated_Source\PSoC5/SPI_led.c **** *******************************************************************************/
1041:Generated_Source\PSoC5/SPI_led.c **** void SPI_led_EnableInt(void) 
1042:Generated_Source\PSoC5/SPI_led.c **** {
1043:Generated_Source\PSoC5/SPI_led.c ****     SPI_led_EnableRxInt();
1044:Generated_Source\PSoC5/SPI_led.c ****     SPI_led_EnableTxInt();
1045:Generated_Source\PSoC5/SPI_led.c **** }
1046:Generated_Source\PSoC5/SPI_led.c **** 
1047:Generated_Source\PSoC5/SPI_led.c **** 
1048:Generated_Source\PSoC5/SPI_led.c **** /*******************************************************************************
1049:Generated_Source\PSoC5/SPI_led.c **** * Function Name: SPI_led_DisableInt
1050:Generated_Source\PSoC5/SPI_led.c **** ********************************************************************************
1051:Generated_Source\PSoC5/SPI_led.c **** *
1052:Generated_Source\PSoC5/SPI_led.c **** * Summary:
1053:Generated_Source\PSoC5/SPI_led.c **** *  Disable internal interrupt generation.
1054:Generated_Source\PSoC5/SPI_led.c **** *
1055:Generated_Source\PSoC5/SPI_led.c **** * Parameters:
1056:Generated_Source\PSoC5/SPI_led.c **** *  None.
1057:Generated_Source\PSoC5/SPI_led.c **** *
1058:Generated_Source\PSoC5/SPI_led.c **** * Return:
1059:Generated_Source\PSoC5/SPI_led.c **** *  None.
1060:Generated_Source\PSoC5/SPI_led.c **** *
1061:Generated_Source\PSoC5/SPI_led.c **** * Theory:
1062:Generated_Source\PSoC5/SPI_led.c **** *  Disable the internal interrupt output -or- the interrupt component itself.
1063:Generated_Source\PSoC5/SPI_led.c **** *
1064:Generated_Source\PSoC5/SPI_led.c **** *******************************************************************************/
1065:Generated_Source\PSoC5/SPI_led.c **** void SPI_led_DisableInt(void) 
1066:Generated_Source\PSoC5/SPI_led.c **** {
 952              		.loc 1 1066 0
 953              		.cfi_startproc
 954              		@ args = 0, pretend = 0, frame = 0
 955              		@ frame_needed = 0, uses_anonymous_args = 0
 956              		@ link register save eliminated.
 957 0000 7047     		bx	lr
 958              		.cfi_endproc
 959              	.LFE21:
 960              		.size	SPI_led_DisableInt, .-SPI_led_DisableInt
 961 0002 00BF     		.section	.text.SPI_led_SetInterruptMode,"ax",%progbits
 962              		.align	2
 963              		.global	SPI_led_SetInterruptMode
 964              		.thumb
 965              		.thumb_func
 966              		.type	SPI_led_SetInterruptMode, %function
 967              	SPI_led_SetInterruptMode:
 968              	.LFB22:
1067:Generated_Source\PSoC5/SPI_led.c ****     SPI_led_DisableTxInt();
1068:Generated_Source\PSoC5/SPI_led.c ****     SPI_led_DisableRxInt();
1069:Generated_Source\PSoC5/SPI_led.c **** }
1070:Generated_Source\PSoC5/SPI_led.c **** 
1071:Generated_Source\PSoC5/SPI_led.c **** 
1072:Generated_Source\PSoC5/SPI_led.c **** /*******************************************************************************
1073:Generated_Source\PSoC5/SPI_led.c **** * Function Name: SPI_led_SetInterruptMode
1074:Generated_Source\PSoC5/SPI_led.c **** ********************************************************************************
ARM GAS  C:\Users\larco\AppData\Local\Temp\cccTufIC.s 			page 39


1075:Generated_Source\PSoC5/SPI_led.c **** *
1076:Generated_Source\PSoC5/SPI_led.c **** * Summary:
1077:Generated_Source\PSoC5/SPI_led.c **** *  Configure which status bits trigger an interrupt event.
1078:Generated_Source\PSoC5/SPI_led.c **** *
1079:Generated_Source\PSoC5/SPI_led.c **** * Parameters:
1080:Generated_Source\PSoC5/SPI_led.c **** *  intSrc: An or'd combination of the desired status bit masks (defined in the
1081:Generated_Source\PSoC5/SPI_led.c **** *  header file).
1082:Generated_Source\PSoC5/SPI_led.c **** *
1083:Generated_Source\PSoC5/SPI_led.c **** * Return:
1084:Generated_Source\PSoC5/SPI_led.c **** *  None.
1085:Generated_Source\PSoC5/SPI_led.c **** *
1086:Generated_Source\PSoC5/SPI_led.c **** * Theory:
1087:Generated_Source\PSoC5/SPI_led.c **** *  Enables the output of specific status bits to the interrupt controller.
1088:Generated_Source\PSoC5/SPI_led.c **** *
1089:Generated_Source\PSoC5/SPI_led.c **** *******************************************************************************/
1090:Generated_Source\PSoC5/SPI_led.c **** void SPI_led_SetInterruptMode(uint8 intSrc) 
1091:Generated_Source\PSoC5/SPI_led.c **** {
 969              		.loc 1 1091 0
 970              		.cfi_startproc
 971              		@ args = 0, pretend = 0, frame = 0
 972              		@ frame_needed = 0, uses_anonymous_args = 0
 973              		@ link register save eliminated.
 974              	.LVL30:
1092:Generated_Source\PSoC5/SPI_led.c ****     SPI_led_TX_STATUS_MASK_REG  = (intSrc & ((uint8) ~SPI_led_STS_SPI_IDLE));
 975              		.loc 1 1092 0
 976 0000 034A     		ldr	r2, .L109
1093:Generated_Source\PSoC5/SPI_led.c ****     SPI_led_RX_STATUS_MASK_REG  =  intSrc;
 977              		.loc 1 1093 0
 978 0002 044B     		ldr	r3, .L109+4
1092:Generated_Source\PSoC5/SPI_led.c ****     SPI_led_TX_STATUS_MASK_REG  = (intSrc & ((uint8) ~SPI_led_STS_SPI_IDLE));
 979              		.loc 1 1092 0
 980 0004 00F0EF01 		and	r1, r0, #239
 981 0008 1170     		strb	r1, [r2]
 982              		.loc 1 1093 0
 983 000a 1870     		strb	r0, [r3]
 984 000c 7047     		bx	lr
 985              	.L110:
 986 000e 00BF     		.align	2
 987              	.L109:
 988 0010 86640040 		.word	1073767558
 989 0014 84640040 		.word	1073767556
 990              		.cfi_endproc
 991              	.LFE22:
 992              		.size	SPI_led_SetInterruptMode, .-SPI_led_SetInterruptMode
 993              		.section	.text.SPI_led_ReadStatus,"ax",%progbits
 994              		.align	2
 995              		.global	SPI_led_ReadStatus
 996              		.thumb
 997              		.thumb_func
 998              		.type	SPI_led_ReadStatus, %function
 999              	SPI_led_ReadStatus:
 1000              	.LFB23:
1094:Generated_Source\PSoC5/SPI_led.c **** }
1095:Generated_Source\PSoC5/SPI_led.c **** 
1096:Generated_Source\PSoC5/SPI_led.c **** 
1097:Generated_Source\PSoC5/SPI_led.c **** /*******************************************************************************
1098:Generated_Source\PSoC5/SPI_led.c **** * Function Name: SPI_led_ReadStatus
ARM GAS  C:\Users\larco\AppData\Local\Temp\cccTufIC.s 			page 40


1099:Generated_Source\PSoC5/SPI_led.c **** ********************************************************************************
1100:Generated_Source\PSoC5/SPI_led.c **** *
1101:Generated_Source\PSoC5/SPI_led.c **** * Summary:
1102:Generated_Source\PSoC5/SPI_led.c **** *  Read the status register for the component.
1103:Generated_Source\PSoC5/SPI_led.c **** *
1104:Generated_Source\PSoC5/SPI_led.c **** * Parameters:
1105:Generated_Source\PSoC5/SPI_led.c **** *  None.
1106:Generated_Source\PSoC5/SPI_led.c **** *
1107:Generated_Source\PSoC5/SPI_led.c **** * Return:
1108:Generated_Source\PSoC5/SPI_led.c **** *  Contents of the status register.
1109:Generated_Source\PSoC5/SPI_led.c **** *
1110:Generated_Source\PSoC5/SPI_led.c **** * Global variables:
1111:Generated_Source\PSoC5/SPI_led.c **** *  SPI_led_swStatus - used to store in software status register,
1112:Generated_Source\PSoC5/SPI_led.c **** *  modified every function call - resets to zero.
1113:Generated_Source\PSoC5/SPI_led.c **** *
1114:Generated_Source\PSoC5/SPI_led.c **** * Theory:
1115:Generated_Source\PSoC5/SPI_led.c **** *  Allows the user and the API to read the status register for error detection
1116:Generated_Source\PSoC5/SPI_led.c **** *  and flow control.
1117:Generated_Source\PSoC5/SPI_led.c **** *
1118:Generated_Source\PSoC5/SPI_led.c **** * Side Effects:
1119:Generated_Source\PSoC5/SPI_led.c **** *  Clear status register of the component.
1120:Generated_Source\PSoC5/SPI_led.c **** *
1121:Generated_Source\PSoC5/SPI_led.c **** * Reentrant:
1122:Generated_Source\PSoC5/SPI_led.c **** *  No.
1123:Generated_Source\PSoC5/SPI_led.c **** *
1124:Generated_Source\PSoC5/SPI_led.c **** *******************************************************************************/
1125:Generated_Source\PSoC5/SPI_led.c **** uint8 SPI_led_ReadStatus(void) 
1126:Generated_Source\PSoC5/SPI_led.c **** {
 1001              		.loc 1 1126 0
 1002              		.cfi_startproc
 1003              		@ args = 0, pretend = 0, frame = 0
 1004              		@ frame_needed = 0, uses_anonymous_args = 0
 1005              		@ link register save eliminated.
1127:Generated_Source\PSoC5/SPI_led.c ****     uint8 tmpStatus;
1128:Generated_Source\PSoC5/SPI_led.c **** 
1129:Generated_Source\PSoC5/SPI_led.c ****     #if(SPI_led_TX_SOFTWARE_BUF_ENABLED || SPI_led_RX_SOFTWARE_BUF_ENABLED)
1130:Generated_Source\PSoC5/SPI_led.c **** 
1131:Generated_Source\PSoC5/SPI_led.c ****         SPI_led_DisableInt();
1132:Generated_Source\PSoC5/SPI_led.c **** 
1133:Generated_Source\PSoC5/SPI_led.c ****         tmpStatus  = SPI_led_GET_STATUS_RX(SPI_led_swStatusRx);
1134:Generated_Source\PSoC5/SPI_led.c ****         tmpStatus |= SPI_led_GET_STATUS_TX(SPI_led_swStatusTx);
1135:Generated_Source\PSoC5/SPI_led.c ****         tmpStatus &= ((uint8) ~SPI_led_STS_SPI_IDLE);
1136:Generated_Source\PSoC5/SPI_led.c **** 
1137:Generated_Source\PSoC5/SPI_led.c ****         SPI_led_swStatusTx = 0u;
1138:Generated_Source\PSoC5/SPI_led.c ****         SPI_led_swStatusRx = 0u;
1139:Generated_Source\PSoC5/SPI_led.c **** 
1140:Generated_Source\PSoC5/SPI_led.c ****         SPI_led_EnableInt();
1141:Generated_Source\PSoC5/SPI_led.c **** 
1142:Generated_Source\PSoC5/SPI_led.c ****     #else
1143:Generated_Source\PSoC5/SPI_led.c **** 
1144:Generated_Source\PSoC5/SPI_led.c ****         tmpStatus  = SPI_led_RX_STATUS_REG;
 1006              		.loc 1 1144 0
 1007 0000 034A     		ldr	r2, .L112
1145:Generated_Source\PSoC5/SPI_led.c ****         tmpStatus |= SPI_led_TX_STATUS_REG;
 1008              		.loc 1 1145 0
 1009 0002 044B     		ldr	r3, .L112+4
1144:Generated_Source\PSoC5/SPI_led.c ****         tmpStatus |= SPI_led_TX_STATUS_REG;
ARM GAS  C:\Users\larco\AppData\Local\Temp\cccTufIC.s 			page 41


 1010              		.loc 1 1144 0
 1011 0004 1078     		ldrb	r0, [r2]	@ zero_extendqisi2
 1012              	.LVL31:
 1013              		.loc 1 1145 0
 1014 0006 1B78     		ldrb	r3, [r3]	@ zero_extendqisi2
 1015 0008 1843     		orrs	r0, r0, r3
 1016              	.LVL32:
1146:Generated_Source\PSoC5/SPI_led.c ****         tmpStatus &= ((uint8) ~SPI_led_STS_SPI_IDLE);
1147:Generated_Source\PSoC5/SPI_led.c **** 
1148:Generated_Source\PSoC5/SPI_led.c ****     #endif /* (SPI_led_TX_SOFTWARE_BUF_ENABLED || SPI_led_RX_SOFTWARE_BUF_ENABLED) */
1149:Generated_Source\PSoC5/SPI_led.c **** 
1150:Generated_Source\PSoC5/SPI_led.c ****     return(tmpStatus);
1151:Generated_Source\PSoC5/SPI_led.c **** }
 1017              		.loc 1 1151 0
 1018 000a 00F0EF00 		and	r0, r0, #239
 1019              	.LVL33:
 1020 000e 7047     		bx	lr
 1021              	.L113:
 1022              		.align	2
 1023              	.L112:
 1024 0010 64640040 		.word	1073767524
 1025 0014 66640040 		.word	1073767526
 1026              		.cfi_endproc
 1027              	.LFE23:
 1028              		.size	SPI_led_ReadStatus, .-SPI_led_ReadStatus
 1029              		.comm	SPI_led_swStatusRx,1,1
 1030              		.comm	SPI_led_swStatusTx,1,1
 1031              		.global	SPI_led_initVar
 1032              		.bss
 1033              		.set	.LANCHOR0,. + 0
 1034              		.type	SPI_led_initVar, %object
 1035              		.size	SPI_led_initVar, 1
 1036              	SPI_led_initVar:
 1037 0000 00       		.space	1
 1038              		.text
 1039              	.Letext0:
 1040              		.file 2 "Generated_Source\\PSoC5\\cytypes.h"
 1041              		.file 3 "Generated_Source\\PSoC5\\CyLib.h"