ARM GAS  C:\Users\larco\AppData\Local\Temp\ccUwEttB.s 			page 1


   1              		.syntax unified
   2              		.cpu cortex-m3
   3              		.fpu softvfp
   4              		.eabi_attribute 20, 1
   5              		.eabi_attribute 21, 1
   6              		.eabi_attribute 23, 3
   7              		.eabi_attribute 24, 1
   8              		.eabi_attribute 25, 1
   9              		.eabi_attribute 26, 1
  10              		.eabi_attribute 30, 2
  11              		.eabi_attribute 34, 1
  12              		.eabi_attribute 18, 4
  13              		.thumb
  14              		.syntax unified
  15              		.file	"SPI_adc.c"
  16              		.text
  17              	.Ltext0:
  18              		.cfi_sections	.debug_frame
  19              		.section	.text.SPI_adc_Init,"ax",%progbits
  20              		.align	2
  21              		.global	SPI_adc_Init
  22              		.thumb
  23              		.thumb_func
  24              		.type	SPI_adc_Init, %function
  25              	SPI_adc_Init:
  26              	.LFB0:
  27              		.file 1 "Generated_Source\\PSoC5\\SPI_adc.c"
   1:Generated_Source\PSoC5/SPI_adc.c **** /*******************************************************************************
   2:Generated_Source\PSoC5/SPI_adc.c **** * File Name: SPI_adc.c
   3:Generated_Source\PSoC5/SPI_adc.c **** * Version 2.50
   4:Generated_Source\PSoC5/SPI_adc.c **** *
   5:Generated_Source\PSoC5/SPI_adc.c **** * Description:
   6:Generated_Source\PSoC5/SPI_adc.c **** *  This file provides all API functionality of the SPI Master component.
   7:Generated_Source\PSoC5/SPI_adc.c **** *
   8:Generated_Source\PSoC5/SPI_adc.c **** * Note:
   9:Generated_Source\PSoC5/SPI_adc.c **** *  None.
  10:Generated_Source\PSoC5/SPI_adc.c **** *
  11:Generated_Source\PSoC5/SPI_adc.c **** ********************************************************************************
  12:Generated_Source\PSoC5/SPI_adc.c **** * Copyright 2008-2015, Cypress Semiconductor Corporation.  All rights reserved.
  13:Generated_Source\PSoC5/SPI_adc.c **** * You may use this file only in accordance with the license, terms, conditions,
  14:Generated_Source\PSoC5/SPI_adc.c **** * disclaimers, and limitations in the end user license agreement accompanying
  15:Generated_Source\PSoC5/SPI_adc.c **** * the software package with which this file was provided.
  16:Generated_Source\PSoC5/SPI_adc.c **** *******************************************************************************/
  17:Generated_Source\PSoC5/SPI_adc.c **** 
  18:Generated_Source\PSoC5/SPI_adc.c **** #include "SPI_adc_PVT.h"
  19:Generated_Source\PSoC5/SPI_adc.c **** 
  20:Generated_Source\PSoC5/SPI_adc.c **** #if(SPI_adc_TX_SOFTWARE_BUF_ENABLED)
  21:Generated_Source\PSoC5/SPI_adc.c ****     volatile uint8 SPI_adc_txBuffer[SPI_adc_TX_BUFFER_SIZE];
  22:Generated_Source\PSoC5/SPI_adc.c ****     volatile uint8 SPI_adc_txBufferFull;
  23:Generated_Source\PSoC5/SPI_adc.c ****     volatile uint8 SPI_adc_txBufferRead;
  24:Generated_Source\PSoC5/SPI_adc.c ****     volatile uint8 SPI_adc_txBufferWrite;
  25:Generated_Source\PSoC5/SPI_adc.c **** #endif /* (SPI_adc_TX_SOFTWARE_BUF_ENABLED) */
  26:Generated_Source\PSoC5/SPI_adc.c **** 
  27:Generated_Source\PSoC5/SPI_adc.c **** #if(SPI_adc_RX_SOFTWARE_BUF_ENABLED)
  28:Generated_Source\PSoC5/SPI_adc.c ****     volatile uint8 SPI_adc_rxBuffer[SPI_adc_RX_BUFFER_SIZE];
  29:Generated_Source\PSoC5/SPI_adc.c ****     volatile uint8 SPI_adc_rxBufferFull;
  30:Generated_Source\PSoC5/SPI_adc.c ****     volatile uint8 SPI_adc_rxBufferRead;
ARM GAS  C:\Users\larco\AppData\Local\Temp\ccUwEttB.s 			page 2


  31:Generated_Source\PSoC5/SPI_adc.c ****     volatile uint8 SPI_adc_rxBufferWrite;
  32:Generated_Source\PSoC5/SPI_adc.c **** #endif /* (SPI_adc_RX_SOFTWARE_BUF_ENABLED) */
  33:Generated_Source\PSoC5/SPI_adc.c **** 
  34:Generated_Source\PSoC5/SPI_adc.c **** uint8 SPI_adc_initVar = 0u;
  35:Generated_Source\PSoC5/SPI_adc.c **** 
  36:Generated_Source\PSoC5/SPI_adc.c **** volatile uint8 SPI_adc_swStatusTx;
  37:Generated_Source\PSoC5/SPI_adc.c **** volatile uint8 SPI_adc_swStatusRx;
  38:Generated_Source\PSoC5/SPI_adc.c **** 
  39:Generated_Source\PSoC5/SPI_adc.c **** 
  40:Generated_Source\PSoC5/SPI_adc.c **** /*******************************************************************************
  41:Generated_Source\PSoC5/SPI_adc.c **** * Function Name: SPI_adc_Init
  42:Generated_Source\PSoC5/SPI_adc.c **** ********************************************************************************
  43:Generated_Source\PSoC5/SPI_adc.c **** *
  44:Generated_Source\PSoC5/SPI_adc.c **** * Summary:
  45:Generated_Source\PSoC5/SPI_adc.c **** *  Inits/Restores default SPIM configuration provided with customizer.
  46:Generated_Source\PSoC5/SPI_adc.c **** *
  47:Generated_Source\PSoC5/SPI_adc.c **** * Parameters:
  48:Generated_Source\PSoC5/SPI_adc.c **** *  None.
  49:Generated_Source\PSoC5/SPI_adc.c **** *
  50:Generated_Source\PSoC5/SPI_adc.c **** * Return:
  51:Generated_Source\PSoC5/SPI_adc.c **** *  None.
  52:Generated_Source\PSoC5/SPI_adc.c **** *
  53:Generated_Source\PSoC5/SPI_adc.c **** * Side Effects:
  54:Generated_Source\PSoC5/SPI_adc.c **** *  When this function is called it initializes all of the necessary parameters
  55:Generated_Source\PSoC5/SPI_adc.c **** *  for execution. i.e. setting the initial interrupt mask, configuring the
  56:Generated_Source\PSoC5/SPI_adc.c **** *  interrupt service routine, configuring the bit-counter parameters and
  57:Generated_Source\PSoC5/SPI_adc.c **** *  clearing the FIFO and Status Register.
  58:Generated_Source\PSoC5/SPI_adc.c **** *
  59:Generated_Source\PSoC5/SPI_adc.c **** * Reentrant:
  60:Generated_Source\PSoC5/SPI_adc.c **** *  No.
  61:Generated_Source\PSoC5/SPI_adc.c **** *
  62:Generated_Source\PSoC5/SPI_adc.c **** *******************************************************************************/
  63:Generated_Source\PSoC5/SPI_adc.c **** void SPI_adc_Init(void) 
  64:Generated_Source\PSoC5/SPI_adc.c **** {
  28              		.loc 1 64 0
  29              		.cfi_startproc
  30              		@ args = 0, pretend = 0, frame = 0
  31              		@ frame_needed = 0, uses_anonymous_args = 0
  32 0000 10B5     		push	{r4, lr}
  33              		.cfi_def_cfa_offset 8
  34              		.cfi_offset 4, -8
  35              		.cfi_offset 14, -4
  65:Generated_Source\PSoC5/SPI_adc.c ****     /* Initialize the Bit counter */
  66:Generated_Source\PSoC5/SPI_adc.c ****     SPI_adc_COUNTER_PERIOD_REG = SPI_adc_BITCTR_INIT;
  36              		.loc 1 66 0
  37 0002 114B     		ldr	r3, .L11
  38 0004 0F21     		movs	r1, #15
  39              	.LBB36:
  40              	.LBB37:
  67:Generated_Source\PSoC5/SPI_adc.c **** 
  68:Generated_Source\PSoC5/SPI_adc.c ****     /* Init TX ISR  */
  69:Generated_Source\PSoC5/SPI_adc.c ****     #if(0u != SPI_adc_INTERNAL_TX_INT_ENABLED)
  70:Generated_Source\PSoC5/SPI_adc.c ****         CyIntDisable         (SPI_adc_TX_ISR_NUMBER);
  71:Generated_Source\PSoC5/SPI_adc.c ****         CyIntSetPriority     (SPI_adc_TX_ISR_NUMBER,  SPI_adc_TX_ISR_PRIORITY);
  72:Generated_Source\PSoC5/SPI_adc.c ****         (void) CyIntSetVector(SPI_adc_TX_ISR_NUMBER, &SPI_adc_TX_ISR);
  73:Generated_Source\PSoC5/SPI_adc.c ****     #endif /* (0u != SPI_adc_INTERNAL_TX_INT_ENABLED) */
  74:Generated_Source\PSoC5/SPI_adc.c **** 
ARM GAS  C:\Users\larco\AppData\Local\Temp\ccUwEttB.s 			page 3


  75:Generated_Source\PSoC5/SPI_adc.c ****     /* Init RX ISR  */
  76:Generated_Source\PSoC5/SPI_adc.c ****     #if(0u != SPI_adc_INTERNAL_RX_INT_ENABLED)
  77:Generated_Source\PSoC5/SPI_adc.c ****         CyIntDisable         (SPI_adc_RX_ISR_NUMBER);
  78:Generated_Source\PSoC5/SPI_adc.c ****         CyIntSetPriority     (SPI_adc_RX_ISR_NUMBER,  SPI_adc_RX_ISR_PRIORITY);
  79:Generated_Source\PSoC5/SPI_adc.c ****         (void) CyIntSetVector(SPI_adc_RX_ISR_NUMBER, &SPI_adc_RX_ISR);
  80:Generated_Source\PSoC5/SPI_adc.c ****     #endif /* (0u != SPI_adc_INTERNAL_RX_INT_ENABLED) */
  81:Generated_Source\PSoC5/SPI_adc.c **** 
  82:Generated_Source\PSoC5/SPI_adc.c ****     /* Clear any stray data from the RX and TX FIFO */
  83:Generated_Source\PSoC5/SPI_adc.c ****     SPI_adc_ClearFIFO();
  84:Generated_Source\PSoC5/SPI_adc.c **** 
  85:Generated_Source\PSoC5/SPI_adc.c ****     #if(SPI_adc_RX_SOFTWARE_BUF_ENABLED)
  86:Generated_Source\PSoC5/SPI_adc.c ****         SPI_adc_rxBufferFull  = 0u;
  87:Generated_Source\PSoC5/SPI_adc.c ****         SPI_adc_rxBufferRead  = 0u;
  88:Generated_Source\PSoC5/SPI_adc.c ****         SPI_adc_rxBufferWrite = 0u;
  89:Generated_Source\PSoC5/SPI_adc.c ****     #endif /* (SPI_adc_RX_SOFTWARE_BUF_ENABLED) */
  90:Generated_Source\PSoC5/SPI_adc.c **** 
  91:Generated_Source\PSoC5/SPI_adc.c ****     #if(SPI_adc_TX_SOFTWARE_BUF_ENABLED)
  92:Generated_Source\PSoC5/SPI_adc.c ****         SPI_adc_txBufferFull  = 0u;
  93:Generated_Source\PSoC5/SPI_adc.c ****         SPI_adc_txBufferRead  = 0u;
  94:Generated_Source\PSoC5/SPI_adc.c ****         SPI_adc_txBufferWrite = 0u;
  95:Generated_Source\PSoC5/SPI_adc.c ****     #endif /* (SPI_adc_TX_SOFTWARE_BUF_ENABLED) */
  96:Generated_Source\PSoC5/SPI_adc.c **** 
  97:Generated_Source\PSoC5/SPI_adc.c ****     (void) SPI_adc_ReadTxStatus(); /* Clear Tx status and swStatusTx */
  98:Generated_Source\PSoC5/SPI_adc.c ****     (void) SPI_adc_ReadRxStatus(); /* Clear Rx status and swStatusRx */
  99:Generated_Source\PSoC5/SPI_adc.c **** 
 100:Generated_Source\PSoC5/SPI_adc.c ****     /* Configure TX and RX interrupt mask */
 101:Generated_Source\PSoC5/SPI_adc.c ****     SPI_adc_TX_STATUS_MASK_REG = SPI_adc_TX_INIT_INTERRUPTS_MASK;
 102:Generated_Source\PSoC5/SPI_adc.c ****     SPI_adc_RX_STATUS_MASK_REG = SPI_adc_RX_INIT_INTERRUPTS_MASK;
 103:Generated_Source\PSoC5/SPI_adc.c **** }
 104:Generated_Source\PSoC5/SPI_adc.c **** 
 105:Generated_Source\PSoC5/SPI_adc.c **** 
 106:Generated_Source\PSoC5/SPI_adc.c **** /*******************************************************************************
 107:Generated_Source\PSoC5/SPI_adc.c **** * Function Name: SPI_adc_Enable
 108:Generated_Source\PSoC5/SPI_adc.c **** ********************************************************************************
 109:Generated_Source\PSoC5/SPI_adc.c **** *
 110:Generated_Source\PSoC5/SPI_adc.c **** * Summary:
 111:Generated_Source\PSoC5/SPI_adc.c **** *  Enable SPIM component.
 112:Generated_Source\PSoC5/SPI_adc.c **** *
 113:Generated_Source\PSoC5/SPI_adc.c **** * Parameters:
 114:Generated_Source\PSoC5/SPI_adc.c **** *  None.
 115:Generated_Source\PSoC5/SPI_adc.c **** *
 116:Generated_Source\PSoC5/SPI_adc.c **** * Return:
 117:Generated_Source\PSoC5/SPI_adc.c **** *  None.
 118:Generated_Source\PSoC5/SPI_adc.c **** *
 119:Generated_Source\PSoC5/SPI_adc.c **** *******************************************************************************/
 120:Generated_Source\PSoC5/SPI_adc.c **** void SPI_adc_Enable(void) 
 121:Generated_Source\PSoC5/SPI_adc.c **** {
 122:Generated_Source\PSoC5/SPI_adc.c ****     uint8 enableInterrupts;
 123:Generated_Source\PSoC5/SPI_adc.c **** 
 124:Generated_Source\PSoC5/SPI_adc.c ****     enableInterrupts = CyEnterCriticalSection();
 125:Generated_Source\PSoC5/SPI_adc.c ****     SPI_adc_COUNTER_CONTROL_REG |= SPI_adc_CNTR_ENABLE;
 126:Generated_Source\PSoC5/SPI_adc.c ****     SPI_adc_TX_STATUS_ACTL_REG  |= SPI_adc_INT_ENABLE;
 127:Generated_Source\PSoC5/SPI_adc.c ****     SPI_adc_RX_STATUS_ACTL_REG  |= SPI_adc_INT_ENABLE;
 128:Generated_Source\PSoC5/SPI_adc.c ****     CyExitCriticalSection(enableInterrupts);
 129:Generated_Source\PSoC5/SPI_adc.c **** 
 130:Generated_Source\PSoC5/SPI_adc.c ****     #if(0u != SPI_adc_INTERNAL_CLOCK)
 131:Generated_Source\PSoC5/SPI_adc.c ****         SPI_adc_IntClock_Enable();
ARM GAS  C:\Users\larco\AppData\Local\Temp\ccUwEttB.s 			page 4


 132:Generated_Source\PSoC5/SPI_adc.c ****     #endif /* (0u != SPI_adc_INTERNAL_CLOCK) */
 133:Generated_Source\PSoC5/SPI_adc.c **** 
 134:Generated_Source\PSoC5/SPI_adc.c ****     SPI_adc_EnableTxInt();
 135:Generated_Source\PSoC5/SPI_adc.c ****     SPI_adc_EnableRxInt();
 136:Generated_Source\PSoC5/SPI_adc.c **** }
 137:Generated_Source\PSoC5/SPI_adc.c **** 
 138:Generated_Source\PSoC5/SPI_adc.c **** 
 139:Generated_Source\PSoC5/SPI_adc.c **** /*******************************************************************************
 140:Generated_Source\PSoC5/SPI_adc.c **** * Function Name: SPI_adc_Start
 141:Generated_Source\PSoC5/SPI_adc.c **** ********************************************************************************
 142:Generated_Source\PSoC5/SPI_adc.c **** *
 143:Generated_Source\PSoC5/SPI_adc.c **** * Summary:
 144:Generated_Source\PSoC5/SPI_adc.c **** *  Initialize and Enable the SPI Master component.
 145:Generated_Source\PSoC5/SPI_adc.c **** *
 146:Generated_Source\PSoC5/SPI_adc.c **** * Parameters:
 147:Generated_Source\PSoC5/SPI_adc.c **** *  None.
 148:Generated_Source\PSoC5/SPI_adc.c **** *
 149:Generated_Source\PSoC5/SPI_adc.c **** * Return:
 150:Generated_Source\PSoC5/SPI_adc.c **** *  None.
 151:Generated_Source\PSoC5/SPI_adc.c **** *
 152:Generated_Source\PSoC5/SPI_adc.c **** * Global variables:
 153:Generated_Source\PSoC5/SPI_adc.c **** *  SPI_adc_initVar - used to check initial configuration, modified on
 154:Generated_Source\PSoC5/SPI_adc.c **** *  first function call.
 155:Generated_Source\PSoC5/SPI_adc.c **** *
 156:Generated_Source\PSoC5/SPI_adc.c **** * Theory:
 157:Generated_Source\PSoC5/SPI_adc.c **** *  Enable the clock input to enable operation.
 158:Generated_Source\PSoC5/SPI_adc.c **** *
 159:Generated_Source\PSoC5/SPI_adc.c **** * Reentrant:
 160:Generated_Source\PSoC5/SPI_adc.c **** *  No.
 161:Generated_Source\PSoC5/SPI_adc.c **** *
 162:Generated_Source\PSoC5/SPI_adc.c **** *******************************************************************************/
 163:Generated_Source\PSoC5/SPI_adc.c **** void SPI_adc_Start(void) 
 164:Generated_Source\PSoC5/SPI_adc.c **** {
 165:Generated_Source\PSoC5/SPI_adc.c ****     if(0u == SPI_adc_initVar)
 166:Generated_Source\PSoC5/SPI_adc.c ****     {
 167:Generated_Source\PSoC5/SPI_adc.c ****         SPI_adc_Init();
 168:Generated_Source\PSoC5/SPI_adc.c ****         SPI_adc_initVar = 1u;
 169:Generated_Source\PSoC5/SPI_adc.c ****     }
 170:Generated_Source\PSoC5/SPI_adc.c **** 
 171:Generated_Source\PSoC5/SPI_adc.c ****     SPI_adc_Enable();
 172:Generated_Source\PSoC5/SPI_adc.c **** }
 173:Generated_Source\PSoC5/SPI_adc.c **** 
 174:Generated_Source\PSoC5/SPI_adc.c **** 
 175:Generated_Source\PSoC5/SPI_adc.c **** /*******************************************************************************
 176:Generated_Source\PSoC5/SPI_adc.c **** * Function Name: SPI_adc_Stop
 177:Generated_Source\PSoC5/SPI_adc.c **** ********************************************************************************
 178:Generated_Source\PSoC5/SPI_adc.c **** *
 179:Generated_Source\PSoC5/SPI_adc.c **** * Summary:
 180:Generated_Source\PSoC5/SPI_adc.c **** *  Disable the SPI Master component.
 181:Generated_Source\PSoC5/SPI_adc.c **** *
 182:Generated_Source\PSoC5/SPI_adc.c **** * Parameters:
 183:Generated_Source\PSoC5/SPI_adc.c **** *  None.
 184:Generated_Source\PSoC5/SPI_adc.c **** *
 185:Generated_Source\PSoC5/SPI_adc.c **** * Return:
 186:Generated_Source\PSoC5/SPI_adc.c **** *  None.
 187:Generated_Source\PSoC5/SPI_adc.c **** *
 188:Generated_Source\PSoC5/SPI_adc.c **** * Theory:
ARM GAS  C:\Users\larco\AppData\Local\Temp\ccUwEttB.s 			page 5


 189:Generated_Source\PSoC5/SPI_adc.c **** *  Disable the clock input to enable operation.
 190:Generated_Source\PSoC5/SPI_adc.c **** *
 191:Generated_Source\PSoC5/SPI_adc.c **** *******************************************************************************/
 192:Generated_Source\PSoC5/SPI_adc.c **** void SPI_adc_Stop(void) 
 193:Generated_Source\PSoC5/SPI_adc.c **** {
 194:Generated_Source\PSoC5/SPI_adc.c ****     uint8 enableInterrupts;
 195:Generated_Source\PSoC5/SPI_adc.c **** 
 196:Generated_Source\PSoC5/SPI_adc.c ****     enableInterrupts = CyEnterCriticalSection();
 197:Generated_Source\PSoC5/SPI_adc.c ****     SPI_adc_TX_STATUS_ACTL_REG &= ((uint8) ~SPI_adc_INT_ENABLE);
 198:Generated_Source\PSoC5/SPI_adc.c ****     SPI_adc_RX_STATUS_ACTL_REG &= ((uint8) ~SPI_adc_INT_ENABLE);
 199:Generated_Source\PSoC5/SPI_adc.c ****     CyExitCriticalSection(enableInterrupts);
 200:Generated_Source\PSoC5/SPI_adc.c **** 
 201:Generated_Source\PSoC5/SPI_adc.c ****     #if(0u != SPI_adc_INTERNAL_CLOCK)
 202:Generated_Source\PSoC5/SPI_adc.c ****         SPI_adc_IntClock_Disable();
 203:Generated_Source\PSoC5/SPI_adc.c ****     #endif /* (0u != SPI_adc_INTERNAL_CLOCK) */
 204:Generated_Source\PSoC5/SPI_adc.c **** 
 205:Generated_Source\PSoC5/SPI_adc.c ****     SPI_adc_DisableTxInt();
 206:Generated_Source\PSoC5/SPI_adc.c ****     SPI_adc_DisableRxInt();
 207:Generated_Source\PSoC5/SPI_adc.c **** }
 208:Generated_Source\PSoC5/SPI_adc.c **** 
 209:Generated_Source\PSoC5/SPI_adc.c **** 
 210:Generated_Source\PSoC5/SPI_adc.c **** /*******************************************************************************
 211:Generated_Source\PSoC5/SPI_adc.c **** * Function Name: SPI_adc_EnableTxInt
 212:Generated_Source\PSoC5/SPI_adc.c **** ********************************************************************************
 213:Generated_Source\PSoC5/SPI_adc.c **** *
 214:Generated_Source\PSoC5/SPI_adc.c **** * Summary:
 215:Generated_Source\PSoC5/SPI_adc.c **** *  Enable internal Tx interrupt generation.
 216:Generated_Source\PSoC5/SPI_adc.c **** *
 217:Generated_Source\PSoC5/SPI_adc.c **** * Parameters:
 218:Generated_Source\PSoC5/SPI_adc.c **** *  None.
 219:Generated_Source\PSoC5/SPI_adc.c **** *
 220:Generated_Source\PSoC5/SPI_adc.c **** * Return:
 221:Generated_Source\PSoC5/SPI_adc.c **** *  None.
 222:Generated_Source\PSoC5/SPI_adc.c **** *
 223:Generated_Source\PSoC5/SPI_adc.c **** * Theory:
 224:Generated_Source\PSoC5/SPI_adc.c **** *  Enable the internal Tx interrupt output -or- the interrupt component itself.
 225:Generated_Source\PSoC5/SPI_adc.c **** *
 226:Generated_Source\PSoC5/SPI_adc.c **** *******************************************************************************/
 227:Generated_Source\PSoC5/SPI_adc.c **** void SPI_adc_EnableTxInt(void) 
 228:Generated_Source\PSoC5/SPI_adc.c **** {
 229:Generated_Source\PSoC5/SPI_adc.c ****     #if(0u != SPI_adc_INTERNAL_TX_INT_ENABLED)
 230:Generated_Source\PSoC5/SPI_adc.c ****         CyIntEnable(SPI_adc_TX_ISR_NUMBER);
 231:Generated_Source\PSoC5/SPI_adc.c ****     #endif /* (0u != SPI_adc_INTERNAL_TX_INT_ENABLED) */
 232:Generated_Source\PSoC5/SPI_adc.c **** }
 233:Generated_Source\PSoC5/SPI_adc.c **** 
 234:Generated_Source\PSoC5/SPI_adc.c **** 
 235:Generated_Source\PSoC5/SPI_adc.c **** /*******************************************************************************
 236:Generated_Source\PSoC5/SPI_adc.c **** * Function Name: SPI_adc_EnableRxInt
 237:Generated_Source\PSoC5/SPI_adc.c **** ********************************************************************************
 238:Generated_Source\PSoC5/SPI_adc.c **** *
 239:Generated_Source\PSoC5/SPI_adc.c **** * Summary:
 240:Generated_Source\PSoC5/SPI_adc.c **** *  Enable internal Rx interrupt generation.
 241:Generated_Source\PSoC5/SPI_adc.c **** *
 242:Generated_Source\PSoC5/SPI_adc.c **** * Parameters:
 243:Generated_Source\PSoC5/SPI_adc.c **** *  None.
 244:Generated_Source\PSoC5/SPI_adc.c **** *
 245:Generated_Source\PSoC5/SPI_adc.c **** * Return:
ARM GAS  C:\Users\larco\AppData\Local\Temp\ccUwEttB.s 			page 6


 246:Generated_Source\PSoC5/SPI_adc.c **** *  None.
 247:Generated_Source\PSoC5/SPI_adc.c **** *
 248:Generated_Source\PSoC5/SPI_adc.c **** * Theory:
 249:Generated_Source\PSoC5/SPI_adc.c **** *  Enable the internal Rx interrupt output -or- the interrupt component itself.
 250:Generated_Source\PSoC5/SPI_adc.c **** *
 251:Generated_Source\PSoC5/SPI_adc.c **** *******************************************************************************/
 252:Generated_Source\PSoC5/SPI_adc.c **** void SPI_adc_EnableRxInt(void) 
 253:Generated_Source\PSoC5/SPI_adc.c **** {
 254:Generated_Source\PSoC5/SPI_adc.c ****     #if(0u != SPI_adc_INTERNAL_RX_INT_ENABLED)
 255:Generated_Source\PSoC5/SPI_adc.c ****         CyIntEnable(SPI_adc_RX_ISR_NUMBER);
 256:Generated_Source\PSoC5/SPI_adc.c ****     #endif /* (0u != SPI_adc_INTERNAL_RX_INT_ENABLED) */
 257:Generated_Source\PSoC5/SPI_adc.c **** }
 258:Generated_Source\PSoC5/SPI_adc.c **** 
 259:Generated_Source\PSoC5/SPI_adc.c **** 
 260:Generated_Source\PSoC5/SPI_adc.c **** /*******************************************************************************
 261:Generated_Source\PSoC5/SPI_adc.c **** * Function Name: SPI_adc_DisableTxInt
 262:Generated_Source\PSoC5/SPI_adc.c **** ********************************************************************************
 263:Generated_Source\PSoC5/SPI_adc.c **** *
 264:Generated_Source\PSoC5/SPI_adc.c **** * Summary:
 265:Generated_Source\PSoC5/SPI_adc.c **** *  Disable internal Tx interrupt generation.
 266:Generated_Source\PSoC5/SPI_adc.c **** *
 267:Generated_Source\PSoC5/SPI_adc.c **** * Parameters:
 268:Generated_Source\PSoC5/SPI_adc.c **** *  None.
 269:Generated_Source\PSoC5/SPI_adc.c **** *
 270:Generated_Source\PSoC5/SPI_adc.c **** * Return:
 271:Generated_Source\PSoC5/SPI_adc.c **** *  None.
 272:Generated_Source\PSoC5/SPI_adc.c **** *
 273:Generated_Source\PSoC5/SPI_adc.c **** * Theory:
 274:Generated_Source\PSoC5/SPI_adc.c **** *  Disable the internal Tx interrupt output -or- the interrupt component itself.
 275:Generated_Source\PSoC5/SPI_adc.c **** *
 276:Generated_Source\PSoC5/SPI_adc.c **** *******************************************************************************/
 277:Generated_Source\PSoC5/SPI_adc.c **** void SPI_adc_DisableTxInt(void) 
 278:Generated_Source\PSoC5/SPI_adc.c **** {
 279:Generated_Source\PSoC5/SPI_adc.c ****     #if(0u != SPI_adc_INTERNAL_TX_INT_ENABLED)
 280:Generated_Source\PSoC5/SPI_adc.c ****         CyIntDisable(SPI_adc_TX_ISR_NUMBER);
 281:Generated_Source\PSoC5/SPI_adc.c ****     #endif /* (0u != SPI_adc_INTERNAL_TX_INT_ENABLED) */
 282:Generated_Source\PSoC5/SPI_adc.c **** }
 283:Generated_Source\PSoC5/SPI_adc.c **** 
 284:Generated_Source\PSoC5/SPI_adc.c **** 
 285:Generated_Source\PSoC5/SPI_adc.c **** /*******************************************************************************
 286:Generated_Source\PSoC5/SPI_adc.c **** * Function Name: SPI_adc_DisableRxInt
 287:Generated_Source\PSoC5/SPI_adc.c **** ********************************************************************************
 288:Generated_Source\PSoC5/SPI_adc.c **** *
 289:Generated_Source\PSoC5/SPI_adc.c **** * Summary:
 290:Generated_Source\PSoC5/SPI_adc.c **** *  Disable internal Rx interrupt generation.
 291:Generated_Source\PSoC5/SPI_adc.c **** *
 292:Generated_Source\PSoC5/SPI_adc.c **** * Parameters:
 293:Generated_Source\PSoC5/SPI_adc.c **** *  None.
 294:Generated_Source\PSoC5/SPI_adc.c **** *
 295:Generated_Source\PSoC5/SPI_adc.c **** * Return:
 296:Generated_Source\PSoC5/SPI_adc.c **** *  None.
 297:Generated_Source\PSoC5/SPI_adc.c **** *
 298:Generated_Source\PSoC5/SPI_adc.c **** * Theory:
 299:Generated_Source\PSoC5/SPI_adc.c **** *  Disable the internal Rx interrupt output -or- the interrupt component itself.
 300:Generated_Source\PSoC5/SPI_adc.c **** *
 301:Generated_Source\PSoC5/SPI_adc.c **** *******************************************************************************/
 302:Generated_Source\PSoC5/SPI_adc.c **** void SPI_adc_DisableRxInt(void) 
ARM GAS  C:\Users\larco\AppData\Local\Temp\ccUwEttB.s 			page 7


 303:Generated_Source\PSoC5/SPI_adc.c **** {
 304:Generated_Source\PSoC5/SPI_adc.c ****     #if(0u != SPI_adc_INTERNAL_RX_INT_ENABLED)
 305:Generated_Source\PSoC5/SPI_adc.c ****         CyIntDisable(SPI_adc_RX_ISR_NUMBER);
 306:Generated_Source\PSoC5/SPI_adc.c ****     #endif /* (0u != SPI_adc_INTERNAL_RX_INT_ENABLED) */
 307:Generated_Source\PSoC5/SPI_adc.c **** }
 308:Generated_Source\PSoC5/SPI_adc.c **** 
 309:Generated_Source\PSoC5/SPI_adc.c **** 
 310:Generated_Source\PSoC5/SPI_adc.c **** /*******************************************************************************
 311:Generated_Source\PSoC5/SPI_adc.c **** * Function Name: SPI_adc_SetTxInterruptMode
 312:Generated_Source\PSoC5/SPI_adc.c **** ********************************************************************************
 313:Generated_Source\PSoC5/SPI_adc.c **** *
 314:Generated_Source\PSoC5/SPI_adc.c **** * Summary:
 315:Generated_Source\PSoC5/SPI_adc.c **** *  Configure which status bits trigger an interrupt event.
 316:Generated_Source\PSoC5/SPI_adc.c **** *
 317:Generated_Source\PSoC5/SPI_adc.c **** * Parameters:
 318:Generated_Source\PSoC5/SPI_adc.c **** *  intSrc: An or'd combination of the desired status bit masks (defined in the
 319:Generated_Source\PSoC5/SPI_adc.c **** *  header file).
 320:Generated_Source\PSoC5/SPI_adc.c **** *
 321:Generated_Source\PSoC5/SPI_adc.c **** * Return:
 322:Generated_Source\PSoC5/SPI_adc.c **** *  None.
 323:Generated_Source\PSoC5/SPI_adc.c **** *
 324:Generated_Source\PSoC5/SPI_adc.c **** * Theory:
 325:Generated_Source\PSoC5/SPI_adc.c **** *  Enables the output of specific status bits to the interrupt controller.
 326:Generated_Source\PSoC5/SPI_adc.c **** *
 327:Generated_Source\PSoC5/SPI_adc.c **** *******************************************************************************/
 328:Generated_Source\PSoC5/SPI_adc.c **** void SPI_adc_SetTxInterruptMode(uint8 intSrc) 
 329:Generated_Source\PSoC5/SPI_adc.c **** {
 330:Generated_Source\PSoC5/SPI_adc.c ****     SPI_adc_TX_STATUS_MASK_REG = intSrc;
 331:Generated_Source\PSoC5/SPI_adc.c **** }
 332:Generated_Source\PSoC5/SPI_adc.c **** 
 333:Generated_Source\PSoC5/SPI_adc.c **** 
 334:Generated_Source\PSoC5/SPI_adc.c **** /*******************************************************************************
 335:Generated_Source\PSoC5/SPI_adc.c **** * Function Name: SPI_adc_SetRxInterruptMode
 336:Generated_Source\PSoC5/SPI_adc.c **** ********************************************************************************
 337:Generated_Source\PSoC5/SPI_adc.c **** *
 338:Generated_Source\PSoC5/SPI_adc.c **** * Summary:
 339:Generated_Source\PSoC5/SPI_adc.c **** *  Configure which status bits trigger an interrupt event.
 340:Generated_Source\PSoC5/SPI_adc.c **** *
 341:Generated_Source\PSoC5/SPI_adc.c **** * Parameters:
 342:Generated_Source\PSoC5/SPI_adc.c **** *  intSrc: An or'd combination of the desired status bit masks (defined in the
 343:Generated_Source\PSoC5/SPI_adc.c **** *  header file).
 344:Generated_Source\PSoC5/SPI_adc.c **** *
 345:Generated_Source\PSoC5/SPI_adc.c **** * Return:
 346:Generated_Source\PSoC5/SPI_adc.c **** *  None.
 347:Generated_Source\PSoC5/SPI_adc.c **** *
 348:Generated_Source\PSoC5/SPI_adc.c **** * Theory:
 349:Generated_Source\PSoC5/SPI_adc.c **** *  Enables the output of specific status bits to the interrupt controller.
 350:Generated_Source\PSoC5/SPI_adc.c **** *
 351:Generated_Source\PSoC5/SPI_adc.c **** *******************************************************************************/
 352:Generated_Source\PSoC5/SPI_adc.c **** void SPI_adc_SetRxInterruptMode(uint8 intSrc) 
 353:Generated_Source\PSoC5/SPI_adc.c **** {
 354:Generated_Source\PSoC5/SPI_adc.c ****     SPI_adc_RX_STATUS_MASK_REG  = intSrc;
 355:Generated_Source\PSoC5/SPI_adc.c **** }
 356:Generated_Source\PSoC5/SPI_adc.c **** 
 357:Generated_Source\PSoC5/SPI_adc.c **** 
 358:Generated_Source\PSoC5/SPI_adc.c **** /*******************************************************************************
 359:Generated_Source\PSoC5/SPI_adc.c **** * Function Name: SPI_adc_ReadTxStatus
ARM GAS  C:\Users\larco\AppData\Local\Temp\ccUwEttB.s 			page 8


 360:Generated_Source\PSoC5/SPI_adc.c **** ********************************************************************************
 361:Generated_Source\PSoC5/SPI_adc.c **** *
 362:Generated_Source\PSoC5/SPI_adc.c **** * Summary:
 363:Generated_Source\PSoC5/SPI_adc.c **** *  Read the Tx status register for the component.
 364:Generated_Source\PSoC5/SPI_adc.c **** *
 365:Generated_Source\PSoC5/SPI_adc.c **** * Parameters:
 366:Generated_Source\PSoC5/SPI_adc.c **** *  None.
 367:Generated_Source\PSoC5/SPI_adc.c **** *
 368:Generated_Source\PSoC5/SPI_adc.c **** * Return:
 369:Generated_Source\PSoC5/SPI_adc.c **** *  Contents of the Tx status register.
 370:Generated_Source\PSoC5/SPI_adc.c **** *
 371:Generated_Source\PSoC5/SPI_adc.c **** * Global variables:
 372:Generated_Source\PSoC5/SPI_adc.c **** *  SPI_adc_swStatusTx - used to store in software status register,
 373:Generated_Source\PSoC5/SPI_adc.c **** *  modified every function call - resets to zero.
 374:Generated_Source\PSoC5/SPI_adc.c **** *
 375:Generated_Source\PSoC5/SPI_adc.c **** * Theory:
 376:Generated_Source\PSoC5/SPI_adc.c **** *  Allows the user and the API to read the Tx status register for error
 377:Generated_Source\PSoC5/SPI_adc.c **** *  detection and flow control.
 378:Generated_Source\PSoC5/SPI_adc.c **** *
 379:Generated_Source\PSoC5/SPI_adc.c **** * Side Effects:
 380:Generated_Source\PSoC5/SPI_adc.c **** *  Clear Tx status register of the component.
 381:Generated_Source\PSoC5/SPI_adc.c **** *
 382:Generated_Source\PSoC5/SPI_adc.c **** * Reentrant:
 383:Generated_Source\PSoC5/SPI_adc.c **** *  No.
 384:Generated_Source\PSoC5/SPI_adc.c **** *
 385:Generated_Source\PSoC5/SPI_adc.c **** *******************************************************************************/
 386:Generated_Source\PSoC5/SPI_adc.c **** uint8 SPI_adc_ReadTxStatus(void) 
 387:Generated_Source\PSoC5/SPI_adc.c **** {
 388:Generated_Source\PSoC5/SPI_adc.c ****     uint8 tmpStatus;
 389:Generated_Source\PSoC5/SPI_adc.c **** 
 390:Generated_Source\PSoC5/SPI_adc.c ****     #if(SPI_adc_TX_SOFTWARE_BUF_ENABLED)
 391:Generated_Source\PSoC5/SPI_adc.c ****         /* Disable TX interrupt to protect global veriables */
 392:Generated_Source\PSoC5/SPI_adc.c ****         SPI_adc_DisableTxInt();
 393:Generated_Source\PSoC5/SPI_adc.c **** 
 394:Generated_Source\PSoC5/SPI_adc.c ****         tmpStatus = SPI_adc_GET_STATUS_TX(SPI_adc_swStatusTx);
 395:Generated_Source\PSoC5/SPI_adc.c ****         SPI_adc_swStatusTx = 0u;
 396:Generated_Source\PSoC5/SPI_adc.c **** 
 397:Generated_Source\PSoC5/SPI_adc.c ****         SPI_adc_EnableTxInt();
 398:Generated_Source\PSoC5/SPI_adc.c **** 
 399:Generated_Source\PSoC5/SPI_adc.c ****     #else
 400:Generated_Source\PSoC5/SPI_adc.c **** 
 401:Generated_Source\PSoC5/SPI_adc.c ****         tmpStatus = SPI_adc_TX_STATUS_REG;
 402:Generated_Source\PSoC5/SPI_adc.c **** 
 403:Generated_Source\PSoC5/SPI_adc.c ****     #endif /* (SPI_adc_TX_SOFTWARE_BUF_ENABLED) */
 404:Generated_Source\PSoC5/SPI_adc.c **** 
 405:Generated_Source\PSoC5/SPI_adc.c ****     return(tmpStatus);
 406:Generated_Source\PSoC5/SPI_adc.c **** }
 407:Generated_Source\PSoC5/SPI_adc.c **** 
 408:Generated_Source\PSoC5/SPI_adc.c **** 
 409:Generated_Source\PSoC5/SPI_adc.c **** /*******************************************************************************
 410:Generated_Source\PSoC5/SPI_adc.c **** * Function Name: SPI_adc_ReadRxStatus
 411:Generated_Source\PSoC5/SPI_adc.c **** ********************************************************************************
 412:Generated_Source\PSoC5/SPI_adc.c **** *
 413:Generated_Source\PSoC5/SPI_adc.c **** * Summary:
 414:Generated_Source\PSoC5/SPI_adc.c **** *  Read the Rx status register for the component.
 415:Generated_Source\PSoC5/SPI_adc.c **** *
 416:Generated_Source\PSoC5/SPI_adc.c **** * Parameters:
ARM GAS  C:\Users\larco\AppData\Local\Temp\ccUwEttB.s 			page 9


 417:Generated_Source\PSoC5/SPI_adc.c **** *  None.
 418:Generated_Source\PSoC5/SPI_adc.c **** *
 419:Generated_Source\PSoC5/SPI_adc.c **** * Return:
 420:Generated_Source\PSoC5/SPI_adc.c **** *  Contents of the Rx status register.
 421:Generated_Source\PSoC5/SPI_adc.c **** *
 422:Generated_Source\PSoC5/SPI_adc.c **** * Global variables:
 423:Generated_Source\PSoC5/SPI_adc.c **** *  SPI_adc_swStatusRx - used to store in software Rx status register,
 424:Generated_Source\PSoC5/SPI_adc.c **** *  modified every function call - resets to zero.
 425:Generated_Source\PSoC5/SPI_adc.c **** *
 426:Generated_Source\PSoC5/SPI_adc.c **** * Theory:
 427:Generated_Source\PSoC5/SPI_adc.c **** *  Allows the user and the API to read the Rx status register for error
 428:Generated_Source\PSoC5/SPI_adc.c **** *  detection and flow control.
 429:Generated_Source\PSoC5/SPI_adc.c **** *
 430:Generated_Source\PSoC5/SPI_adc.c **** * Side Effects:
 431:Generated_Source\PSoC5/SPI_adc.c **** *  Clear Rx status register of the component.
 432:Generated_Source\PSoC5/SPI_adc.c **** *
 433:Generated_Source\PSoC5/SPI_adc.c **** * Reentrant:
 434:Generated_Source\PSoC5/SPI_adc.c **** *  No.
 435:Generated_Source\PSoC5/SPI_adc.c **** *
 436:Generated_Source\PSoC5/SPI_adc.c **** *******************************************************************************/
 437:Generated_Source\PSoC5/SPI_adc.c **** uint8 SPI_adc_ReadRxStatus(void) 
 438:Generated_Source\PSoC5/SPI_adc.c **** {
 439:Generated_Source\PSoC5/SPI_adc.c ****     uint8 tmpStatus;
 440:Generated_Source\PSoC5/SPI_adc.c **** 
 441:Generated_Source\PSoC5/SPI_adc.c ****     #if(SPI_adc_RX_SOFTWARE_BUF_ENABLED)
 442:Generated_Source\PSoC5/SPI_adc.c ****         /* Disable RX interrupt to protect global veriables */
 443:Generated_Source\PSoC5/SPI_adc.c ****         SPI_adc_DisableRxInt();
 444:Generated_Source\PSoC5/SPI_adc.c **** 
 445:Generated_Source\PSoC5/SPI_adc.c ****         tmpStatus = SPI_adc_GET_STATUS_RX(SPI_adc_swStatusRx);
 446:Generated_Source\PSoC5/SPI_adc.c ****         SPI_adc_swStatusRx = 0u;
 447:Generated_Source\PSoC5/SPI_adc.c **** 
 448:Generated_Source\PSoC5/SPI_adc.c ****         SPI_adc_EnableRxInt();
 449:Generated_Source\PSoC5/SPI_adc.c **** 
 450:Generated_Source\PSoC5/SPI_adc.c ****     #else
 451:Generated_Source\PSoC5/SPI_adc.c **** 
 452:Generated_Source\PSoC5/SPI_adc.c ****         tmpStatus = SPI_adc_RX_STATUS_REG;
 453:Generated_Source\PSoC5/SPI_adc.c **** 
 454:Generated_Source\PSoC5/SPI_adc.c ****     #endif /* (SPI_adc_RX_SOFTWARE_BUF_ENABLED) */
 455:Generated_Source\PSoC5/SPI_adc.c **** 
 456:Generated_Source\PSoC5/SPI_adc.c ****     return(tmpStatus);
 457:Generated_Source\PSoC5/SPI_adc.c **** }
 458:Generated_Source\PSoC5/SPI_adc.c **** 
 459:Generated_Source\PSoC5/SPI_adc.c **** 
 460:Generated_Source\PSoC5/SPI_adc.c **** /*******************************************************************************
 461:Generated_Source\PSoC5/SPI_adc.c **** * Function Name: SPI_adc_WriteTxData
 462:Generated_Source\PSoC5/SPI_adc.c **** ********************************************************************************
 463:Generated_Source\PSoC5/SPI_adc.c **** *
 464:Generated_Source\PSoC5/SPI_adc.c **** * Summary:
 465:Generated_Source\PSoC5/SPI_adc.c **** *  Write a byte of data to be sent across the SPI.
 466:Generated_Source\PSoC5/SPI_adc.c **** *
 467:Generated_Source\PSoC5/SPI_adc.c **** * Parameters:
 468:Generated_Source\PSoC5/SPI_adc.c **** *  txDataByte: The data value to send across the SPI.
 469:Generated_Source\PSoC5/SPI_adc.c **** *
 470:Generated_Source\PSoC5/SPI_adc.c **** * Return:
 471:Generated_Source\PSoC5/SPI_adc.c **** *  None.
 472:Generated_Source\PSoC5/SPI_adc.c **** *
 473:Generated_Source\PSoC5/SPI_adc.c **** * Global variables:
ARM GAS  C:\Users\larco\AppData\Local\Temp\ccUwEttB.s 			page 10


 474:Generated_Source\PSoC5/SPI_adc.c **** *  SPI_adc_txBufferWrite - used for the account of the bytes which
 475:Generated_Source\PSoC5/SPI_adc.c **** *  have been written down in the TX software buffer, modified every function
 476:Generated_Source\PSoC5/SPI_adc.c **** *  call if TX Software Buffer is used.
 477:Generated_Source\PSoC5/SPI_adc.c **** *  SPI_adc_txBufferRead - used for the account of the bytes which
 478:Generated_Source\PSoC5/SPI_adc.c **** *  have been read from the TX software buffer.
 479:Generated_Source\PSoC5/SPI_adc.c **** *  SPI_adc_txBuffer[SPI_adc_TX_BUFFER_SIZE] - used to store
 480:Generated_Source\PSoC5/SPI_adc.c **** *  data to sending, modified every function call if TX Software Buffer is used.
 481:Generated_Source\PSoC5/SPI_adc.c **** *
 482:Generated_Source\PSoC5/SPI_adc.c **** * Theory:
 483:Generated_Source\PSoC5/SPI_adc.c **** *  Allows the user to transmit any byte of data in a single transfer.
 484:Generated_Source\PSoC5/SPI_adc.c **** *
 485:Generated_Source\PSoC5/SPI_adc.c **** * Side Effects:
 486:Generated_Source\PSoC5/SPI_adc.c **** *  If this function is called again before the previous byte is finished then
 487:Generated_Source\PSoC5/SPI_adc.c **** *  the next byte will be appended to the transfer with no time between
 488:Generated_Source\PSoC5/SPI_adc.c **** *  the byte transfers. Clear Tx status register of the component.
 489:Generated_Source\PSoC5/SPI_adc.c **** *
 490:Generated_Source\PSoC5/SPI_adc.c **** * Reentrant:
 491:Generated_Source\PSoC5/SPI_adc.c **** *  No.
 492:Generated_Source\PSoC5/SPI_adc.c **** *
 493:Generated_Source\PSoC5/SPI_adc.c **** *******************************************************************************/
 494:Generated_Source\PSoC5/SPI_adc.c **** void SPI_adc_WriteTxData(uint8 txData) 
 495:Generated_Source\PSoC5/SPI_adc.c **** {
 496:Generated_Source\PSoC5/SPI_adc.c ****     #if(SPI_adc_TX_SOFTWARE_BUF_ENABLED)
 497:Generated_Source\PSoC5/SPI_adc.c **** 
 498:Generated_Source\PSoC5/SPI_adc.c ****         uint8 tempStatus;
 499:Generated_Source\PSoC5/SPI_adc.c ****         uint8 tmpTxBufferRead;
 500:Generated_Source\PSoC5/SPI_adc.c **** 
 501:Generated_Source\PSoC5/SPI_adc.c ****         /* Block if TX buffer is FULL: don't overwrite */
 502:Generated_Source\PSoC5/SPI_adc.c ****         do
 503:Generated_Source\PSoC5/SPI_adc.c ****         {
 504:Generated_Source\PSoC5/SPI_adc.c ****             tmpTxBufferRead = SPI_adc_txBufferRead;
 505:Generated_Source\PSoC5/SPI_adc.c ****             if(0u == tmpTxBufferRead)
 506:Generated_Source\PSoC5/SPI_adc.c ****             {
 507:Generated_Source\PSoC5/SPI_adc.c ****                 tmpTxBufferRead = (SPI_adc_TX_BUFFER_SIZE - 1u);
 508:Generated_Source\PSoC5/SPI_adc.c ****             }
 509:Generated_Source\PSoC5/SPI_adc.c ****             else
 510:Generated_Source\PSoC5/SPI_adc.c ****             {
 511:Generated_Source\PSoC5/SPI_adc.c ****                 tmpTxBufferRead--;
 512:Generated_Source\PSoC5/SPI_adc.c ****             }
 513:Generated_Source\PSoC5/SPI_adc.c **** 
 514:Generated_Source\PSoC5/SPI_adc.c ****         }while(tmpTxBufferRead == SPI_adc_txBufferWrite);
 515:Generated_Source\PSoC5/SPI_adc.c **** 
 516:Generated_Source\PSoC5/SPI_adc.c ****         /* Disable TX interrupt to protect global veriables */
 517:Generated_Source\PSoC5/SPI_adc.c ****         SPI_adc_DisableTxInt();
 518:Generated_Source\PSoC5/SPI_adc.c **** 
 519:Generated_Source\PSoC5/SPI_adc.c ****         tempStatus = SPI_adc_GET_STATUS_TX(SPI_adc_swStatusTx);
 520:Generated_Source\PSoC5/SPI_adc.c ****         SPI_adc_swStatusTx = tempStatus;
 521:Generated_Source\PSoC5/SPI_adc.c **** 
 522:Generated_Source\PSoC5/SPI_adc.c **** 
 523:Generated_Source\PSoC5/SPI_adc.c ****         if((SPI_adc_txBufferRead == SPI_adc_txBufferWrite) &&
 524:Generated_Source\PSoC5/SPI_adc.c ****            (0u != (SPI_adc_swStatusTx & SPI_adc_STS_TX_FIFO_NOT_FULL)))
 525:Generated_Source\PSoC5/SPI_adc.c ****         {
 526:Generated_Source\PSoC5/SPI_adc.c ****             /* Put data element into the TX FIFO */
 527:Generated_Source\PSoC5/SPI_adc.c ****             CY_SET_REG8(SPI_adc_TXDATA_PTR, txData);
 528:Generated_Source\PSoC5/SPI_adc.c ****         }
 529:Generated_Source\PSoC5/SPI_adc.c ****         else
 530:Generated_Source\PSoC5/SPI_adc.c ****         {
ARM GAS  C:\Users\larco\AppData\Local\Temp\ccUwEttB.s 			page 11


 531:Generated_Source\PSoC5/SPI_adc.c ****             /* Add to the TX software buffer */
 532:Generated_Source\PSoC5/SPI_adc.c ****             SPI_adc_txBufferWrite++;
 533:Generated_Source\PSoC5/SPI_adc.c ****             if(SPI_adc_txBufferWrite >= SPI_adc_TX_BUFFER_SIZE)
 534:Generated_Source\PSoC5/SPI_adc.c ****             {
 535:Generated_Source\PSoC5/SPI_adc.c ****                 SPI_adc_txBufferWrite = 0u;
 536:Generated_Source\PSoC5/SPI_adc.c ****             }
 537:Generated_Source\PSoC5/SPI_adc.c **** 
 538:Generated_Source\PSoC5/SPI_adc.c ****             if(SPI_adc_txBufferWrite == SPI_adc_txBufferRead)
 539:Generated_Source\PSoC5/SPI_adc.c ****             {
 540:Generated_Source\PSoC5/SPI_adc.c ****                 SPI_adc_txBufferRead++;
 541:Generated_Source\PSoC5/SPI_adc.c ****                 if(SPI_adc_txBufferRead >= SPI_adc_TX_BUFFER_SIZE)
 542:Generated_Source\PSoC5/SPI_adc.c ****                 {
 543:Generated_Source\PSoC5/SPI_adc.c ****                     SPI_adc_txBufferRead = 0u;
 544:Generated_Source\PSoC5/SPI_adc.c ****                 }
 545:Generated_Source\PSoC5/SPI_adc.c ****                 SPI_adc_txBufferFull = 1u;
 546:Generated_Source\PSoC5/SPI_adc.c ****             }
 547:Generated_Source\PSoC5/SPI_adc.c **** 
 548:Generated_Source\PSoC5/SPI_adc.c ****             SPI_adc_txBuffer[SPI_adc_txBufferWrite] = txData;
 549:Generated_Source\PSoC5/SPI_adc.c **** 
 550:Generated_Source\PSoC5/SPI_adc.c ****             SPI_adc_TX_STATUS_MASK_REG |= SPI_adc_STS_TX_FIFO_NOT_FULL;
 551:Generated_Source\PSoC5/SPI_adc.c ****         }
 552:Generated_Source\PSoC5/SPI_adc.c **** 
 553:Generated_Source\PSoC5/SPI_adc.c ****         SPI_adc_EnableTxInt();
 554:Generated_Source\PSoC5/SPI_adc.c **** 
 555:Generated_Source\PSoC5/SPI_adc.c ****     #else
 556:Generated_Source\PSoC5/SPI_adc.c ****         /* Wait until TX FIFO has a place */
 557:Generated_Source\PSoC5/SPI_adc.c ****         while(0u == (SPI_adc_TX_STATUS_REG & SPI_adc_STS_TX_FIFO_NOT_FULL))
 558:Generated_Source\PSoC5/SPI_adc.c ****         {
 559:Generated_Source\PSoC5/SPI_adc.c ****         }
 560:Generated_Source\PSoC5/SPI_adc.c **** 
 561:Generated_Source\PSoC5/SPI_adc.c ****         /* Put data element into the TX FIFO */
 562:Generated_Source\PSoC5/SPI_adc.c ****         CY_SET_REG8(SPI_adc_TXDATA_PTR, txData);
 563:Generated_Source\PSoC5/SPI_adc.c **** 
 564:Generated_Source\PSoC5/SPI_adc.c ****     #endif /* (SPI_adc_TX_SOFTWARE_BUF_ENABLED) */
 565:Generated_Source\PSoC5/SPI_adc.c **** }
 566:Generated_Source\PSoC5/SPI_adc.c **** 
 567:Generated_Source\PSoC5/SPI_adc.c **** 
 568:Generated_Source\PSoC5/SPI_adc.c **** /*******************************************************************************
 569:Generated_Source\PSoC5/SPI_adc.c **** * Function Name: SPI_adc_ReadRxData
 570:Generated_Source\PSoC5/SPI_adc.c **** ********************************************************************************
 571:Generated_Source\PSoC5/SPI_adc.c **** *
 572:Generated_Source\PSoC5/SPI_adc.c **** * Summary:
 573:Generated_Source\PSoC5/SPI_adc.c **** *  Read the next byte of data received across the SPI.
 574:Generated_Source\PSoC5/SPI_adc.c **** *
 575:Generated_Source\PSoC5/SPI_adc.c **** * Parameters:
 576:Generated_Source\PSoC5/SPI_adc.c **** *  None.
 577:Generated_Source\PSoC5/SPI_adc.c **** *
 578:Generated_Source\PSoC5/SPI_adc.c **** * Return:
 579:Generated_Source\PSoC5/SPI_adc.c **** *  The next byte of data read from the FIFO.
 580:Generated_Source\PSoC5/SPI_adc.c **** *
 581:Generated_Source\PSoC5/SPI_adc.c **** * Global variables:
 582:Generated_Source\PSoC5/SPI_adc.c **** *  SPI_adc_rxBufferWrite - used for the account of the bytes which
 583:Generated_Source\PSoC5/SPI_adc.c **** *  have been written down in the RX software buffer.
 584:Generated_Source\PSoC5/SPI_adc.c **** *  SPI_adc_rxBufferRead - used for the account of the bytes which
 585:Generated_Source\PSoC5/SPI_adc.c **** *  have been read from the RX software buffer, modified every function
 586:Generated_Source\PSoC5/SPI_adc.c **** *  call if RX Software Buffer is used.
 587:Generated_Source\PSoC5/SPI_adc.c **** *  SPI_adc_rxBuffer[SPI_adc_RX_BUFFER_SIZE] - used to store
ARM GAS  C:\Users\larco\AppData\Local\Temp\ccUwEttB.s 			page 12


 588:Generated_Source\PSoC5/SPI_adc.c **** *  received data.
 589:Generated_Source\PSoC5/SPI_adc.c **** *
 590:Generated_Source\PSoC5/SPI_adc.c **** * Theory:
 591:Generated_Source\PSoC5/SPI_adc.c **** *  Allows the user to read a byte of data received.
 592:Generated_Source\PSoC5/SPI_adc.c **** *
 593:Generated_Source\PSoC5/SPI_adc.c **** * Side Effects:
 594:Generated_Source\PSoC5/SPI_adc.c **** *  Will return invalid data if the FIFO is empty. The user should Call
 595:Generated_Source\PSoC5/SPI_adc.c **** *  GetRxBufferSize() and if it returns a non-zero value then it is safe to call
 596:Generated_Source\PSoC5/SPI_adc.c **** *  ReadByte() function.
 597:Generated_Source\PSoC5/SPI_adc.c **** *
 598:Generated_Source\PSoC5/SPI_adc.c **** * Reentrant:
 599:Generated_Source\PSoC5/SPI_adc.c **** *  No.
 600:Generated_Source\PSoC5/SPI_adc.c **** *
 601:Generated_Source\PSoC5/SPI_adc.c **** *******************************************************************************/
 602:Generated_Source\PSoC5/SPI_adc.c **** uint8 SPI_adc_ReadRxData(void) 
 603:Generated_Source\PSoC5/SPI_adc.c **** {
 604:Generated_Source\PSoC5/SPI_adc.c ****     uint8 rxData;
 605:Generated_Source\PSoC5/SPI_adc.c **** 
 606:Generated_Source\PSoC5/SPI_adc.c ****     #if(SPI_adc_RX_SOFTWARE_BUF_ENABLED)
 607:Generated_Source\PSoC5/SPI_adc.c **** 
 608:Generated_Source\PSoC5/SPI_adc.c ****         /* Disable RX interrupt to protect global veriables */
 609:Generated_Source\PSoC5/SPI_adc.c ****         SPI_adc_DisableRxInt();
 610:Generated_Source\PSoC5/SPI_adc.c **** 
 611:Generated_Source\PSoC5/SPI_adc.c ****         if(SPI_adc_rxBufferRead != SPI_adc_rxBufferWrite)
 612:Generated_Source\PSoC5/SPI_adc.c ****         {
 613:Generated_Source\PSoC5/SPI_adc.c ****             if(0u == SPI_adc_rxBufferFull)
 614:Generated_Source\PSoC5/SPI_adc.c ****             {
 615:Generated_Source\PSoC5/SPI_adc.c ****                 SPI_adc_rxBufferRead++;
 616:Generated_Source\PSoC5/SPI_adc.c ****                 if(SPI_adc_rxBufferRead >= SPI_adc_RX_BUFFER_SIZE)
 617:Generated_Source\PSoC5/SPI_adc.c ****                 {
 618:Generated_Source\PSoC5/SPI_adc.c ****                     SPI_adc_rxBufferRead = 0u;
 619:Generated_Source\PSoC5/SPI_adc.c ****                 }
 620:Generated_Source\PSoC5/SPI_adc.c ****             }
 621:Generated_Source\PSoC5/SPI_adc.c ****             else
 622:Generated_Source\PSoC5/SPI_adc.c ****             {
 623:Generated_Source\PSoC5/SPI_adc.c ****                 SPI_adc_rxBufferFull = 0u;
 624:Generated_Source\PSoC5/SPI_adc.c ****             }
 625:Generated_Source\PSoC5/SPI_adc.c ****         }
 626:Generated_Source\PSoC5/SPI_adc.c **** 
 627:Generated_Source\PSoC5/SPI_adc.c ****         rxData = SPI_adc_rxBuffer[SPI_adc_rxBufferRead];
 628:Generated_Source\PSoC5/SPI_adc.c **** 
 629:Generated_Source\PSoC5/SPI_adc.c ****         SPI_adc_EnableRxInt();
 630:Generated_Source\PSoC5/SPI_adc.c **** 
 631:Generated_Source\PSoC5/SPI_adc.c ****     #else
 632:Generated_Source\PSoC5/SPI_adc.c **** 
 633:Generated_Source\PSoC5/SPI_adc.c ****         rxData = CY_GET_REG8(SPI_adc_RXDATA_PTR);
 634:Generated_Source\PSoC5/SPI_adc.c **** 
 635:Generated_Source\PSoC5/SPI_adc.c ****     #endif /* (SPI_adc_RX_SOFTWARE_BUF_ENABLED) */
 636:Generated_Source\PSoC5/SPI_adc.c **** 
 637:Generated_Source\PSoC5/SPI_adc.c ****     return(rxData);
 638:Generated_Source\PSoC5/SPI_adc.c **** }
 639:Generated_Source\PSoC5/SPI_adc.c **** 
 640:Generated_Source\PSoC5/SPI_adc.c **** 
 641:Generated_Source\PSoC5/SPI_adc.c **** /*******************************************************************************
 642:Generated_Source\PSoC5/SPI_adc.c **** * Function Name: SPI_adc_GetRxBufferSize
 643:Generated_Source\PSoC5/SPI_adc.c **** ********************************************************************************
 644:Generated_Source\PSoC5/SPI_adc.c **** *
ARM GAS  C:\Users\larco\AppData\Local\Temp\ccUwEttB.s 			page 13


 645:Generated_Source\PSoC5/SPI_adc.c **** * Summary:
 646:Generated_Source\PSoC5/SPI_adc.c **** *  Returns the number of bytes/words of data currently held in the RX buffer.
 647:Generated_Source\PSoC5/SPI_adc.c **** *  If RX Software Buffer not used then function return 0 if FIFO empty or 1 if
 648:Generated_Source\PSoC5/SPI_adc.c **** *  FIFO not empty. In another case function return size of RX Software Buffer.
 649:Generated_Source\PSoC5/SPI_adc.c **** *
 650:Generated_Source\PSoC5/SPI_adc.c **** * Parameters:
 651:Generated_Source\PSoC5/SPI_adc.c **** *  None.
 652:Generated_Source\PSoC5/SPI_adc.c **** *
 653:Generated_Source\PSoC5/SPI_adc.c **** * Return:
 654:Generated_Source\PSoC5/SPI_adc.c **** *  Integer count of the number of bytes/words in the RX buffer.
 655:Generated_Source\PSoC5/SPI_adc.c **** *
 656:Generated_Source\PSoC5/SPI_adc.c **** * Global variables:
 657:Generated_Source\PSoC5/SPI_adc.c **** *  SPI_adc_rxBufferWrite - used for the account of the bytes which
 658:Generated_Source\PSoC5/SPI_adc.c **** *  have been written down in the RX software buffer.
 659:Generated_Source\PSoC5/SPI_adc.c **** *  SPI_adc_rxBufferRead - used for the account of the bytes which
 660:Generated_Source\PSoC5/SPI_adc.c **** *  have been read from the RX software buffer.
 661:Generated_Source\PSoC5/SPI_adc.c **** *
 662:Generated_Source\PSoC5/SPI_adc.c **** * Side Effects:
 663:Generated_Source\PSoC5/SPI_adc.c **** *  Clear status register of the component.
 664:Generated_Source\PSoC5/SPI_adc.c **** *
 665:Generated_Source\PSoC5/SPI_adc.c **** *******************************************************************************/
 666:Generated_Source\PSoC5/SPI_adc.c **** uint8 SPI_adc_GetRxBufferSize(void) 
 667:Generated_Source\PSoC5/SPI_adc.c **** {
 668:Generated_Source\PSoC5/SPI_adc.c ****     uint8 size;
 669:Generated_Source\PSoC5/SPI_adc.c **** 
 670:Generated_Source\PSoC5/SPI_adc.c ****     #if(SPI_adc_RX_SOFTWARE_BUF_ENABLED)
 671:Generated_Source\PSoC5/SPI_adc.c **** 
 672:Generated_Source\PSoC5/SPI_adc.c ****         /* Disable RX interrupt to protect global veriables */
 673:Generated_Source\PSoC5/SPI_adc.c ****         SPI_adc_DisableRxInt();
 674:Generated_Source\PSoC5/SPI_adc.c **** 
 675:Generated_Source\PSoC5/SPI_adc.c ****         if(SPI_adc_rxBufferRead == SPI_adc_rxBufferWrite)
 676:Generated_Source\PSoC5/SPI_adc.c ****         {
 677:Generated_Source\PSoC5/SPI_adc.c ****             size = 0u;
 678:Generated_Source\PSoC5/SPI_adc.c ****         }
 679:Generated_Source\PSoC5/SPI_adc.c ****         else if(SPI_adc_rxBufferRead < SPI_adc_rxBufferWrite)
 680:Generated_Source\PSoC5/SPI_adc.c ****         {
 681:Generated_Source\PSoC5/SPI_adc.c ****             size = (SPI_adc_rxBufferWrite - SPI_adc_rxBufferRead);
 682:Generated_Source\PSoC5/SPI_adc.c ****         }
 683:Generated_Source\PSoC5/SPI_adc.c ****         else
 684:Generated_Source\PSoC5/SPI_adc.c ****         {
 685:Generated_Source\PSoC5/SPI_adc.c ****             size = (SPI_adc_RX_BUFFER_SIZE - SPI_adc_rxBufferRead) + SPI_adc_rxBufferWrite;
 686:Generated_Source\PSoC5/SPI_adc.c ****         }
 687:Generated_Source\PSoC5/SPI_adc.c **** 
 688:Generated_Source\PSoC5/SPI_adc.c ****         SPI_adc_EnableRxInt();
 689:Generated_Source\PSoC5/SPI_adc.c **** 
 690:Generated_Source\PSoC5/SPI_adc.c ****     #else
 691:Generated_Source\PSoC5/SPI_adc.c **** 
 692:Generated_Source\PSoC5/SPI_adc.c ****         /* We can only know if there is data in the RX FIFO */
 693:Generated_Source\PSoC5/SPI_adc.c ****         size = (0u != (SPI_adc_RX_STATUS_REG & SPI_adc_STS_RX_FIFO_NOT_EMPTY)) ? 1u : 0u;
 694:Generated_Source\PSoC5/SPI_adc.c **** 
 695:Generated_Source\PSoC5/SPI_adc.c ****     #endif /* (SPI_adc_TX_SOFTWARE_BUF_ENABLED) */
 696:Generated_Source\PSoC5/SPI_adc.c **** 
 697:Generated_Source\PSoC5/SPI_adc.c ****     return(size);
 698:Generated_Source\PSoC5/SPI_adc.c **** }
 699:Generated_Source\PSoC5/SPI_adc.c **** 
 700:Generated_Source\PSoC5/SPI_adc.c **** 
 701:Generated_Source\PSoC5/SPI_adc.c **** /*******************************************************************************
ARM GAS  C:\Users\larco\AppData\Local\Temp\ccUwEttB.s 			page 14


 702:Generated_Source\PSoC5/SPI_adc.c **** * Function Name: SPI_adc_GetTxBufferSize
 703:Generated_Source\PSoC5/SPI_adc.c **** ********************************************************************************
 704:Generated_Source\PSoC5/SPI_adc.c **** *
 705:Generated_Source\PSoC5/SPI_adc.c **** * Summary:
 706:Generated_Source\PSoC5/SPI_adc.c **** *  Returns the number of bytes/words of data currently held in the TX buffer.
 707:Generated_Source\PSoC5/SPI_adc.c **** *  If TX Software Buffer not used then function return 0 - if FIFO empty, 1 - if
 708:Generated_Source\PSoC5/SPI_adc.c **** *  FIFO not full, 4 - if FIFO full. In another case function return size of TX
 709:Generated_Source\PSoC5/SPI_adc.c **** *  Software Buffer.
 710:Generated_Source\PSoC5/SPI_adc.c **** *
 711:Generated_Source\PSoC5/SPI_adc.c **** * Parameters:
 712:Generated_Source\PSoC5/SPI_adc.c **** *  None.
 713:Generated_Source\PSoC5/SPI_adc.c **** *
 714:Generated_Source\PSoC5/SPI_adc.c **** * Return:
 715:Generated_Source\PSoC5/SPI_adc.c **** *  Integer count of the number of bytes/words in the TX buffer.
 716:Generated_Source\PSoC5/SPI_adc.c **** *
 717:Generated_Source\PSoC5/SPI_adc.c **** * Global variables:
 718:Generated_Source\PSoC5/SPI_adc.c **** *  SPI_adc_txBufferWrite - used for the account of the bytes which
 719:Generated_Source\PSoC5/SPI_adc.c **** *  have been written down in the TX software buffer.
 720:Generated_Source\PSoC5/SPI_adc.c **** *  SPI_adc_txBufferRead - used for the account of the bytes which
 721:Generated_Source\PSoC5/SPI_adc.c **** *  have been read from the TX software buffer.
 722:Generated_Source\PSoC5/SPI_adc.c **** *
 723:Generated_Source\PSoC5/SPI_adc.c **** * Side Effects:
 724:Generated_Source\PSoC5/SPI_adc.c **** *  Clear status register of the component.
 725:Generated_Source\PSoC5/SPI_adc.c **** *
 726:Generated_Source\PSoC5/SPI_adc.c **** *******************************************************************************/
 727:Generated_Source\PSoC5/SPI_adc.c **** uint8  SPI_adc_GetTxBufferSize(void) 
 728:Generated_Source\PSoC5/SPI_adc.c **** {
 729:Generated_Source\PSoC5/SPI_adc.c ****     uint8 size;
 730:Generated_Source\PSoC5/SPI_adc.c **** 
 731:Generated_Source\PSoC5/SPI_adc.c ****     #if(SPI_adc_TX_SOFTWARE_BUF_ENABLED)
 732:Generated_Source\PSoC5/SPI_adc.c ****         /* Disable TX interrupt to protect global veriables */
 733:Generated_Source\PSoC5/SPI_adc.c ****         SPI_adc_DisableTxInt();
 734:Generated_Source\PSoC5/SPI_adc.c **** 
 735:Generated_Source\PSoC5/SPI_adc.c ****         if(SPI_adc_txBufferRead == SPI_adc_txBufferWrite)
 736:Generated_Source\PSoC5/SPI_adc.c ****         {
 737:Generated_Source\PSoC5/SPI_adc.c ****             size = 0u;
 738:Generated_Source\PSoC5/SPI_adc.c ****         }
 739:Generated_Source\PSoC5/SPI_adc.c ****         else if(SPI_adc_txBufferRead < SPI_adc_txBufferWrite)
 740:Generated_Source\PSoC5/SPI_adc.c ****         {
 741:Generated_Source\PSoC5/SPI_adc.c ****             size = (SPI_adc_txBufferWrite - SPI_adc_txBufferRead);
 742:Generated_Source\PSoC5/SPI_adc.c ****         }
 743:Generated_Source\PSoC5/SPI_adc.c ****         else
 744:Generated_Source\PSoC5/SPI_adc.c ****         {
 745:Generated_Source\PSoC5/SPI_adc.c ****             size = (SPI_adc_TX_BUFFER_SIZE - SPI_adc_txBufferRead) + SPI_adc_txBufferWrite;
 746:Generated_Source\PSoC5/SPI_adc.c ****         }
 747:Generated_Source\PSoC5/SPI_adc.c **** 
 748:Generated_Source\PSoC5/SPI_adc.c ****         SPI_adc_EnableTxInt();
 749:Generated_Source\PSoC5/SPI_adc.c **** 
 750:Generated_Source\PSoC5/SPI_adc.c ****     #else
 751:Generated_Source\PSoC5/SPI_adc.c **** 
 752:Generated_Source\PSoC5/SPI_adc.c ****         size = SPI_adc_TX_STATUS_REG;
 753:Generated_Source\PSoC5/SPI_adc.c **** 
 754:Generated_Source\PSoC5/SPI_adc.c ****         if(0u != (size & SPI_adc_STS_TX_FIFO_EMPTY))
 755:Generated_Source\PSoC5/SPI_adc.c ****         {
 756:Generated_Source\PSoC5/SPI_adc.c ****             size = 0u;
 757:Generated_Source\PSoC5/SPI_adc.c ****         }
 758:Generated_Source\PSoC5/SPI_adc.c ****         else if(0u != (size & SPI_adc_STS_TX_FIFO_NOT_FULL))
ARM GAS  C:\Users\larco\AppData\Local\Temp\ccUwEttB.s 			page 15


 759:Generated_Source\PSoC5/SPI_adc.c ****         {
 760:Generated_Source\PSoC5/SPI_adc.c ****             size = 1u;
 761:Generated_Source\PSoC5/SPI_adc.c ****         }
 762:Generated_Source\PSoC5/SPI_adc.c ****         else
 763:Generated_Source\PSoC5/SPI_adc.c ****         {
 764:Generated_Source\PSoC5/SPI_adc.c ****             size = SPI_adc_FIFO_SIZE;
 765:Generated_Source\PSoC5/SPI_adc.c ****         }
 766:Generated_Source\PSoC5/SPI_adc.c **** 
 767:Generated_Source\PSoC5/SPI_adc.c ****     #endif /* (SPI_adc_TX_SOFTWARE_BUF_ENABLED) */
 768:Generated_Source\PSoC5/SPI_adc.c **** 
 769:Generated_Source\PSoC5/SPI_adc.c ****     return(size);
 770:Generated_Source\PSoC5/SPI_adc.c **** }
 771:Generated_Source\PSoC5/SPI_adc.c **** 
 772:Generated_Source\PSoC5/SPI_adc.c **** 
 773:Generated_Source\PSoC5/SPI_adc.c **** /*******************************************************************************
 774:Generated_Source\PSoC5/SPI_adc.c **** * Function Name: SPI_adc_ClearRxBuffer
 775:Generated_Source\PSoC5/SPI_adc.c **** ********************************************************************************
 776:Generated_Source\PSoC5/SPI_adc.c **** *
 777:Generated_Source\PSoC5/SPI_adc.c **** * Summary:
 778:Generated_Source\PSoC5/SPI_adc.c **** *  Clear the RX RAM buffer by setting the read and write pointers both to zero.
 779:Generated_Source\PSoC5/SPI_adc.c **** *
 780:Generated_Source\PSoC5/SPI_adc.c **** * Parameters:
 781:Generated_Source\PSoC5/SPI_adc.c **** *  None.
 782:Generated_Source\PSoC5/SPI_adc.c **** *
 783:Generated_Source\PSoC5/SPI_adc.c **** * Return:
 784:Generated_Source\PSoC5/SPI_adc.c **** *  None.
 785:Generated_Source\PSoC5/SPI_adc.c **** *
 786:Generated_Source\PSoC5/SPI_adc.c **** * Global variables:
 787:Generated_Source\PSoC5/SPI_adc.c **** *  SPI_adc_rxBufferWrite - used for the account of the bytes which
 788:Generated_Source\PSoC5/SPI_adc.c **** *  have been written down in the RX software buffer, modified every function
 789:Generated_Source\PSoC5/SPI_adc.c **** *  call - resets to zero.
 790:Generated_Source\PSoC5/SPI_adc.c **** *  SPI_adc_rxBufferRead - used for the account of the bytes which
 791:Generated_Source\PSoC5/SPI_adc.c **** *  have been read from the RX software buffer, modified every function call -
 792:Generated_Source\PSoC5/SPI_adc.c **** *  resets to zero.
 793:Generated_Source\PSoC5/SPI_adc.c **** *
 794:Generated_Source\PSoC5/SPI_adc.c **** * Theory:
 795:Generated_Source\PSoC5/SPI_adc.c **** *  Setting the pointers to zero makes the system believe there is no data to
 796:Generated_Source\PSoC5/SPI_adc.c **** *  read and writing will resume at address 0 overwriting any data that may have
 797:Generated_Source\PSoC5/SPI_adc.c **** *  remained in the RAM.
 798:Generated_Source\PSoC5/SPI_adc.c **** *
 799:Generated_Source\PSoC5/SPI_adc.c **** * Side Effects:
 800:Generated_Source\PSoC5/SPI_adc.c **** *  Any received data not read from the RAM buffer will be lost when overwritten.
 801:Generated_Source\PSoC5/SPI_adc.c **** *
 802:Generated_Source\PSoC5/SPI_adc.c **** * Reentrant:
 803:Generated_Source\PSoC5/SPI_adc.c **** *  No.
 804:Generated_Source\PSoC5/SPI_adc.c **** *
 805:Generated_Source\PSoC5/SPI_adc.c **** *******************************************************************************/
 806:Generated_Source\PSoC5/SPI_adc.c **** void SPI_adc_ClearRxBuffer(void) 
 807:Generated_Source\PSoC5/SPI_adc.c **** {
 808:Generated_Source\PSoC5/SPI_adc.c ****     /* Clear Hardware RX FIFO */
 809:Generated_Source\PSoC5/SPI_adc.c ****     while(0u !=(SPI_adc_RX_STATUS_REG & SPI_adc_STS_RX_FIFO_NOT_EMPTY))
 810:Generated_Source\PSoC5/SPI_adc.c ****     {
 811:Generated_Source\PSoC5/SPI_adc.c ****         (void) CY_GET_REG8(SPI_adc_RXDATA_PTR);
 812:Generated_Source\PSoC5/SPI_adc.c ****     }
 813:Generated_Source\PSoC5/SPI_adc.c **** 
 814:Generated_Source\PSoC5/SPI_adc.c ****     #if(SPI_adc_RX_SOFTWARE_BUF_ENABLED)
 815:Generated_Source\PSoC5/SPI_adc.c ****         /* Disable RX interrupt to protect global veriables */
ARM GAS  C:\Users\larco\AppData\Local\Temp\ccUwEttB.s 			page 16


 816:Generated_Source\PSoC5/SPI_adc.c ****         SPI_adc_DisableRxInt();
 817:Generated_Source\PSoC5/SPI_adc.c **** 
 818:Generated_Source\PSoC5/SPI_adc.c ****         SPI_adc_rxBufferFull  = 0u;
 819:Generated_Source\PSoC5/SPI_adc.c ****         SPI_adc_rxBufferRead  = 0u;
 820:Generated_Source\PSoC5/SPI_adc.c ****         SPI_adc_rxBufferWrite = 0u;
 821:Generated_Source\PSoC5/SPI_adc.c **** 
 822:Generated_Source\PSoC5/SPI_adc.c ****         SPI_adc_EnableRxInt();
 823:Generated_Source\PSoC5/SPI_adc.c ****     #endif /* (SPI_adc_RX_SOFTWARE_BUF_ENABLED) */
 824:Generated_Source\PSoC5/SPI_adc.c **** }
 825:Generated_Source\PSoC5/SPI_adc.c **** 
 826:Generated_Source\PSoC5/SPI_adc.c **** 
 827:Generated_Source\PSoC5/SPI_adc.c **** /*******************************************************************************
 828:Generated_Source\PSoC5/SPI_adc.c **** * Function Name: SPI_adc_ClearTxBuffer
 829:Generated_Source\PSoC5/SPI_adc.c **** ********************************************************************************
 830:Generated_Source\PSoC5/SPI_adc.c **** *
 831:Generated_Source\PSoC5/SPI_adc.c **** * Summary:
 832:Generated_Source\PSoC5/SPI_adc.c **** *  Clear the TX RAM buffer by setting the read and write pointers both to zero.
 833:Generated_Source\PSoC5/SPI_adc.c **** *
 834:Generated_Source\PSoC5/SPI_adc.c **** * Parameters:
 835:Generated_Source\PSoC5/SPI_adc.c **** *  None.
 836:Generated_Source\PSoC5/SPI_adc.c **** *
 837:Generated_Source\PSoC5/SPI_adc.c **** * Return:
 838:Generated_Source\PSoC5/SPI_adc.c **** *  None.
 839:Generated_Source\PSoC5/SPI_adc.c **** *
 840:Generated_Source\PSoC5/SPI_adc.c **** * Global variables:
 841:Generated_Source\PSoC5/SPI_adc.c **** *  SPI_adc_txBufferWrite - used for the account of the bytes which
 842:Generated_Source\PSoC5/SPI_adc.c **** *  have been written down in the TX software buffer, modified every function
 843:Generated_Source\PSoC5/SPI_adc.c **** *  call - resets to zero.
 844:Generated_Source\PSoC5/SPI_adc.c **** *  SPI_adc_txBufferRead - used for the account of the bytes which
 845:Generated_Source\PSoC5/SPI_adc.c **** *  have been read from the TX software buffer, modified every function call -
 846:Generated_Source\PSoC5/SPI_adc.c **** *  resets to zero.
 847:Generated_Source\PSoC5/SPI_adc.c **** *
 848:Generated_Source\PSoC5/SPI_adc.c **** * Theory:
 849:Generated_Source\PSoC5/SPI_adc.c **** *  Setting the pointers to zero makes the system believe there is no data to
 850:Generated_Source\PSoC5/SPI_adc.c **** *  read and writing will resume at address 0 overwriting any data that may have
 851:Generated_Source\PSoC5/SPI_adc.c **** *  remained in the RAM.
 852:Generated_Source\PSoC5/SPI_adc.c **** *
 853:Generated_Source\PSoC5/SPI_adc.c **** * Side Effects:
 854:Generated_Source\PSoC5/SPI_adc.c **** *  Any data not yet transmitted from the RAM buffer will be lost when
 855:Generated_Source\PSoC5/SPI_adc.c **** *  overwritten.
 856:Generated_Source\PSoC5/SPI_adc.c **** *
 857:Generated_Source\PSoC5/SPI_adc.c **** * Reentrant:
 858:Generated_Source\PSoC5/SPI_adc.c **** *  No.
 859:Generated_Source\PSoC5/SPI_adc.c **** *
 860:Generated_Source\PSoC5/SPI_adc.c **** *******************************************************************************/
 861:Generated_Source\PSoC5/SPI_adc.c **** void SPI_adc_ClearTxBuffer(void) 
 862:Generated_Source\PSoC5/SPI_adc.c **** {
 863:Generated_Source\PSoC5/SPI_adc.c ****     uint8 enableInterrupts;
 864:Generated_Source\PSoC5/SPI_adc.c **** 
 865:Generated_Source\PSoC5/SPI_adc.c ****     enableInterrupts = CyEnterCriticalSection();
 866:Generated_Source\PSoC5/SPI_adc.c ****     /* Clear TX FIFO */
 867:Generated_Source\PSoC5/SPI_adc.c ****     SPI_adc_AUX_CONTROL_DP0_REG |= ((uint8)  SPI_adc_TX_FIFO_CLR);
 868:Generated_Source\PSoC5/SPI_adc.c ****     SPI_adc_AUX_CONTROL_DP0_REG &= ((uint8) ~SPI_adc_TX_FIFO_CLR);
 869:Generated_Source\PSoC5/SPI_adc.c **** 
 870:Generated_Source\PSoC5/SPI_adc.c ****     #if(SPI_adc_USE_SECOND_DATAPATH)
 871:Generated_Source\PSoC5/SPI_adc.c ****         /* Clear TX FIFO for 2nd Datapath */
 872:Generated_Source\PSoC5/SPI_adc.c ****         SPI_adc_AUX_CONTROL_DP1_REG |= ((uint8)  SPI_adc_TX_FIFO_CLR);
ARM GAS  C:\Users\larco\AppData\Local\Temp\ccUwEttB.s 			page 17


 873:Generated_Source\PSoC5/SPI_adc.c ****         SPI_adc_AUX_CONTROL_DP1_REG &= ((uint8) ~SPI_adc_TX_FIFO_CLR);
 874:Generated_Source\PSoC5/SPI_adc.c ****     #endif /* (SPI_adc_USE_SECOND_DATAPATH) */
 875:Generated_Source\PSoC5/SPI_adc.c ****     CyExitCriticalSection(enableInterrupts);
 876:Generated_Source\PSoC5/SPI_adc.c **** 
 877:Generated_Source\PSoC5/SPI_adc.c ****     #if(SPI_adc_TX_SOFTWARE_BUF_ENABLED)
 878:Generated_Source\PSoC5/SPI_adc.c ****         /* Disable TX interrupt to protect global veriables */
 879:Generated_Source\PSoC5/SPI_adc.c ****         SPI_adc_DisableTxInt();
 880:Generated_Source\PSoC5/SPI_adc.c **** 
 881:Generated_Source\PSoC5/SPI_adc.c ****         SPI_adc_txBufferFull  = 0u;
 882:Generated_Source\PSoC5/SPI_adc.c ****         SPI_adc_txBufferRead  = 0u;
 883:Generated_Source\PSoC5/SPI_adc.c ****         SPI_adc_txBufferWrite = 0u;
 884:Generated_Source\PSoC5/SPI_adc.c **** 
 885:Generated_Source\PSoC5/SPI_adc.c ****         /* Buffer is EMPTY: disable TX FIFO NOT FULL interrupt */
 886:Generated_Source\PSoC5/SPI_adc.c ****         SPI_adc_TX_STATUS_MASK_REG &= ((uint8) ~SPI_adc_STS_TX_FIFO_NOT_FULL);
 887:Generated_Source\PSoC5/SPI_adc.c **** 
 888:Generated_Source\PSoC5/SPI_adc.c ****         SPI_adc_EnableTxInt();
 889:Generated_Source\PSoC5/SPI_adc.c ****     #endif /* (SPI_adc_TX_SOFTWARE_BUF_ENABLED) */
 890:Generated_Source\PSoC5/SPI_adc.c **** }
 891:Generated_Source\PSoC5/SPI_adc.c **** 
 892:Generated_Source\PSoC5/SPI_adc.c **** 
 893:Generated_Source\PSoC5/SPI_adc.c **** #if(0u != SPI_adc_BIDIRECTIONAL_MODE)
 894:Generated_Source\PSoC5/SPI_adc.c ****     /*******************************************************************************
 895:Generated_Source\PSoC5/SPI_adc.c ****     * Function Name: SPI_adc_TxEnable
 896:Generated_Source\PSoC5/SPI_adc.c ****     ********************************************************************************
 897:Generated_Source\PSoC5/SPI_adc.c ****     *
 898:Generated_Source\PSoC5/SPI_adc.c ****     * Summary:
 899:Generated_Source\PSoC5/SPI_adc.c ****     *  If the SPI master is configured to use a single bi-directional pin then this
 900:Generated_Source\PSoC5/SPI_adc.c ****     *  will set the bi-directional pin to transmit.
 901:Generated_Source\PSoC5/SPI_adc.c ****     *
 902:Generated_Source\PSoC5/SPI_adc.c ****     * Parameters:
 903:Generated_Source\PSoC5/SPI_adc.c ****     *  None.
 904:Generated_Source\PSoC5/SPI_adc.c ****     *
 905:Generated_Source\PSoC5/SPI_adc.c ****     * Return:
 906:Generated_Source\PSoC5/SPI_adc.c ****     *  None.
 907:Generated_Source\PSoC5/SPI_adc.c ****     *
 908:Generated_Source\PSoC5/SPI_adc.c ****     *******************************************************************************/
 909:Generated_Source\PSoC5/SPI_adc.c ****     void SPI_adc_TxEnable(void) 
 910:Generated_Source\PSoC5/SPI_adc.c ****     {
 911:Generated_Source\PSoC5/SPI_adc.c ****         SPI_adc_CONTROL_REG |= SPI_adc_CTRL_TX_SIGNAL_EN;
 912:Generated_Source\PSoC5/SPI_adc.c ****     }
 913:Generated_Source\PSoC5/SPI_adc.c **** 
 914:Generated_Source\PSoC5/SPI_adc.c **** 
 915:Generated_Source\PSoC5/SPI_adc.c ****     /*******************************************************************************
 916:Generated_Source\PSoC5/SPI_adc.c ****     * Function Name: SPI_adc_TxDisable
 917:Generated_Source\PSoC5/SPI_adc.c ****     ********************************************************************************
 918:Generated_Source\PSoC5/SPI_adc.c ****     *
 919:Generated_Source\PSoC5/SPI_adc.c ****     * Summary:
 920:Generated_Source\PSoC5/SPI_adc.c ****     *  If the SPI master is configured to use a single bi-directional pin then this
 921:Generated_Source\PSoC5/SPI_adc.c ****     *  will set the bi-directional pin to receive.
 922:Generated_Source\PSoC5/SPI_adc.c ****     *
 923:Generated_Source\PSoC5/SPI_adc.c ****     * Parameters:
 924:Generated_Source\PSoC5/SPI_adc.c ****     *  None.
 925:Generated_Source\PSoC5/SPI_adc.c ****     *
 926:Generated_Source\PSoC5/SPI_adc.c ****     * Return:
 927:Generated_Source\PSoC5/SPI_adc.c ****     *  None.
 928:Generated_Source\PSoC5/SPI_adc.c ****     *
 929:Generated_Source\PSoC5/SPI_adc.c ****     *******************************************************************************/
ARM GAS  C:\Users\larco\AppData\Local\Temp\ccUwEttB.s 			page 18


 930:Generated_Source\PSoC5/SPI_adc.c ****     void SPI_adc_TxDisable(void) 
 931:Generated_Source\PSoC5/SPI_adc.c ****     {
 932:Generated_Source\PSoC5/SPI_adc.c ****         SPI_adc_CONTROL_REG &= ((uint8) ~SPI_adc_CTRL_TX_SIGNAL_EN);
 933:Generated_Source\PSoC5/SPI_adc.c ****     }
 934:Generated_Source\PSoC5/SPI_adc.c **** 
 935:Generated_Source\PSoC5/SPI_adc.c **** #endif /* (0u != SPI_adc_BIDIRECTIONAL_MODE) */
 936:Generated_Source\PSoC5/SPI_adc.c **** 
 937:Generated_Source\PSoC5/SPI_adc.c **** 
 938:Generated_Source\PSoC5/SPI_adc.c **** /*******************************************************************************
 939:Generated_Source\PSoC5/SPI_adc.c **** * Function Name: SPI_adc_PutArray
 940:Generated_Source\PSoC5/SPI_adc.c **** ********************************************************************************
 941:Generated_Source\PSoC5/SPI_adc.c **** *
 942:Generated_Source\PSoC5/SPI_adc.c **** * Summary:
 943:Generated_Source\PSoC5/SPI_adc.c **** *  Write available data from ROM/RAM to the TX buffer while space is available
 944:Generated_Source\PSoC5/SPI_adc.c **** *  in the TX buffer. Keep trying until all data is passed to the TX buffer.
 945:Generated_Source\PSoC5/SPI_adc.c **** *
 946:Generated_Source\PSoC5/SPI_adc.c **** * Parameters:
 947:Generated_Source\PSoC5/SPI_adc.c **** *  *buffer: Pointer to the location in RAM containing the data to send
 948:Generated_Source\PSoC5/SPI_adc.c **** *  byteCount: The number of bytes to move to the transmit buffer.
 949:Generated_Source\PSoC5/SPI_adc.c **** *
 950:Generated_Source\PSoC5/SPI_adc.c **** * Return:
 951:Generated_Source\PSoC5/SPI_adc.c **** *  None.
 952:Generated_Source\PSoC5/SPI_adc.c **** *
 953:Generated_Source\PSoC5/SPI_adc.c **** * Side Effects:
 954:Generated_Source\PSoC5/SPI_adc.c **** *  Will stay in this routine until all data has been sent.  May get locked in
 955:Generated_Source\PSoC5/SPI_adc.c **** *  this loop if data is not being initiated by the master if there is not
 956:Generated_Source\PSoC5/SPI_adc.c **** *  enough room in the TX FIFO.
 957:Generated_Source\PSoC5/SPI_adc.c **** *
 958:Generated_Source\PSoC5/SPI_adc.c **** * Reentrant:
 959:Generated_Source\PSoC5/SPI_adc.c **** *  No.
 960:Generated_Source\PSoC5/SPI_adc.c **** *
 961:Generated_Source\PSoC5/SPI_adc.c **** *******************************************************************************/
 962:Generated_Source\PSoC5/SPI_adc.c **** void SPI_adc_PutArray(const uint8 buffer[], uint8 byteCount)
 963:Generated_Source\PSoC5/SPI_adc.c ****                                                                           
 964:Generated_Source\PSoC5/SPI_adc.c **** {
 965:Generated_Source\PSoC5/SPI_adc.c ****     uint8 bufIndex;
 966:Generated_Source\PSoC5/SPI_adc.c **** 
 967:Generated_Source\PSoC5/SPI_adc.c ****     bufIndex = 0u;
 968:Generated_Source\PSoC5/SPI_adc.c **** 
 969:Generated_Source\PSoC5/SPI_adc.c ****     while(byteCount > 0u)
 970:Generated_Source\PSoC5/SPI_adc.c ****     {
 971:Generated_Source\PSoC5/SPI_adc.c ****         SPI_adc_WriteTxData(buffer[bufIndex]);
 972:Generated_Source\PSoC5/SPI_adc.c ****         bufIndex++;
 973:Generated_Source\PSoC5/SPI_adc.c ****         byteCount--;
 974:Generated_Source\PSoC5/SPI_adc.c ****     }
 975:Generated_Source\PSoC5/SPI_adc.c **** }
 976:Generated_Source\PSoC5/SPI_adc.c **** 
 977:Generated_Source\PSoC5/SPI_adc.c **** 
 978:Generated_Source\PSoC5/SPI_adc.c **** /*******************************************************************************
 979:Generated_Source\PSoC5/SPI_adc.c **** * Function Name: SPI_adc_ClearFIFO
 980:Generated_Source\PSoC5/SPI_adc.c **** ********************************************************************************
 981:Generated_Source\PSoC5/SPI_adc.c **** *
 982:Generated_Source\PSoC5/SPI_adc.c **** * Summary:
 983:Generated_Source\PSoC5/SPI_adc.c **** *  Clear the RX and TX FIFO's of all data for a fresh start.
 984:Generated_Source\PSoC5/SPI_adc.c **** *
 985:Generated_Source\PSoC5/SPI_adc.c **** * Parameters:
 986:Generated_Source\PSoC5/SPI_adc.c **** *  None.
ARM GAS  C:\Users\larco\AppData\Local\Temp\ccUwEttB.s 			page 19


 987:Generated_Source\PSoC5/SPI_adc.c **** *
 988:Generated_Source\PSoC5/SPI_adc.c **** * Return:
 989:Generated_Source\PSoC5/SPI_adc.c **** *  None.
 990:Generated_Source\PSoC5/SPI_adc.c **** *
 991:Generated_Source\PSoC5/SPI_adc.c **** * Side Effects:
 992:Generated_Source\PSoC5/SPI_adc.c **** *  Clear status register of the component.
 993:Generated_Source\PSoC5/SPI_adc.c **** *
 994:Generated_Source\PSoC5/SPI_adc.c **** *******************************************************************************/
 995:Generated_Source\PSoC5/SPI_adc.c **** void SPI_adc_ClearFIFO(void) 
 996:Generated_Source\PSoC5/SPI_adc.c **** {
 997:Generated_Source\PSoC5/SPI_adc.c ****     uint8 enableInterrupts;
 998:Generated_Source\PSoC5/SPI_adc.c **** 
 999:Generated_Source\PSoC5/SPI_adc.c ****     /* Clear Hardware RX FIFO */
1000:Generated_Source\PSoC5/SPI_adc.c ****     while(0u !=(SPI_adc_RX_STATUS_REG & SPI_adc_STS_RX_FIFO_NOT_EMPTY))
  41              		.loc 1 1000 0
  42 0006 114A     		ldr	r2, .L11+4
  43              	.LBE37:
  44              	.LBE36:
  66:Generated_Source\PSoC5/SPI_adc.c **** 
  45              		.loc 1 66 0
  46 0008 1970     		strb	r1, [r3]
  47              	.LBB40:
  48              	.LBB38:
  49              		.loc 1 1000 0
  50 000a 1378     		ldrb	r3, [r2]	@ zero_extendqisi2
  51 000c 9906     		lsls	r1, r3, #26
  52 000e 04D5     		bpl	.L2
1001:Generated_Source\PSoC5/SPI_adc.c ****     {
1002:Generated_Source\PSoC5/SPI_adc.c ****         (void) CY_GET_REG8(SPI_adc_RXDATA_PTR);
  53              		.loc 1 1002 0
  54 0010 0F49     		ldr	r1, .L11+8
  55              	.L6:
  56 0012 0B78     		ldrb	r3, [r1]	@ zero_extendqisi2
1000:Generated_Source\PSoC5/SPI_adc.c ****     {
  57              		.loc 1 1000 0
  58 0014 1378     		ldrb	r3, [r2]	@ zero_extendqisi2
  59 0016 9B06     		lsls	r3, r3, #26
  60 0018 FBD4     		bmi	.L6
  61              	.L2:
1003:Generated_Source\PSoC5/SPI_adc.c ****     }
1004:Generated_Source\PSoC5/SPI_adc.c **** 
1005:Generated_Source\PSoC5/SPI_adc.c ****     enableInterrupts = CyEnterCriticalSection();
  62              		.loc 1 1005 0
  63 001a FFF7FEFF 		bl	CyEnterCriticalSection
  64              	.LVL0:
1006:Generated_Source\PSoC5/SPI_adc.c ****     /* Clear TX FIFO */
1007:Generated_Source\PSoC5/SPI_adc.c ****     SPI_adc_AUX_CONTROL_DP0_REG |= ((uint8)  SPI_adc_TX_FIFO_CLR);
  65              		.loc 1 1007 0
  66 001e 0D4B     		ldr	r3, .L11+12
  67              	.LBE38:
  68              	.LBE40:
  69              	.LBB41:
  70              	.LBB42:
 401:Generated_Source\PSoC5/SPI_adc.c **** 
  71              		.loc 1 401 0
  72 0020 0D4C     		ldr	r4, .L11+16
  73              	.LBE42:
ARM GAS  C:\Users\larco\AppData\Local\Temp\ccUwEttB.s 			page 20


  74              	.LBE41:
  75              	.LBB44:
  76              	.LBB39:
  77              		.loc 1 1007 0
  78 0022 1A78     		ldrb	r2, [r3]	@ zero_extendqisi2
  79 0024 42F00102 		orr	r2, r2, #1
  80 0028 1A70     		strb	r2, [r3]
1008:Generated_Source\PSoC5/SPI_adc.c ****     SPI_adc_AUX_CONTROL_DP0_REG &= ((uint8) ~SPI_adc_TX_FIFO_CLR);
  81              		.loc 1 1008 0
  82 002a 1A78     		ldrb	r2, [r3]	@ zero_extendqisi2
  83 002c 02F0FE02 		and	r2, r2, #254
  84 0030 1A70     		strb	r2, [r3]
1009:Generated_Source\PSoC5/SPI_adc.c **** 
1010:Generated_Source\PSoC5/SPI_adc.c ****     #if(SPI_adc_USE_SECOND_DATAPATH)
1011:Generated_Source\PSoC5/SPI_adc.c ****         /* Clear TX FIFO for 2nd Datapath */
1012:Generated_Source\PSoC5/SPI_adc.c ****         SPI_adc_AUX_CONTROL_DP1_REG |= ((uint8)  SPI_adc_TX_FIFO_CLR);
1013:Generated_Source\PSoC5/SPI_adc.c ****         SPI_adc_AUX_CONTROL_DP1_REG &= ((uint8) ~SPI_adc_TX_FIFO_CLR);
1014:Generated_Source\PSoC5/SPI_adc.c ****     #endif /* (SPI_adc_USE_SECOND_DATAPATH) */
1015:Generated_Source\PSoC5/SPI_adc.c ****     CyExitCriticalSection(enableInterrupts);
  85              		.loc 1 1015 0
  86 0032 FFF7FEFF 		bl	CyExitCriticalSection
  87              	.LVL1:
  88              	.LBE39:
  89              	.LBE44:
  90              	.LBB45:
  91              	.LBB46:
 452:Generated_Source\PSoC5/SPI_adc.c **** 
  92              		.loc 1 452 0
  93 0036 0548     		ldr	r0, .L11+4
  94              	.LBE46:
  95              	.LBE45:
 101:Generated_Source\PSoC5/SPI_adc.c ****     SPI_adc_RX_STATUS_MASK_REG = SPI_adc_RX_INIT_INTERRUPTS_MASK;
  96              		.loc 1 101 0
  97 0038 0849     		ldr	r1, .L11+20
 102:Generated_Source\PSoC5/SPI_adc.c **** }
  98              		.loc 1 102 0
  99 003a 094A     		ldr	r2, .L11+24
 101:Generated_Source\PSoC5/SPI_adc.c ****     SPI_adc_RX_STATUS_MASK_REG = SPI_adc_RX_INIT_INTERRUPTS_MASK;
 100              		.loc 1 101 0
 101 003c 0023     		movs	r3, #0
 102              	.LBB48:
 103              	.LBB43:
 401:Generated_Source\PSoC5/SPI_adc.c **** 
 104              		.loc 1 401 0
 105 003e 2478     		ldrb	r4, [r4]	@ zero_extendqisi2
 106              	.LBE43:
 107              	.LBE48:
 108              	.LBB49:
 109              	.LBB47:
 452:Generated_Source\PSoC5/SPI_adc.c **** 
 110              		.loc 1 452 0
 111 0040 0078     		ldrb	r0, [r0]	@ zero_extendqisi2
 112              	.LBE47:
 113              	.LBE49:
 101:Generated_Source\PSoC5/SPI_adc.c ****     SPI_adc_RX_STATUS_MASK_REG = SPI_adc_RX_INIT_INTERRUPTS_MASK;
 114              		.loc 1 101 0
 115 0042 0B70     		strb	r3, [r1]
ARM GAS  C:\Users\larco\AppData\Local\Temp\ccUwEttB.s 			page 21


 102:Generated_Source\PSoC5/SPI_adc.c **** }
 116              		.loc 1 102 0
 117 0044 1370     		strb	r3, [r2]
 118 0046 10BD     		pop	{r4, pc}
 119              	.L12:
 120              		.align	2
 121              	.L11:
 122 0048 87650040 		.word	1073767815
 123 004c 65650040 		.word	1073767781
 124 0050 57640040 		.word	1073767511
 125 0054 97640040 		.word	1073767575
 126 0058 64650040 		.word	1073767780
 127 005c 84650040 		.word	1073767812
 128 0060 85650040 		.word	1073767813
 129              		.cfi_endproc
 130              	.LFE0:
 131              		.size	SPI_adc_Init, .-SPI_adc_Init
 132              		.section	.text.SPI_adc_Enable,"ax",%progbits
 133              		.align	2
 134              		.global	SPI_adc_Enable
 135              		.thumb
 136              		.thumb_func
 137              		.type	SPI_adc_Enable, %function
 138              	SPI_adc_Enable:
 139              	.LFB1:
 121:Generated_Source\PSoC5/SPI_adc.c ****     uint8 enableInterrupts;
 140              		.loc 1 121 0
 141              		.cfi_startproc
 142              		@ args = 0, pretend = 0, frame = 0
 143              		@ frame_needed = 0, uses_anonymous_args = 0
 144 0000 10B5     		push	{r4, lr}
 145              		.cfi_def_cfa_offset 8
 146              		.cfi_offset 4, -8
 147              		.cfi_offset 14, -4
 125:Generated_Source\PSoC5/SPI_adc.c ****     SPI_adc_TX_STATUS_ACTL_REG  |= SPI_adc_INT_ENABLE;
 148              		.loc 1 125 0
 149 0002 0A4C     		ldr	r4, .L15
 124:Generated_Source\PSoC5/SPI_adc.c ****     SPI_adc_COUNTER_CONTROL_REG |= SPI_adc_CNTR_ENABLE;
 150              		.loc 1 124 0
 151 0004 FFF7FEFF 		bl	CyEnterCriticalSection
 152              	.LVL2:
 125:Generated_Source\PSoC5/SPI_adc.c ****     SPI_adc_TX_STATUS_ACTL_REG  |= SPI_adc_INT_ENABLE;
 153              		.loc 1 125 0
 154 0008 2378     		ldrb	r3, [r4]	@ zero_extendqisi2
 126:Generated_Source\PSoC5/SPI_adc.c ****     SPI_adc_RX_STATUS_ACTL_REG  |= SPI_adc_INT_ENABLE;
 155              		.loc 1 126 0
 156 000a 0949     		ldr	r1, .L15+4
 125:Generated_Source\PSoC5/SPI_adc.c ****     SPI_adc_TX_STATUS_ACTL_REG  |= SPI_adc_INT_ENABLE;
 157              		.loc 1 125 0
 158 000c 43F02003 		orr	r3, r3, #32
 159 0010 2370     		strb	r3, [r4]
 126:Generated_Source\PSoC5/SPI_adc.c ****     SPI_adc_RX_STATUS_ACTL_REG  |= SPI_adc_INT_ENABLE;
 160              		.loc 1 126 0
 161 0012 0B78     		ldrb	r3, [r1]	@ zero_extendqisi2
 127:Generated_Source\PSoC5/SPI_adc.c ****     CyExitCriticalSection(enableInterrupts);
 162              		.loc 1 127 0
 163 0014 074A     		ldr	r2, .L15+8
ARM GAS  C:\Users\larco\AppData\Local\Temp\ccUwEttB.s 			page 22


 126:Generated_Source\PSoC5/SPI_adc.c ****     SPI_adc_RX_STATUS_ACTL_REG  |= SPI_adc_INT_ENABLE;
 164              		.loc 1 126 0
 165 0016 43F01003 		orr	r3, r3, #16
 166 001a 0B70     		strb	r3, [r1]
 127:Generated_Source\PSoC5/SPI_adc.c ****     CyExitCriticalSection(enableInterrupts);
 167              		.loc 1 127 0
 168 001c 1378     		ldrb	r3, [r2]	@ zero_extendqisi2
 169 001e 43F01003 		orr	r3, r3, #16
 170 0022 1370     		strb	r3, [r2]
 136:Generated_Source\PSoC5/SPI_adc.c **** 
 171              		.loc 1 136 0
 172 0024 BDE81040 		pop	{r4, lr}
 173              		.cfi_restore 14
 174              		.cfi_restore 4
 175              		.cfi_def_cfa_offset 0
 128:Generated_Source\PSoC5/SPI_adc.c **** 
 176              		.loc 1 128 0
 177 0028 FFF7FEBF 		b	CyExitCriticalSection
 178              	.LVL3:
 179              	.L16:
 180              		.align	2
 181              	.L15:
 182 002c 97650040 		.word	1073767831
 183 0030 94650040 		.word	1073767828
 184 0034 95650040 		.word	1073767829
 185              		.cfi_endproc
 186              	.LFE1:
 187              		.size	SPI_adc_Enable, .-SPI_adc_Enable
 188              		.section	.text.SPI_adc_Start,"ax",%progbits
 189              		.align	2
 190              		.global	SPI_adc_Start
 191              		.thumb
 192              		.thumb_func
 193              		.type	SPI_adc_Start, %function
 194              	SPI_adc_Start:
 195              	.LFB2:
 164:Generated_Source\PSoC5/SPI_adc.c ****     if(0u == SPI_adc_initVar)
 196              		.loc 1 164 0
 197              		.cfi_startproc
 198              		@ args = 0, pretend = 0, frame = 0
 199              		@ frame_needed = 0, uses_anonymous_args = 0
 200 0000 70B5     		push	{r4, r5, r6, lr}
 201              		.cfi_def_cfa_offset 16
 202              		.cfi_offset 4, -16
 203              		.cfi_offset 5, -12
 204              		.cfi_offset 6, -8
 205              		.cfi_offset 14, -4
 165:Generated_Source\PSoC5/SPI_adc.c ****     {
 206              		.loc 1 165 0
 207 0002 1E4C     		ldr	r4, .L28
 208 0004 2378     		ldrb	r3, [r4]	@ zero_extendqisi2
 209 0006 A3B1     		cbz	r3, .L27
 210              	.L18:
 211              	.LBB60:
 212              	.LBB61:
 125:Generated_Source\PSoC5/SPI_adc.c ****     SPI_adc_TX_STATUS_ACTL_REG  |= SPI_adc_INT_ENABLE;
 213              		.loc 1 125 0
ARM GAS  C:\Users\larco\AppData\Local\Temp\ccUwEttB.s 			page 23


 214 0008 1D4C     		ldr	r4, .L28+4
 124:Generated_Source\PSoC5/SPI_adc.c ****     SPI_adc_COUNTER_CONTROL_REG |= SPI_adc_CNTR_ENABLE;
 215              		.loc 1 124 0
 216 000a FFF7FEFF 		bl	CyEnterCriticalSection
 217              	.LVL4:
 125:Generated_Source\PSoC5/SPI_adc.c ****     SPI_adc_TX_STATUS_ACTL_REG  |= SPI_adc_INT_ENABLE;
 218              		.loc 1 125 0
 219 000e 2378     		ldrb	r3, [r4]	@ zero_extendqisi2
 126:Generated_Source\PSoC5/SPI_adc.c ****     SPI_adc_RX_STATUS_ACTL_REG  |= SPI_adc_INT_ENABLE;
 220              		.loc 1 126 0
 221 0010 1C49     		ldr	r1, .L28+8
 125:Generated_Source\PSoC5/SPI_adc.c ****     SPI_adc_TX_STATUS_ACTL_REG  |= SPI_adc_INT_ENABLE;
 222              		.loc 1 125 0
 223 0012 43F02003 		orr	r3, r3, #32
 224 0016 2370     		strb	r3, [r4]
 126:Generated_Source\PSoC5/SPI_adc.c ****     SPI_adc_RX_STATUS_ACTL_REG  |= SPI_adc_INT_ENABLE;
 225              		.loc 1 126 0
 226 0018 0B78     		ldrb	r3, [r1]	@ zero_extendqisi2
 127:Generated_Source\PSoC5/SPI_adc.c ****     CyExitCriticalSection(enableInterrupts);
 227              		.loc 1 127 0
 228 001a 1B4A     		ldr	r2, .L28+12
 126:Generated_Source\PSoC5/SPI_adc.c ****     SPI_adc_RX_STATUS_ACTL_REG  |= SPI_adc_INT_ENABLE;
 229              		.loc 1 126 0
 230 001c 43F01003 		orr	r3, r3, #16
 231 0020 0B70     		strb	r3, [r1]
 127:Generated_Source\PSoC5/SPI_adc.c ****     CyExitCriticalSection(enableInterrupts);
 232              		.loc 1 127 0
 233 0022 1378     		ldrb	r3, [r2]	@ zero_extendqisi2
 234 0024 43F01003 		orr	r3, r3, #16
 235 0028 1370     		strb	r3, [r2]
 236              	.LBE61:
 237              	.LBE60:
 172:Generated_Source\PSoC5/SPI_adc.c **** 
 238              		.loc 1 172 0
 239 002a BDE87040 		pop	{r4, r5, r6, lr}
 240              		.cfi_remember_state
 241              		.cfi_restore 14
 242              		.cfi_restore 6
 243              		.cfi_restore 5
 244              		.cfi_restore 4
 245              		.cfi_def_cfa_offset 0
 246              	.LBB63:
 247              	.LBB62:
 128:Generated_Source\PSoC5/SPI_adc.c **** 
 248              		.loc 1 128 0
 249 002e FFF7FEBF 		b	CyExitCriticalSection
 250              	.LVL5:
 251              	.L27:
 252              		.cfi_restore_state
 253              	.LBE62:
 254              	.LBE63:
 255              	.LBB64:
 256              	.LBB65:
  66:Generated_Source\PSoC5/SPI_adc.c **** 
 257              		.loc 1 66 0
 258 0032 164B     		ldr	r3, .L28+16
 259 0034 0F21     		movs	r1, #15
ARM GAS  C:\Users\larco\AppData\Local\Temp\ccUwEttB.s 			page 24


 260              	.LBB66:
 261              	.LBB67:
1000:Generated_Source\PSoC5/SPI_adc.c ****     {
 262              		.loc 1 1000 0
 263 0036 164A     		ldr	r2, .L28+20
 264              	.LBE67:
 265              	.LBE66:
  66:Generated_Source\PSoC5/SPI_adc.c **** 
 266              		.loc 1 66 0
 267 0038 1970     		strb	r1, [r3]
 268              	.LBB71:
 269              	.LBB68:
1000:Generated_Source\PSoC5/SPI_adc.c ****     {
 270              		.loc 1 1000 0
 271 003a 1378     		ldrb	r3, [r2]	@ zero_extendqisi2
 272 003c 9906     		lsls	r1, r3, #26
 273 003e 04D5     		bpl	.L19
1002:Generated_Source\PSoC5/SPI_adc.c ****     }
 274              		.loc 1 1002 0
 275 0040 1449     		ldr	r1, .L28+24
 276              	.L23:
 277 0042 0B78     		ldrb	r3, [r1]	@ zero_extendqisi2
1000:Generated_Source\PSoC5/SPI_adc.c ****     {
 278              		.loc 1 1000 0
 279 0044 1378     		ldrb	r3, [r2]	@ zero_extendqisi2
 280 0046 9B06     		lsls	r3, r3, #26
 281 0048 FBD4     		bmi	.L23
 282              	.L19:
1005:Generated_Source\PSoC5/SPI_adc.c ****     /* Clear TX FIFO */
 283              		.loc 1 1005 0
 284 004a FFF7FEFF 		bl	CyEnterCriticalSection
 285              	.LVL6:
1007:Generated_Source\PSoC5/SPI_adc.c ****     SPI_adc_AUX_CONTROL_DP0_REG &= ((uint8) ~SPI_adc_TX_FIFO_CLR);
 286              		.loc 1 1007 0
 287 004e 124B     		ldr	r3, .L28+28
 288              	.LBE68:
 289              	.LBE71:
 290              	.LBB72:
 291              	.LBB73:
 401:Generated_Source\PSoC5/SPI_adc.c **** 
 292              		.loc 1 401 0
 293 0050 124E     		ldr	r6, .L28+32
 294              	.LBE73:
 295              	.LBE72:
 296              	.LBB75:
 297              	.LBB69:
1007:Generated_Source\PSoC5/SPI_adc.c ****     SPI_adc_AUX_CONTROL_DP0_REG &= ((uint8) ~SPI_adc_TX_FIFO_CLR);
 298              		.loc 1 1007 0
 299 0052 1A78     		ldrb	r2, [r3]	@ zero_extendqisi2
 300              	.LBE69:
 301              	.LBE75:
 302              	.LBB76:
 303              	.LBB77:
 452:Generated_Source\PSoC5/SPI_adc.c **** 
 304              		.loc 1 452 0
 305 0054 0E4D     		ldr	r5, .L28+20
 306              	.LBE77:
ARM GAS  C:\Users\larco\AppData\Local\Temp\ccUwEttB.s 			page 25


 307              	.LBE76:
 308              	.LBB79:
 309              	.LBB70:
1007:Generated_Source\PSoC5/SPI_adc.c ****     SPI_adc_AUX_CONTROL_DP0_REG &= ((uint8) ~SPI_adc_TX_FIFO_CLR);
 310              		.loc 1 1007 0
 311 0056 42F00102 		orr	r2, r2, #1
 312 005a 1A70     		strb	r2, [r3]
1008:Generated_Source\PSoC5/SPI_adc.c **** 
 313              		.loc 1 1008 0
 314 005c 1A78     		ldrb	r2, [r3]	@ zero_extendqisi2
 315 005e 02F0FE02 		and	r2, r2, #254
 316 0062 1A70     		strb	r2, [r3]
 317              		.loc 1 1015 0
 318 0064 FFF7FEFF 		bl	CyExitCriticalSection
 319              	.LVL7:
 320              	.LBE70:
 321              	.LBE79:
 101:Generated_Source\PSoC5/SPI_adc.c ****     SPI_adc_RX_STATUS_MASK_REG = SPI_adc_RX_INIT_INTERRUPTS_MASK;
 322              		.loc 1 101 0
 323 0068 0D48     		ldr	r0, .L28+36
 102:Generated_Source\PSoC5/SPI_adc.c **** }
 324              		.loc 1 102 0
 325 006a 0E49     		ldr	r1, .L28+40
 101:Generated_Source\PSoC5/SPI_adc.c ****     SPI_adc_RX_STATUS_MASK_REG = SPI_adc_RX_INIT_INTERRUPTS_MASK;
 326              		.loc 1 101 0
 327 006c 0023     		movs	r3, #0
 328              	.LBE65:
 329              	.LBE64:
 168:Generated_Source\PSoC5/SPI_adc.c ****     }
 330              		.loc 1 168 0
 331 006e 0122     		movs	r2, #1
 332              	.LBB83:
 333              	.LBB82:
 334              	.LBB80:
 335              	.LBB74:
 401:Generated_Source\PSoC5/SPI_adc.c **** 
 336              		.loc 1 401 0
 337 0070 3678     		ldrb	r6, [r6]	@ zero_extendqisi2
 338              	.LBE74:
 339              	.LBE80:
 340              	.LBB81:
 341              	.LBB78:
 452:Generated_Source\PSoC5/SPI_adc.c **** 
 342              		.loc 1 452 0
 343 0072 2D78     		ldrb	r5, [r5]	@ zero_extendqisi2
 344              	.LBE78:
 345              	.LBE81:
 101:Generated_Source\PSoC5/SPI_adc.c ****     SPI_adc_RX_STATUS_MASK_REG = SPI_adc_RX_INIT_INTERRUPTS_MASK;
 346              		.loc 1 101 0
 347 0074 0370     		strb	r3, [r0]
 102:Generated_Source\PSoC5/SPI_adc.c **** }
 348              		.loc 1 102 0
 349 0076 0B70     		strb	r3, [r1]
 350              	.LBE82:
 351              	.LBE83:
 168:Generated_Source\PSoC5/SPI_adc.c ****     }
 352              		.loc 1 168 0
ARM GAS  C:\Users\larco\AppData\Local\Temp\ccUwEttB.s 			page 26


 353 0078 2270     		strb	r2, [r4]
 354 007a C5E7     		b	.L18
 355              	.L29:
 356              		.align	2
 357              	.L28:
 358 007c 00000000 		.word	.LANCHOR0
 359 0080 97650040 		.word	1073767831
 360 0084 94650040 		.word	1073767828
 361 0088 95650040 		.word	1073767829
 362 008c 87650040 		.word	1073767815
 363 0090 65650040 		.word	1073767781
 364 0094 57640040 		.word	1073767511
 365 0098 97640040 		.word	1073767575
 366 009c 64650040 		.word	1073767780
 367 00a0 84650040 		.word	1073767812
 368 00a4 85650040 		.word	1073767813
 369              		.cfi_endproc
 370              	.LFE2:
 371              		.size	SPI_adc_Start, .-SPI_adc_Start
 372              		.section	.text.SPI_adc_Stop,"ax",%progbits
 373              		.align	2
 374              		.global	SPI_adc_Stop
 375              		.thumb
 376              		.thumb_func
 377              		.type	SPI_adc_Stop, %function
 378              	SPI_adc_Stop:
 379              	.LFB3:
 193:Generated_Source\PSoC5/SPI_adc.c ****     uint8 enableInterrupts;
 380              		.loc 1 193 0
 381              		.cfi_startproc
 382              		@ args = 0, pretend = 0, frame = 0
 383              		@ frame_needed = 0, uses_anonymous_args = 0
 384 0000 08B5     		push	{r3, lr}
 385              		.cfi_def_cfa_offset 8
 386              		.cfi_offset 3, -8
 387              		.cfi_offset 14, -4
 196:Generated_Source\PSoC5/SPI_adc.c ****     SPI_adc_TX_STATUS_ACTL_REG &= ((uint8) ~SPI_adc_INT_ENABLE);
 388              		.loc 1 196 0
 389 0002 FFF7FEFF 		bl	CyEnterCriticalSection
 390              	.LVL8:
 197:Generated_Source\PSoC5/SPI_adc.c ****     SPI_adc_RX_STATUS_ACTL_REG &= ((uint8) ~SPI_adc_INT_ENABLE);
 391              		.loc 1 197 0
 392 0006 0749     		ldr	r1, .L32
 198:Generated_Source\PSoC5/SPI_adc.c ****     CyExitCriticalSection(enableInterrupts);
 393              		.loc 1 198 0
 394 0008 074A     		ldr	r2, .L32+4
 197:Generated_Source\PSoC5/SPI_adc.c ****     SPI_adc_RX_STATUS_ACTL_REG &= ((uint8) ~SPI_adc_INT_ENABLE);
 395              		.loc 1 197 0
 396 000a 0B78     		ldrb	r3, [r1]	@ zero_extendqisi2
 397 000c 03F0EF03 		and	r3, r3, #239
 398 0010 0B70     		strb	r3, [r1]
 198:Generated_Source\PSoC5/SPI_adc.c ****     CyExitCriticalSection(enableInterrupts);
 399              		.loc 1 198 0
 400 0012 1378     		ldrb	r3, [r2]	@ zero_extendqisi2
 401 0014 03F0EF03 		and	r3, r3, #239
 402 0018 1370     		strb	r3, [r2]
 207:Generated_Source\PSoC5/SPI_adc.c **** 
ARM GAS  C:\Users\larco\AppData\Local\Temp\ccUwEttB.s 			page 27


 403              		.loc 1 207 0
 404 001a BDE80840 		pop	{r3, lr}
 405              		.cfi_restore 14
 406              		.cfi_restore 3
 407              		.cfi_def_cfa_offset 0
 199:Generated_Source\PSoC5/SPI_adc.c **** 
 408              		.loc 1 199 0
 409 001e FFF7FEBF 		b	CyExitCriticalSection
 410              	.LVL9:
 411              	.L33:
 412 0022 00BF     		.align	2
 413              	.L32:
 414 0024 94650040 		.word	1073767828
 415 0028 95650040 		.word	1073767829
 416              		.cfi_endproc
 417              	.LFE3:
 418              		.size	SPI_adc_Stop, .-SPI_adc_Stop
 419              		.section	.text.SPI_adc_EnableTxInt,"ax",%progbits
 420              		.align	2
 421              		.global	SPI_adc_EnableTxInt
 422              		.thumb
 423              		.thumb_func
 424              		.type	SPI_adc_EnableTxInt, %function
 425              	SPI_adc_EnableTxInt:
 426              	.LFB33:
 427              		.cfi_startproc
 428              		@ args = 0, pretend = 0, frame = 0
 429              		@ frame_needed = 0, uses_anonymous_args = 0
 430              		@ link register save eliminated.
 431 0000 7047     		bx	lr
 432              		.cfi_endproc
 433              	.LFE33:
 434              		.size	SPI_adc_EnableTxInt, .-SPI_adc_EnableTxInt
 435 0002 00BF     		.section	.text.SPI_adc_EnableRxInt,"ax",%progbits
 436              		.align	2
 437              		.global	SPI_adc_EnableRxInt
 438              		.thumb
 439              		.thumb_func
 440              		.type	SPI_adc_EnableRxInt, %function
 441              	SPI_adc_EnableRxInt:
 442              	.LFB31:
 443              		.cfi_startproc
 444              		@ args = 0, pretend = 0, frame = 0
 445              		@ frame_needed = 0, uses_anonymous_args = 0
 446              		@ link register save eliminated.
 447 0000 7047     		bx	lr
 448              		.cfi_endproc
 449              	.LFE31:
 450              		.size	SPI_adc_EnableRxInt, .-SPI_adc_EnableRxInt
 451 0002 00BF     		.section	.text.SPI_adc_DisableTxInt,"ax",%progbits
 452              		.align	2
 453              		.global	SPI_adc_DisableTxInt
 454              		.thumb
 455              		.thumb_func
 456              		.type	SPI_adc_DisableTxInt, %function
 457              	SPI_adc_DisableTxInt:
 458              	.LFB29:
ARM GAS  C:\Users\larco\AppData\Local\Temp\ccUwEttB.s 			page 28


 459              		.cfi_startproc
 460              		@ args = 0, pretend = 0, frame = 0
 461              		@ frame_needed = 0, uses_anonymous_args = 0
 462              		@ link register save eliminated.
 463 0000 7047     		bx	lr
 464              		.cfi_endproc
 465              	.LFE29:
 466              		.size	SPI_adc_DisableTxInt, .-SPI_adc_DisableTxInt
 467 0002 00BF     		.section	.text.SPI_adc_DisableRxInt,"ax",%progbits
 468              		.align	2
 469              		.global	SPI_adc_DisableRxInt
 470              		.thumb
 471              		.thumb_func
 472              		.type	SPI_adc_DisableRxInt, %function
 473              	SPI_adc_DisableRxInt:
 474              	.LFB27:
 475              		.cfi_startproc
 476              		@ args = 0, pretend = 0, frame = 0
 477              		@ frame_needed = 0, uses_anonymous_args = 0
 478              		@ link register save eliminated.
 479 0000 7047     		bx	lr
 480              		.cfi_endproc
 481              	.LFE27:
 482              		.size	SPI_adc_DisableRxInt, .-SPI_adc_DisableRxInt
 483 0002 00BF     		.section	.text.SPI_adc_SetTxInterruptMode,"ax",%progbits
 484              		.align	2
 485              		.global	SPI_adc_SetTxInterruptMode
 486              		.thumb
 487              		.thumb_func
 488              		.type	SPI_adc_SetTxInterruptMode, %function
 489              	SPI_adc_SetTxInterruptMode:
 490              	.LFB8:
 329:Generated_Source\PSoC5/SPI_adc.c ****     SPI_adc_TX_STATUS_MASK_REG = intSrc;
 491              		.loc 1 329 0
 492              		.cfi_startproc
 493              		@ args = 0, pretend = 0, frame = 0
 494              		@ frame_needed = 0, uses_anonymous_args = 0
 495              		@ link register save eliminated.
 496              	.LVL10:
 330:Generated_Source\PSoC5/SPI_adc.c **** }
 497              		.loc 1 330 0
 498 0000 014B     		ldr	r3, .L39
 499 0002 1870     		strb	r0, [r3]
 500 0004 7047     		bx	lr
 501              	.L40:
 502 0006 00BF     		.align	2
 503              	.L39:
 504 0008 84650040 		.word	1073767812
 505              		.cfi_endproc
 506              	.LFE8:
 507              		.size	SPI_adc_SetTxInterruptMode, .-SPI_adc_SetTxInterruptMode
 508              		.section	.text.SPI_adc_SetRxInterruptMode,"ax",%progbits
 509              		.align	2
 510              		.global	SPI_adc_SetRxInterruptMode
 511              		.thumb
 512              		.thumb_func
 513              		.type	SPI_adc_SetRxInterruptMode, %function
ARM GAS  C:\Users\larco\AppData\Local\Temp\ccUwEttB.s 			page 29


 514              	SPI_adc_SetRxInterruptMode:
 515              	.LFB9:
 353:Generated_Source\PSoC5/SPI_adc.c ****     SPI_adc_RX_STATUS_MASK_REG  = intSrc;
 516              		.loc 1 353 0
 517              		.cfi_startproc
 518              		@ args = 0, pretend = 0, frame = 0
 519              		@ frame_needed = 0, uses_anonymous_args = 0
 520              		@ link register save eliminated.
 521              	.LVL11:
 354:Generated_Source\PSoC5/SPI_adc.c **** }
 522              		.loc 1 354 0
 523 0000 014B     		ldr	r3, .L42
 524 0002 1870     		strb	r0, [r3]
 525 0004 7047     		bx	lr
 526              	.L43:
 527 0006 00BF     		.align	2
 528              	.L42:
 529 0008 85650040 		.word	1073767813
 530              		.cfi_endproc
 531              	.LFE9:
 532              		.size	SPI_adc_SetRxInterruptMode, .-SPI_adc_SetRxInterruptMode
 533              		.section	.text.SPI_adc_ReadTxStatus,"ax",%progbits
 534              		.align	2
 535              		.global	SPI_adc_ReadTxStatus
 536              		.thumb
 537              		.thumb_func
 538              		.type	SPI_adc_ReadTxStatus, %function
 539              	SPI_adc_ReadTxStatus:
 540              	.LFB10:
 387:Generated_Source\PSoC5/SPI_adc.c ****     uint8 tmpStatus;
 541              		.loc 1 387 0
 542              		.cfi_startproc
 543              		@ args = 0, pretend = 0, frame = 0
 544              		@ frame_needed = 0, uses_anonymous_args = 0
 545              		@ link register save eliminated.
 401:Generated_Source\PSoC5/SPI_adc.c **** 
 546              		.loc 1 401 0
 547 0000 014B     		ldr	r3, .L45
 548 0002 1878     		ldrb	r0, [r3]	@ zero_extendqisi2
 549              	.LVL12:
 406:Generated_Source\PSoC5/SPI_adc.c **** 
 550              		.loc 1 406 0
 551 0004 7047     		bx	lr
 552              	.L46:
 553 0006 00BF     		.align	2
 554              	.L45:
 555 0008 64650040 		.word	1073767780
 556              		.cfi_endproc
 557              	.LFE10:
 558              		.size	SPI_adc_ReadTxStatus, .-SPI_adc_ReadTxStatus
 559              		.section	.text.SPI_adc_ReadRxStatus,"ax",%progbits
 560              		.align	2
 561              		.global	SPI_adc_ReadRxStatus
 562              		.thumb
 563              		.thumb_func
 564              		.type	SPI_adc_ReadRxStatus, %function
 565              	SPI_adc_ReadRxStatus:
ARM GAS  C:\Users\larco\AppData\Local\Temp\ccUwEttB.s 			page 30


 566              	.LFB11:
 438:Generated_Source\PSoC5/SPI_adc.c ****     uint8 tmpStatus;
 567              		.loc 1 438 0
 568              		.cfi_startproc
 569              		@ args = 0, pretend = 0, frame = 0
 570              		@ frame_needed = 0, uses_anonymous_args = 0
 571              		@ link register save eliminated.
 452:Generated_Source\PSoC5/SPI_adc.c **** 
 572              		.loc 1 452 0
 573 0000 014B     		ldr	r3, .L48
 574 0002 1878     		ldrb	r0, [r3]	@ zero_extendqisi2
 575              	.LVL13:
 457:Generated_Source\PSoC5/SPI_adc.c **** 
 576              		.loc 1 457 0
 577 0004 7047     		bx	lr
 578              	.L49:
 579 0006 00BF     		.align	2
 580              	.L48:
 581 0008 65650040 		.word	1073767781
 582              		.cfi_endproc
 583              	.LFE11:
 584              		.size	SPI_adc_ReadRxStatus, .-SPI_adc_ReadRxStatus
 585              		.section	.text.SPI_adc_WriteTxData,"ax",%progbits
 586              		.align	2
 587              		.global	SPI_adc_WriteTxData
 588              		.thumb
 589              		.thumb_func
 590              		.type	SPI_adc_WriteTxData, %function
 591              	SPI_adc_WriteTxData:
 592              	.LFB12:
 495:Generated_Source\PSoC5/SPI_adc.c ****     #if(SPI_adc_TX_SOFTWARE_BUF_ENABLED)
 593              		.loc 1 495 0
 594              		.cfi_startproc
 595              		@ args = 0, pretend = 0, frame = 0
 596              		@ frame_needed = 0, uses_anonymous_args = 0
 597              		@ link register save eliminated.
 598              	.LVL14:
 557:Generated_Source\PSoC5/SPI_adc.c ****         {
 599              		.loc 1 557 0
 600 0000 034A     		ldr	r2, .L54
 601              	.L51:
 557:Generated_Source\PSoC5/SPI_adc.c ****         {
 602              		.loc 1 557 0 is_stmt 0 discriminator 1
 603 0002 1378     		ldrb	r3, [r2]	@ zero_extendqisi2
 604 0004 5B07     		lsls	r3, r3, #29
 605 0006 FCD5     		bpl	.L51
 562:Generated_Source\PSoC5/SPI_adc.c **** 
 606              		.loc 1 562 0 is_stmt 1
 607 0008 024B     		ldr	r3, .L54+4
 608 000a 1870     		strb	r0, [r3]
 609 000c 7047     		bx	lr
 610              	.L55:
 611 000e 00BF     		.align	2
 612              	.L54:
 613 0010 64650040 		.word	1073767780
 614 0014 47640040 		.word	1073767495
 615              		.cfi_endproc
ARM GAS  C:\Users\larco\AppData\Local\Temp\ccUwEttB.s 			page 31


 616              	.LFE12:
 617              		.size	SPI_adc_WriteTxData, .-SPI_adc_WriteTxData
 618              		.section	.text.SPI_adc_ReadRxData,"ax",%progbits
 619              		.align	2
 620              		.global	SPI_adc_ReadRxData
 621              		.thumb
 622              		.thumb_func
 623              		.type	SPI_adc_ReadRxData, %function
 624              	SPI_adc_ReadRxData:
 625              	.LFB13:
 603:Generated_Source\PSoC5/SPI_adc.c ****     uint8 rxData;
 626              		.loc 1 603 0
 627              		.cfi_startproc
 628              		@ args = 0, pretend = 0, frame = 0
 629              		@ frame_needed = 0, uses_anonymous_args = 0
 630              		@ link register save eliminated.
 633:Generated_Source\PSoC5/SPI_adc.c **** 
 631              		.loc 1 633 0
 632 0000 014B     		ldr	r3, .L57
 633 0002 1878     		ldrb	r0, [r3]	@ zero_extendqisi2
 634              	.LVL15:
 638:Generated_Source\PSoC5/SPI_adc.c **** 
 635              		.loc 1 638 0
 636 0004 7047     		bx	lr
 637              	.L58:
 638 0006 00BF     		.align	2
 639              	.L57:
 640 0008 57640040 		.word	1073767511
 641              		.cfi_endproc
 642              	.LFE13:
 643              		.size	SPI_adc_ReadRxData, .-SPI_adc_ReadRxData
 644              		.section	.text.SPI_adc_GetRxBufferSize,"ax",%progbits
 645              		.align	2
 646              		.global	SPI_adc_GetRxBufferSize
 647              		.thumb
 648              		.thumb_func
 649              		.type	SPI_adc_GetRxBufferSize, %function
 650              	SPI_adc_GetRxBufferSize:
 651              	.LFB14:
 667:Generated_Source\PSoC5/SPI_adc.c ****     uint8 size;
 652              		.loc 1 667 0
 653              		.cfi_startproc
 654              		@ args = 0, pretend = 0, frame = 0
 655              		@ frame_needed = 0, uses_anonymous_args = 0
 656              		@ link register save eliminated.
 693:Generated_Source\PSoC5/SPI_adc.c **** 
 657              		.loc 1 693 0
 658 0000 024B     		ldr	r3, .L60
 659 0002 1878     		ldrb	r0, [r3]	@ zero_extendqisi2
 660              	.LVL16:
 698:Generated_Source\PSoC5/SPI_adc.c **** 
 661              		.loc 1 698 0
 662 0004 C0F34010 		ubfx	r0, r0, #5, #1
 663              	.LVL17:
 664 0008 7047     		bx	lr
 665              	.L61:
 666 000a 00BF     		.align	2
ARM GAS  C:\Users\larco\AppData\Local\Temp\ccUwEttB.s 			page 32


 667              	.L60:
 668 000c 65650040 		.word	1073767781
 669              		.cfi_endproc
 670              	.LFE14:
 671              		.size	SPI_adc_GetRxBufferSize, .-SPI_adc_GetRxBufferSize
 672              		.section	.text.SPI_adc_GetTxBufferSize,"ax",%progbits
 673              		.align	2
 674              		.global	SPI_adc_GetTxBufferSize
 675              		.thumb
 676              		.thumb_func
 677              		.type	SPI_adc_GetTxBufferSize, %function
 678              	SPI_adc_GetTxBufferSize:
 679              	.LFB15:
 728:Generated_Source\PSoC5/SPI_adc.c ****     uint8 size;
 680              		.loc 1 728 0
 681              		.cfi_startproc
 682              		@ args = 0, pretend = 0, frame = 0
 683              		@ frame_needed = 0, uses_anonymous_args = 0
 684              		@ link register save eliminated.
 752:Generated_Source\PSoC5/SPI_adc.c **** 
 685              		.loc 1 752 0
 686 0000 064B     		ldr	r3, .L66
 687 0002 1B78     		ldrb	r3, [r3]	@ zero_extendqisi2
 688 0004 DBB2     		uxtb	r3, r3
 689              	.LVL18:
 754:Generated_Source\PSoC5/SPI_adc.c ****         {
 690              		.loc 1 754 0
 691 0006 9A07     		lsls	r2, r3, #30
 692 0008 05D4     		bmi	.L64
 758:Generated_Source\PSoC5/SPI_adc.c ****         {
 693              		.loc 1 758 0
 694 000a 13F0040F 		tst	r3, #4
 764:Generated_Source\PSoC5/SPI_adc.c ****         }
 695              		.loc 1 764 0
 696 000e 14BF     		ite	ne
 697 0010 0120     		movne	r0, #1
 698 0012 0420     		moveq	r0, #4
 699 0014 7047     		bx	lr
 700              	.L64:
 756:Generated_Source\PSoC5/SPI_adc.c ****         }
 701              		.loc 1 756 0
 702 0016 0020     		movs	r0, #0
 703              	.LVL19:
 770:Generated_Source\PSoC5/SPI_adc.c **** 
 704              		.loc 1 770 0
 705 0018 7047     		bx	lr
 706              	.L67:
 707 001a 00BF     		.align	2
 708              	.L66:
 709 001c 64650040 		.word	1073767780
 710              		.cfi_endproc
 711              	.LFE15:
 712              		.size	SPI_adc_GetTxBufferSize, .-SPI_adc_GetTxBufferSize
 713              		.section	.text.SPI_adc_ClearRxBuffer,"ax",%progbits
 714              		.align	2
 715              		.global	SPI_adc_ClearRxBuffer
 716              		.thumb
ARM GAS  C:\Users\larco\AppData\Local\Temp\ccUwEttB.s 			page 33


 717              		.thumb_func
 718              		.type	SPI_adc_ClearRxBuffer, %function
 719              	SPI_adc_ClearRxBuffer:
 720              	.LFB16:
 807:Generated_Source\PSoC5/SPI_adc.c ****     /* Clear Hardware RX FIFO */
 721              		.loc 1 807 0
 722              		.cfi_startproc
 723              		@ args = 0, pretend = 0, frame = 0
 724              		@ frame_needed = 0, uses_anonymous_args = 0
 725              		@ link register save eliminated.
 809:Generated_Source\PSoC5/SPI_adc.c ****     {
 726              		.loc 1 809 0
 727 0000 044A     		ldr	r2, .L76
 728 0002 1378     		ldrb	r3, [r2]	@ zero_extendqisi2
 729 0004 9906     		lsls	r1, r3, #26
 730 0006 04D5     		bpl	.L68
 811:Generated_Source\PSoC5/SPI_adc.c ****     }
 731              		.loc 1 811 0
 732 0008 0349     		ldr	r1, .L76+4
 733              	.L73:
 734 000a 0B78     		ldrb	r3, [r1]	@ zero_extendqisi2
 809:Generated_Source\PSoC5/SPI_adc.c ****     {
 735              		.loc 1 809 0
 736 000c 1378     		ldrb	r3, [r2]	@ zero_extendqisi2
 737 000e 9B06     		lsls	r3, r3, #26
 738 0010 FBD4     		bmi	.L73
 739              	.L68:
 740 0012 7047     		bx	lr
 741              	.L77:
 742              		.align	2
 743              	.L76:
 744 0014 65650040 		.word	1073767781
 745 0018 57640040 		.word	1073767511
 746              		.cfi_endproc
 747              	.LFE16:
 748              		.size	SPI_adc_ClearRxBuffer, .-SPI_adc_ClearRxBuffer
 749              		.section	.text.SPI_adc_ClearTxBuffer,"ax",%progbits
 750              		.align	2
 751              		.global	SPI_adc_ClearTxBuffer
 752              		.thumb
 753              		.thumb_func
 754              		.type	SPI_adc_ClearTxBuffer, %function
 755              	SPI_adc_ClearTxBuffer:
 756              	.LFB17:
 862:Generated_Source\PSoC5/SPI_adc.c ****     uint8 enableInterrupts;
 757              		.loc 1 862 0
 758              		.cfi_startproc
 759              		@ args = 0, pretend = 0, frame = 0
 760              		@ frame_needed = 0, uses_anonymous_args = 0
 761 0000 08B5     		push	{r3, lr}
 762              		.cfi_def_cfa_offset 8
 763              		.cfi_offset 3, -8
 764              		.cfi_offset 14, -4
 865:Generated_Source\PSoC5/SPI_adc.c ****     /* Clear TX FIFO */
 765              		.loc 1 865 0
 766 0002 FFF7FEFF 		bl	CyEnterCriticalSection
 767              	.LVL20:
ARM GAS  C:\Users\larco\AppData\Local\Temp\ccUwEttB.s 			page 34


 867:Generated_Source\PSoC5/SPI_adc.c ****     SPI_adc_AUX_CONTROL_DP0_REG &= ((uint8) ~SPI_adc_TX_FIFO_CLR);
 768              		.loc 1 867 0
 769 0006 064B     		ldr	r3, .L80
 770 0008 1A78     		ldrb	r2, [r3]	@ zero_extendqisi2
 771 000a 42F00102 		orr	r2, r2, #1
 772 000e 1A70     		strb	r2, [r3]
 868:Generated_Source\PSoC5/SPI_adc.c **** 
 773              		.loc 1 868 0
 774 0010 1A78     		ldrb	r2, [r3]	@ zero_extendqisi2
 775 0012 02F0FE02 		and	r2, r2, #254
 776 0016 1A70     		strb	r2, [r3]
 890:Generated_Source\PSoC5/SPI_adc.c **** 
 777              		.loc 1 890 0
 778 0018 BDE80840 		pop	{r3, lr}
 779              		.cfi_restore 14
 780              		.cfi_restore 3
 781              		.cfi_def_cfa_offset 0
 875:Generated_Source\PSoC5/SPI_adc.c **** 
 782              		.loc 1 875 0
 783 001c FFF7FEBF 		b	CyExitCriticalSection
 784              	.LVL21:
 785              	.L81:
 786              		.align	2
 787              	.L80:
 788 0020 97640040 		.word	1073767575
 789              		.cfi_endproc
 790              	.LFE17:
 791              		.size	SPI_adc_ClearTxBuffer, .-SPI_adc_ClearTxBuffer
 792              		.section	.text.SPI_adc_PutArray,"ax",%progbits
 793              		.align	2
 794              		.global	SPI_adc_PutArray
 795              		.thumb
 796              		.thumb_func
 797              		.type	SPI_adc_PutArray, %function
 798              	SPI_adc_PutArray:
 799              	.LFB18:
 964:Generated_Source\PSoC5/SPI_adc.c ****     uint8 bufIndex;
 800              		.loc 1 964 0
 801              		.cfi_startproc
 802              		@ args = 0, pretend = 0, frame = 0
 803              		@ frame_needed = 0, uses_anonymous_args = 0
 804              		@ link register save eliminated.
 805              	.LVL22:
 969:Generated_Source\PSoC5/SPI_adc.c ****     {
 806              		.loc 1 969 0
 807 0000 69B1     		cbz	r1, .L92
 964:Generated_Source\PSoC5/SPI_adc.c ****     uint8 bufIndex;
 808              		.loc 1 964 0
 809 0002 70B4     		push	{r4, r5, r6}
 810              		.cfi_def_cfa_offset 12
 811              		.cfi_offset 4, -12
 812              		.cfi_offset 5, -8
 813              		.cfi_offset 6, -4
 814              	.LBB84:
 815              	.LBB85:
 557:Generated_Source\PSoC5/SPI_adc.c ****         {
 816              		.loc 1 557 0
ARM GAS  C:\Users\larco\AppData\Local\Temp\ccUwEttB.s 			page 35


 817 0004 064A     		ldr	r2, .L93
 562:Generated_Source\PSoC5/SPI_adc.c **** 
 818              		.loc 1 562 0
 819 0006 074E     		ldr	r6, .L93+4
 820              	.LBE85:
 821              	.LBE84:
 969:Generated_Source\PSoC5/SPI_adc.c ****     {
 822              		.loc 1 969 0
 823 0008 0024     		movs	r4, #0
 824              	.LVL23:
 825              	.L85:
 971:Generated_Source\PSoC5/SPI_adc.c ****         bufIndex++;
 826              		.loc 1 971 0
 827 000a 055D     		ldrb	r5, [r0, r4]	@ zero_extendqisi2
 828              	.LVL24:
 829              	.L84:
 830              	.LBB88:
 831              	.LBB86:
 557:Generated_Source\PSoC5/SPI_adc.c ****         {
 832              		.loc 1 557 0
 833 000c 1378     		ldrb	r3, [r2]	@ zero_extendqisi2
 834 000e 5B07     		lsls	r3, r3, #29
 835 0010 FCD5     		bpl	.L84
 836              	.LBE86:
 837              	.LBE88:
 972:Generated_Source\PSoC5/SPI_adc.c ****         byteCount--;
 838              		.loc 1 972 0
 839 0012 0134     		adds	r4, r4, #1
 840              	.LVL25:
 841 0014 E4B2     		uxtb	r4, r4
 969:Generated_Source\PSoC5/SPI_adc.c ****     {
 842              		.loc 1 969 0
 843 0016 A142     		cmp	r1, r4
 844              	.LBB89:
 845              	.LBB87:
 562:Generated_Source\PSoC5/SPI_adc.c **** 
 846              		.loc 1 562 0
 847 0018 3570     		strb	r5, [r6]
 848              	.LVL26:
 849              	.LBE87:
 850              	.LBE89:
 969:Generated_Source\PSoC5/SPI_adc.c ****     {
 851              		.loc 1 969 0
 852 001a F6D1     		bne	.L85
 975:Generated_Source\PSoC5/SPI_adc.c **** 
 853              		.loc 1 975 0
 854 001c 70BC     		pop	{r4, r5, r6}
 855              		.cfi_restore 6
 856              		.cfi_restore 5
 857              		.cfi_restore 4
 858              		.cfi_def_cfa_offset 0
 859              	.LVL27:
 860              	.L92:
 861 001e 7047     		bx	lr
 862              	.L94:
 863              		.align	2
 864              	.L93:
ARM GAS  C:\Users\larco\AppData\Local\Temp\ccUwEttB.s 			page 36


 865 0020 64650040 		.word	1073767780
 866 0024 47640040 		.word	1073767495
 867              		.cfi_endproc
 868              	.LFE18:
 869              		.size	SPI_adc_PutArray, .-SPI_adc_PutArray
 870              		.section	.text.SPI_adc_ClearFIFO,"ax",%progbits
 871              		.align	2
 872              		.global	SPI_adc_ClearFIFO
 873              		.thumb
 874              		.thumb_func
 875              		.type	SPI_adc_ClearFIFO, %function
 876              	SPI_adc_ClearFIFO:
 877              	.LFB19:
 996:Generated_Source\PSoC5/SPI_adc.c ****     uint8 enableInterrupts;
 878              		.loc 1 996 0
 879              		.cfi_startproc
 880              		@ args = 0, pretend = 0, frame = 0
 881              		@ frame_needed = 0, uses_anonymous_args = 0
 882 0000 08B5     		push	{r3, lr}
 883              		.cfi_def_cfa_offset 8
 884              		.cfi_offset 3, -8
 885              		.cfi_offset 14, -4
1000:Generated_Source\PSoC5/SPI_adc.c ****     {
 886              		.loc 1 1000 0
 887 0002 0C4A     		ldr	r2, .L104
 888 0004 1378     		ldrb	r3, [r2]	@ zero_extendqisi2
 889 0006 9906     		lsls	r1, r3, #26
 890 0008 04D5     		bpl	.L96
1002:Generated_Source\PSoC5/SPI_adc.c ****     }
 891              		.loc 1 1002 0
 892 000a 0B49     		ldr	r1, .L104+4
 893              	.L100:
 894 000c 0B78     		ldrb	r3, [r1]	@ zero_extendqisi2
1000:Generated_Source\PSoC5/SPI_adc.c ****     {
 895              		.loc 1 1000 0
 896 000e 1378     		ldrb	r3, [r2]	@ zero_extendqisi2
 897 0010 9B06     		lsls	r3, r3, #26
 898 0012 FBD4     		bmi	.L100
 899              	.L96:
1005:Generated_Source\PSoC5/SPI_adc.c ****     /* Clear TX FIFO */
 900              		.loc 1 1005 0
 901 0014 FFF7FEFF 		bl	CyEnterCriticalSection
 902              	.LVL28:
1007:Generated_Source\PSoC5/SPI_adc.c ****     SPI_adc_AUX_CONTROL_DP0_REG &= ((uint8) ~SPI_adc_TX_FIFO_CLR);
 903              		.loc 1 1007 0
 904 0018 084B     		ldr	r3, .L104+8
 905 001a 1A78     		ldrb	r2, [r3]	@ zero_extendqisi2
 906 001c 42F00102 		orr	r2, r2, #1
 907 0020 1A70     		strb	r2, [r3]
1008:Generated_Source\PSoC5/SPI_adc.c **** 
 908              		.loc 1 1008 0
 909 0022 1A78     		ldrb	r2, [r3]	@ zero_extendqisi2
 910 0024 02F0FE02 		and	r2, r2, #254
 911 0028 1A70     		strb	r2, [r3]
1016:Generated_Source\PSoC5/SPI_adc.c **** }
 912              		.loc 1 1016 0
 913 002a BDE80840 		pop	{r3, lr}
ARM GAS  C:\Users\larco\AppData\Local\Temp\ccUwEttB.s 			page 37


 914              		.cfi_restore 14
 915              		.cfi_restore 3
 916              		.cfi_def_cfa_offset 0
1015:Generated_Source\PSoC5/SPI_adc.c **** }
 917              		.loc 1 1015 0
 918 002e FFF7FEBF 		b	CyExitCriticalSection
 919              	.LVL29:
 920              	.L105:
 921 0032 00BF     		.align	2
 922              	.L104:
 923 0034 65650040 		.word	1073767781
 924 0038 57640040 		.word	1073767511
 925 003c 97640040 		.word	1073767575
 926              		.cfi_endproc
 927              	.LFE19:
 928              		.size	SPI_adc_ClearFIFO, .-SPI_adc_ClearFIFO
 929              		.section	.text.SPI_adc_EnableInt,"ax",%progbits
 930              		.align	2
 931              		.global	SPI_adc_EnableInt
 932              		.thumb
 933              		.thumb_func
 934              		.type	SPI_adc_EnableInt, %function
 935              	SPI_adc_EnableInt:
 936              	.LFB25:
 937              		.cfi_startproc
 938              		@ args = 0, pretend = 0, frame = 0
 939              		@ frame_needed = 0, uses_anonymous_args = 0
 940              		@ link register save eliminated.
 941 0000 7047     		bx	lr
 942              		.cfi_endproc
 943              	.LFE25:
 944              		.size	SPI_adc_EnableInt, .-SPI_adc_EnableInt
 945 0002 00BF     		.section	.text.SPI_adc_DisableInt,"ax",%progbits
 946              		.align	2
 947              		.global	SPI_adc_DisableInt
 948              		.thumb
 949              		.thumb_func
 950              		.type	SPI_adc_DisableInt, %function
 951              	SPI_adc_DisableInt:
 952              	.LFB21:
1017:Generated_Source\PSoC5/SPI_adc.c **** 
1018:Generated_Source\PSoC5/SPI_adc.c **** 
1019:Generated_Source\PSoC5/SPI_adc.c **** /* Following functions are for version Compatibility, they are obsolete.
1020:Generated_Source\PSoC5/SPI_adc.c **** *  Please do not use it in new projects.
1021:Generated_Source\PSoC5/SPI_adc.c **** */
1022:Generated_Source\PSoC5/SPI_adc.c **** 
1023:Generated_Source\PSoC5/SPI_adc.c **** 
1024:Generated_Source\PSoC5/SPI_adc.c **** /*******************************************************************************
1025:Generated_Source\PSoC5/SPI_adc.c **** * Function Name: SPI_adc_EnableInt
1026:Generated_Source\PSoC5/SPI_adc.c **** ********************************************************************************
1027:Generated_Source\PSoC5/SPI_adc.c **** *
1028:Generated_Source\PSoC5/SPI_adc.c **** * Summary:
1029:Generated_Source\PSoC5/SPI_adc.c **** *  Enable internal interrupt generation.
1030:Generated_Source\PSoC5/SPI_adc.c **** *
1031:Generated_Source\PSoC5/SPI_adc.c **** * Parameters:
1032:Generated_Source\PSoC5/SPI_adc.c **** *  None.
1033:Generated_Source\PSoC5/SPI_adc.c **** *
ARM GAS  C:\Users\larco\AppData\Local\Temp\ccUwEttB.s 			page 38


1034:Generated_Source\PSoC5/SPI_adc.c **** * Return:
1035:Generated_Source\PSoC5/SPI_adc.c **** *  None.
1036:Generated_Source\PSoC5/SPI_adc.c **** *
1037:Generated_Source\PSoC5/SPI_adc.c **** * Theory:
1038:Generated_Source\PSoC5/SPI_adc.c **** *  Enable the internal interrupt output -or- the interrupt component itself.
1039:Generated_Source\PSoC5/SPI_adc.c **** *
1040:Generated_Source\PSoC5/SPI_adc.c **** *******************************************************************************/
1041:Generated_Source\PSoC5/SPI_adc.c **** void SPI_adc_EnableInt(void) 
1042:Generated_Source\PSoC5/SPI_adc.c **** {
1043:Generated_Source\PSoC5/SPI_adc.c ****     SPI_adc_EnableRxInt();
1044:Generated_Source\PSoC5/SPI_adc.c ****     SPI_adc_EnableTxInt();
1045:Generated_Source\PSoC5/SPI_adc.c **** }
1046:Generated_Source\PSoC5/SPI_adc.c **** 
1047:Generated_Source\PSoC5/SPI_adc.c **** 
1048:Generated_Source\PSoC5/SPI_adc.c **** /*******************************************************************************
1049:Generated_Source\PSoC5/SPI_adc.c **** * Function Name: SPI_adc_DisableInt
1050:Generated_Source\PSoC5/SPI_adc.c **** ********************************************************************************
1051:Generated_Source\PSoC5/SPI_adc.c **** *
1052:Generated_Source\PSoC5/SPI_adc.c **** * Summary:
1053:Generated_Source\PSoC5/SPI_adc.c **** *  Disable internal interrupt generation.
1054:Generated_Source\PSoC5/SPI_adc.c **** *
1055:Generated_Source\PSoC5/SPI_adc.c **** * Parameters:
1056:Generated_Source\PSoC5/SPI_adc.c **** *  None.
1057:Generated_Source\PSoC5/SPI_adc.c **** *
1058:Generated_Source\PSoC5/SPI_adc.c **** * Return:
1059:Generated_Source\PSoC5/SPI_adc.c **** *  None.
1060:Generated_Source\PSoC5/SPI_adc.c **** *
1061:Generated_Source\PSoC5/SPI_adc.c **** * Theory:
1062:Generated_Source\PSoC5/SPI_adc.c **** *  Disable the internal interrupt output -or- the interrupt component itself.
1063:Generated_Source\PSoC5/SPI_adc.c **** *
1064:Generated_Source\PSoC5/SPI_adc.c **** *******************************************************************************/
1065:Generated_Source\PSoC5/SPI_adc.c **** void SPI_adc_DisableInt(void) 
1066:Generated_Source\PSoC5/SPI_adc.c **** {
 953              		.loc 1 1066 0
 954              		.cfi_startproc
 955              		@ args = 0, pretend = 0, frame = 0
 956              		@ frame_needed = 0, uses_anonymous_args = 0
 957              		@ link register save eliminated.
 958 0000 7047     		bx	lr
 959              		.cfi_endproc
 960              	.LFE21:
 961              		.size	SPI_adc_DisableInt, .-SPI_adc_DisableInt
 962 0002 00BF     		.section	.text.SPI_adc_SetInterruptMode,"ax",%progbits
 963              		.align	2
 964              		.global	SPI_adc_SetInterruptMode
 965              		.thumb
 966              		.thumb_func
 967              		.type	SPI_adc_SetInterruptMode, %function
 968              	SPI_adc_SetInterruptMode:
 969              	.LFB22:
1067:Generated_Source\PSoC5/SPI_adc.c ****     SPI_adc_DisableTxInt();
1068:Generated_Source\PSoC5/SPI_adc.c ****     SPI_adc_DisableRxInt();
1069:Generated_Source\PSoC5/SPI_adc.c **** }
1070:Generated_Source\PSoC5/SPI_adc.c **** 
1071:Generated_Source\PSoC5/SPI_adc.c **** 
1072:Generated_Source\PSoC5/SPI_adc.c **** /*******************************************************************************
1073:Generated_Source\PSoC5/SPI_adc.c **** * Function Name: SPI_adc_SetInterruptMode
ARM GAS  C:\Users\larco\AppData\Local\Temp\ccUwEttB.s 			page 39


1074:Generated_Source\PSoC5/SPI_adc.c **** ********************************************************************************
1075:Generated_Source\PSoC5/SPI_adc.c **** *
1076:Generated_Source\PSoC5/SPI_adc.c **** * Summary:
1077:Generated_Source\PSoC5/SPI_adc.c **** *  Configure which status bits trigger an interrupt event.
1078:Generated_Source\PSoC5/SPI_adc.c **** *
1079:Generated_Source\PSoC5/SPI_adc.c **** * Parameters:
1080:Generated_Source\PSoC5/SPI_adc.c **** *  intSrc: An or'd combination of the desired status bit masks (defined in the
1081:Generated_Source\PSoC5/SPI_adc.c **** *  header file).
1082:Generated_Source\PSoC5/SPI_adc.c **** *
1083:Generated_Source\PSoC5/SPI_adc.c **** * Return:
1084:Generated_Source\PSoC5/SPI_adc.c **** *  None.
1085:Generated_Source\PSoC5/SPI_adc.c **** *
1086:Generated_Source\PSoC5/SPI_adc.c **** * Theory:
1087:Generated_Source\PSoC5/SPI_adc.c **** *  Enables the output of specific status bits to the interrupt controller.
1088:Generated_Source\PSoC5/SPI_adc.c **** *
1089:Generated_Source\PSoC5/SPI_adc.c **** *******************************************************************************/
1090:Generated_Source\PSoC5/SPI_adc.c **** void SPI_adc_SetInterruptMode(uint8 intSrc) 
1091:Generated_Source\PSoC5/SPI_adc.c **** {
 970              		.loc 1 1091 0
 971              		.cfi_startproc
 972              		@ args = 0, pretend = 0, frame = 0
 973              		@ frame_needed = 0, uses_anonymous_args = 0
 974              		@ link register save eliminated.
 975              	.LVL30:
1092:Generated_Source\PSoC5/SPI_adc.c ****     SPI_adc_TX_STATUS_MASK_REG  = (intSrc & ((uint8) ~SPI_adc_STS_SPI_IDLE));
 976              		.loc 1 1092 0
 977 0000 034A     		ldr	r2, .L109
1093:Generated_Source\PSoC5/SPI_adc.c ****     SPI_adc_RX_STATUS_MASK_REG  =  intSrc;
 978              		.loc 1 1093 0
 979 0002 044B     		ldr	r3, .L109+4
1092:Generated_Source\PSoC5/SPI_adc.c ****     SPI_adc_TX_STATUS_MASK_REG  = (intSrc & ((uint8) ~SPI_adc_STS_SPI_IDLE));
 980              		.loc 1 1092 0
 981 0004 00F0EF01 		and	r1, r0, #239
 982 0008 1170     		strb	r1, [r2]
 983              		.loc 1 1093 0
 984 000a 1870     		strb	r0, [r3]
 985 000c 7047     		bx	lr
 986              	.L110:
 987 000e 00BF     		.align	2
 988              	.L109:
 989 0010 84650040 		.word	1073767812
 990 0014 85650040 		.word	1073767813
 991              		.cfi_endproc
 992              	.LFE22:
 993              		.size	SPI_adc_SetInterruptMode, .-SPI_adc_SetInterruptMode
 994              		.section	.text.SPI_adc_ReadStatus,"ax",%progbits
 995              		.align	2
 996              		.global	SPI_adc_ReadStatus
 997              		.thumb
 998              		.thumb_func
 999              		.type	SPI_adc_ReadStatus, %function
 1000              	SPI_adc_ReadStatus:
 1001              	.LFB23:
1094:Generated_Source\PSoC5/SPI_adc.c **** }
1095:Generated_Source\PSoC5/SPI_adc.c **** 
1096:Generated_Source\PSoC5/SPI_adc.c **** 
1097:Generated_Source\PSoC5/SPI_adc.c **** /*******************************************************************************
ARM GAS  C:\Users\larco\AppData\Local\Temp\ccUwEttB.s 			page 40


1098:Generated_Source\PSoC5/SPI_adc.c **** * Function Name: SPI_adc_ReadStatus
1099:Generated_Source\PSoC5/SPI_adc.c **** ********************************************************************************
1100:Generated_Source\PSoC5/SPI_adc.c **** *
1101:Generated_Source\PSoC5/SPI_adc.c **** * Summary:
1102:Generated_Source\PSoC5/SPI_adc.c **** *  Read the status register for the component.
1103:Generated_Source\PSoC5/SPI_adc.c **** *
1104:Generated_Source\PSoC5/SPI_adc.c **** * Parameters:
1105:Generated_Source\PSoC5/SPI_adc.c **** *  None.
1106:Generated_Source\PSoC5/SPI_adc.c **** *
1107:Generated_Source\PSoC5/SPI_adc.c **** * Return:
1108:Generated_Source\PSoC5/SPI_adc.c **** *  Contents of the status register.
1109:Generated_Source\PSoC5/SPI_adc.c **** *
1110:Generated_Source\PSoC5/SPI_adc.c **** * Global variables:
1111:Generated_Source\PSoC5/SPI_adc.c **** *  SPI_adc_swStatus - used to store in software status register,
1112:Generated_Source\PSoC5/SPI_adc.c **** *  modified every function call - resets to zero.
1113:Generated_Source\PSoC5/SPI_adc.c **** *
1114:Generated_Source\PSoC5/SPI_adc.c **** * Theory:
1115:Generated_Source\PSoC5/SPI_adc.c **** *  Allows the user and the API to read the status register for error detection
1116:Generated_Source\PSoC5/SPI_adc.c **** *  and flow control.
1117:Generated_Source\PSoC5/SPI_adc.c **** *
1118:Generated_Source\PSoC5/SPI_adc.c **** * Side Effects:
1119:Generated_Source\PSoC5/SPI_adc.c **** *  Clear status register of the component.
1120:Generated_Source\PSoC5/SPI_adc.c **** *
1121:Generated_Source\PSoC5/SPI_adc.c **** * Reentrant:
1122:Generated_Source\PSoC5/SPI_adc.c **** *  No.
1123:Generated_Source\PSoC5/SPI_adc.c **** *
1124:Generated_Source\PSoC5/SPI_adc.c **** *******************************************************************************/
1125:Generated_Source\PSoC5/SPI_adc.c **** uint8 SPI_adc_ReadStatus(void) 
1126:Generated_Source\PSoC5/SPI_adc.c **** {
 1002              		.loc 1 1126 0
 1003              		.cfi_startproc
 1004              		@ args = 0, pretend = 0, frame = 0
 1005              		@ frame_needed = 0, uses_anonymous_args = 0
 1006              		@ link register save eliminated.
1127:Generated_Source\PSoC5/SPI_adc.c ****     uint8 tmpStatus;
1128:Generated_Source\PSoC5/SPI_adc.c **** 
1129:Generated_Source\PSoC5/SPI_adc.c ****     #if(SPI_adc_TX_SOFTWARE_BUF_ENABLED || SPI_adc_RX_SOFTWARE_BUF_ENABLED)
1130:Generated_Source\PSoC5/SPI_adc.c **** 
1131:Generated_Source\PSoC5/SPI_adc.c ****         SPI_adc_DisableInt();
1132:Generated_Source\PSoC5/SPI_adc.c **** 
1133:Generated_Source\PSoC5/SPI_adc.c ****         tmpStatus  = SPI_adc_GET_STATUS_RX(SPI_adc_swStatusRx);
1134:Generated_Source\PSoC5/SPI_adc.c ****         tmpStatus |= SPI_adc_GET_STATUS_TX(SPI_adc_swStatusTx);
1135:Generated_Source\PSoC5/SPI_adc.c ****         tmpStatus &= ((uint8) ~SPI_adc_STS_SPI_IDLE);
1136:Generated_Source\PSoC5/SPI_adc.c **** 
1137:Generated_Source\PSoC5/SPI_adc.c ****         SPI_adc_swStatusTx = 0u;
1138:Generated_Source\PSoC5/SPI_adc.c ****         SPI_adc_swStatusRx = 0u;
1139:Generated_Source\PSoC5/SPI_adc.c **** 
1140:Generated_Source\PSoC5/SPI_adc.c ****         SPI_adc_EnableInt();
1141:Generated_Source\PSoC5/SPI_adc.c **** 
1142:Generated_Source\PSoC5/SPI_adc.c ****     #else
1143:Generated_Source\PSoC5/SPI_adc.c **** 
1144:Generated_Source\PSoC5/SPI_adc.c ****         tmpStatus  = SPI_adc_RX_STATUS_REG;
 1007              		.loc 1 1144 0
 1008 0000 034A     		ldr	r2, .L112
1145:Generated_Source\PSoC5/SPI_adc.c ****         tmpStatus |= SPI_adc_TX_STATUS_REG;
 1009              		.loc 1 1145 0
 1010 0002 044B     		ldr	r3, .L112+4
ARM GAS  C:\Users\larco\AppData\Local\Temp\ccUwEttB.s 			page 41


1144:Generated_Source\PSoC5/SPI_adc.c ****         tmpStatus |= SPI_adc_TX_STATUS_REG;
 1011              		.loc 1 1144 0
 1012 0004 1078     		ldrb	r0, [r2]	@ zero_extendqisi2
 1013              	.LVL31:
 1014              		.loc 1 1145 0
 1015 0006 1B78     		ldrb	r3, [r3]	@ zero_extendqisi2
 1016 0008 1843     		orrs	r0, r0, r3
 1017              	.LVL32:
1146:Generated_Source\PSoC5/SPI_adc.c ****         tmpStatus &= ((uint8) ~SPI_adc_STS_SPI_IDLE);
1147:Generated_Source\PSoC5/SPI_adc.c **** 
1148:Generated_Source\PSoC5/SPI_adc.c ****     #endif /* (SPI_adc_TX_SOFTWARE_BUF_ENABLED || SPI_adc_RX_SOFTWARE_BUF_ENABLED) */
1149:Generated_Source\PSoC5/SPI_adc.c **** 
1150:Generated_Source\PSoC5/SPI_adc.c ****     return(tmpStatus);
1151:Generated_Source\PSoC5/SPI_adc.c **** }
 1018              		.loc 1 1151 0
 1019 000a 00F0EF00 		and	r0, r0, #239
 1020              	.LVL33:
 1021 000e 7047     		bx	lr
 1022              	.L113:
 1023              		.align	2
 1024              	.L112:
 1025 0010 65650040 		.word	1073767781
 1026 0014 64650040 		.word	1073767780
 1027              		.cfi_endproc
 1028              	.LFE23:
 1029              		.size	SPI_adc_ReadStatus, .-SPI_adc_ReadStatus
 1030              		.comm	SPI_adc_swStatusRx,1,1
 1031              		.comm	SPI_adc_swStatusTx,1,1
 1032              		.global	SPI_adc_initVar
 1033              		.bss
 1034              		.set	.LANCHOR0,. + 0
 1035              		.type	SPI_adc_initVar, %object
 1036              		.size	SPI_adc_initVar, 1
 1037              	SPI_adc_initVar:
 1038 0000 00       		.space	1
 1039              		.text
 1040              	.Letext0:
 1041              		.file 2 "Generated_Source\\PSoC5\\cytypes.h"
 1042              		.file 3 "Generated_Source\\PSoC5\\CyLib.h"